TN:
SF:/home/duong/MediaPlayerApp/src/controllers/HardwareController.cpp
FN:107,126,_ZZN12media_player11controllers18HardwareController11autoConnectEvENKUlvE_clEv
FN:131,195,_ZN12media_player11controllers18HardwareController18scanAvailablePortsB5cxx11Ev
FN:197,205,_ZN12media_player11controllers18HardwareController7connectERKNSt7__cxx1112basic_stringIcSt11char_traitsIcESaIcEEEi
FN:207,217,_ZN12media_player11controllers18HardwareController10disconnectEv
FN:219,222,_ZNK12media_player11controllers18HardwareController11isConnectedEv
FN:224,247,_ZN12media_player11controllers18HardwareController17refreshConnectionEv
FN:249,261,_ZN12media_player11controllers18HardwareController19sendCurrentSongInfoERKNSt7__cxx1112basic_stringIcSt11char_traitsIcESaIcEEES9_
FN:263,275,_ZN12media_player11controllers18HardwareController17sendPlaybackStateEb
FN:277,280,_ZN12media_player11controllers18HardwareController17setButtonCallbackESt8functionIFvNS0_14HardwareButtonEEE
FN:28,53,_ZN12media_player11controllers18HardwareControllerC2ESt10shared_ptrINS_8services20ISerialCommunicationEES2_INS_6models18PlaybackStateModelEE
FN:282,285,_ZN12media_player11controllers18HardwareController17setVolumeCallbackESt8functionIFviEE
FN:287,299,_ZN12media_player11controllers18HardwareController20onSerialDataReceivedERKNSt7__cxx1112basic_stringIcSt11char_traitsIcESaIcEEE
FN:301,352,_ZN12media_player11controllers18HardwareController13processBufferEv
FN:354,416,_ZN12media_player11controllers18HardwareController19parseS32K144MessageERKNSt7__cxx1112basic_stringIcSt11char_traitsIcESaIcEEE
FN:39,42,_ZZN12media_player11controllers18HardwareControllerC4ESt10shared_ptrINS_8services20ISerialCommunicationEES2_INS_6models18PlaybackStateModelEEENKUlRKNSt7__cxx1112basic_stringIcSt11char_traitsIcESaIcEEEE_clESG_
FN:47,50,_ZZN12media_player11controllers18HardwareControllerC4ESt10shared_ptrINS_8services20ISerialCommunicationEES2_INS_6models18PlaybackStateModelEEENKUlRKNSt7__cxx1112basic_stringIcSt11char_traitsIcESaIcEEEE0_clESG_
FN:55,64,_ZN12media_player11controllers18HardwareControllerD2Ev
FN:66,79,_ZN12media_player11controllers18HardwareController10initializeEv
FN:81,129,_ZN12media_player11controllers18HardwareController11autoConnectEv
FNDA:2,_ZZN12media_player11controllers18HardwareController11autoConnectEvENKUlvE_clEv
FNDA:2,_ZN12media_player11controllers18HardwareController18scanAvailablePortsB5cxx11Ev
FNDA:3,_ZN12media_player11controllers18HardwareController7connectERKNSt7__cxx1112basic_stringIcSt11char_traitsIcESaIcEEEi
FNDA:26,_ZN12media_player11controllers18HardwareController10disconnectEv
FNDA:8,_ZNK12media_player11controllers18HardwareController11isConnectedEv
FNDA:4,_ZN12media_player11controllers18HardwareController17refreshConnectionEv
FNDA:3,_ZN12media_player11controllers18HardwareController19sendCurrentSongInfoERKNSt7__cxx1112basic_stringIcSt11char_traitsIcESaIcEEES9_
FNDA:4,_ZN12media_player11controllers18HardwareController17sendPlaybackStateEb
FNDA:5,_ZN12media_player11controllers18HardwareController17setButtonCallbackESt8functionIFvNS0_14HardwareButtonEEE
FNDA:23,_ZN12media_player11controllers18HardwareControllerC2ESt10shared_ptrINS_8services20ISerialCommunicationEES2_INS_6models18PlaybackStateModelEE
FNDA:5,_ZN12media_player11controllers18HardwareController17setVolumeCallbackESt8functionIFviEE
FNDA:15,_ZN12media_player11controllers18HardwareController20onSerialDataReceivedERKNSt7__cxx1112basic_stringIcSt11char_traitsIcESaIcEEE
FNDA:15,_ZN12media_player11controllers18HardwareController13processBufferEv
FNDA:12,_ZN12media_player11controllers18HardwareController19parseS32K144MessageERKNSt7__cxx1112basic_stringIcSt11char_traitsIcESaIcEEE
FNDA:15,_ZZN12media_player11controllers18HardwareControllerC4ESt10shared_ptrINS_8services20ISerialCommunicationEES2_INS_6models18PlaybackStateModelEEENKUlRKNSt7__cxx1112basic_stringIcSt11char_traitsIcESaIcEEEE_clESG_
FNDA:0,_ZZN12media_player11controllers18HardwareControllerC4ESt10shared_ptrINS_8services20ISerialCommunicationEES2_INS_6models18PlaybackStateModelEEENKUlRKNSt7__cxx1112basic_stringIcSt11char_traitsIcESaIcEEEE0_clESG_
FNDA:23,_ZN12media_player11controllers18HardwareControllerD2Ev
FNDA:3,_ZN12media_player11controllers18HardwareController10initializeEv
FNDA:4,_ZN12media_player11controllers18HardwareController11autoConnectEv
FNF:19
FNH:18
BRDA:38,0,0,23
BRDA:38,e0,1,0
BRDA:46,0,0,23
BRDA:46,e0,1,0
BRDA:58,0,0,2
BRDA:58,0,1,21
BRDA:69,0,0,3
BRDA:69,e0,1,0
BRDA:69,0,2,1
BRDA:69,0,3,2
BRDA:75,0,0,2
BRDA:75,e0,1,0
BRDA:78,0,0,2
BRDA:78,e0,1,0
BRDA:83,0,0,4
BRDA:83,e0,1,0
BRDA:85,0,0,0
BRDA:85,0,1,4
BRDA:90,0,0,4
BRDA:90,e0,1,0
BRDA:90,0,2,2
BRDA:90,0,3,2
BRDA:97,0,0,0
BRDA:97,0,1,2
BRDA:100,0,0,-
BRDA:100,e0,1,-
BRDA:107,0,0,2
BRDA:107,e0,1,0
BRDA:108,0,0,2
BRDA:108,e0,1,0
BRDA:111,0,0,0
BRDA:111,0,1,2
BRDA:114,0,0,-
BRDA:114,0,1,-
BRDA:116,0,0,-
BRDA:116,e0,1,-
BRDA:116,0,2,-
BRDA:116,0,3,-
BRDA:136,0,0,2
BRDA:136,e0,1,0
BRDA:138,0,0,4
BRDA:138,0,1,2
BRDA:140,0,0,40
BRDA:140,0,1,4
BRDA:142,0,0,40
BRDA:142,e0,1,0
BRDA:144,0,0,40
BRDA:144,e0,1,0
BRDA:144,0,2,40
BRDA:144,e0,3,0
BRDA:144,0,4,0
BRDA:144,0,5,40
BRDA:146,0,0,-
BRDA:146,e0,1,-
BRDA:152,0,0,2
BRDA:152,e0,1,0
BRDA:154,0,0,4
BRDA:154,0,1,2
BRDA:156,0,0,4
BRDA:156,e0,1,0
BRDA:156,0,2,4
BRDA:156,e0,3,0
BRDA:156,0,4,4
BRDA:156,0,5,0
BRDA:161,0,0,-
BRDA:161,e0,1,-
BRDA:161,0,2,-
BRDA:161,e0,3,-
BRDA:161,0,4,-
BRDA:161,e0,5,-
BRDA:161,0,6,-
BRDA:161,0,7,-
BRDA:163,0,0,-
BRDA:163,e0,1,-
BRDA:163,0,2,-
BRDA:163,0,3,-
BRDA:163,0,4,-
BRDA:163,e0,5,-
BRDA:163,0,6,-
BRDA:163,0,7,-
BRDA:163,0,8,-
BRDA:163,0,9,-
BRDA:165,0,0,-
BRDA:165,e0,1,-
BRDA:165,0,2,-
BRDA:165,e0,3,-
BRDA:171,0,0,2
BRDA:171,e0,1,0
BRDA:172,0,0,2
BRDA:172,e0,1,0
BRDA:172,0,2,2
BRDA:172,e0,3,0
BRDA:174,0,0,2
BRDA:174,e0,1,0
BRDA:175,0,0,2
BRDA:175,0,1,0
BRDA:177,0,0,2
BRDA:177,e0,1,0
BRDA:181,0,0,-
BRDA:181,0,1,-
BRDA:183,0,0,-
BRDA:183,0,1,-
BRDA:185,0,0,-
BRDA:185,e0,1,-
BRDA:188,0,0,-
BRDA:188,e0,1,-
BRDA:199,0,0,2
BRDA:199,0,1,1
BRDA:209,0,0,26
BRDA:209,e0,1,0
BRDA:209,0,2,17
BRDA:209,0,3,9
BRDA:211,0,0,17
BRDA:211,e0,1,0
BRDA:215,0,0,26
BRDA:215,e0,1,0
BRDA:226,0,0,4
BRDA:226,e0,1,0
BRDA:226,0,2,2
BRDA:226,0,3,2
BRDA:232,0,0,0
BRDA:232,0,1,2
BRDA:238,0,0,2
BRDA:238,e0,1,0
BRDA:238,0,2,2
BRDA:238,e0,3,0
BRDA:238,0,4,2
BRDA:238,0,5,0
BRDA:246,0,0,-
BRDA:246,e0,1,-
BRDA:251,0,0,3
BRDA:251,e0,1,0
BRDA:251,0,2,2
BRDA:251,0,3,1
BRDA:257,0,0,1
BRDA:257,e0,1,0
BRDA:257,0,2,1
BRDA:257,e0,3,0
BRDA:257,0,4,1
BRDA:257,e0,5,0
BRDA:257,0,6,1
BRDA:257,e0,7,0
BRDA:260,0,0,1
BRDA:260,e0,1,0
BRDA:265,0,0,4
BRDA:265,e0,1,0
BRDA:265,0,2,2
BRDA:265,0,3,2
BRDA:271,0,0,1
BRDA:271,0,1,1
BRDA:271,0,2,2
BRDA:271,e0,3,0
BRDA:272,0,0,2
BRDA:272,e0,1,0
BRDA:272,0,2,2
BRDA:272,e0,3,0
BRDA:274,0,0,2
BRDA:274,e0,1,0
BRDA:293,0,0,15
BRDA:293,e0,1,0
BRDA:294,0,0,15
BRDA:294,e0,1,0
BRDA:303,0,0,15
BRDA:303,e0,1,0
BRDA:308,0,0,16
BRDA:308,0,1,11
BRDA:313,0,0,2
BRDA:313,0,1,14
BRDA:316,0,0,2
BRDA:316,e0,1,0
BRDA:323,0,0,2
BRDA:323,0,1,12
BRDA:326,0,0,2
BRDA:326,e0,1,0
BRDA:331,0,0,12
BRDA:331,e0,1,0
BRDA:334,0,0,12
BRDA:334,e0,1,0
BRDA:341,0,0,11
BRDA:341,0,1,4
BRDA:341,0,2,11
BRDA:341,0,3,0
BRDA:341,0,4,11
BRDA:341,0,5,4
BRDA:343,0,0,11
BRDA:343,e0,1,0
BRDA:348,0,0,1
BRDA:348,0,1,14
BRDA:359,0,0,12
BRDA:359,e0,1,0
BRDA:359,0,2,7
BRDA:359,0,3,5
BRDA:363,0,0,7
BRDA:363,e0,1,0
BRDA:363,0,2,7
BRDA:363,e0,3,0
BRDA:363,0,4,7
BRDA:363,e0,5,0
BRDA:366,0,0,7
BRDA:366,0,1,0
BRDA:366,0,2,1
BRDA:366,0,3,6
BRDA:371,0,0,5
BRDA:371,0,1,1
BRDA:373,0,0,5
BRDA:373,e0,1,0
BRDA:378,0,0,0
BRDA:378,0,1,0
BRDA:385,0,0,5
BRDA:385,e0,1,0
BRDA:385,0,2,5
BRDA:385,0,3,0
BRDA:389,0,0,5
BRDA:389,e0,1,0
BRDA:389,0,2,5
BRDA:389,e0,3,0
BRDA:389,0,4,5
BRDA:389,e0,5,0
BRDA:392,0,0,4
BRDA:392,0,1,1
BRDA:392,0,2,2
BRDA:392,0,3,2
BRDA:396,0,0,2
BRDA:396,0,1,0
BRDA:398,0,0,2
BRDA:398,e0,1,0
BRDA:408,0,0,0
BRDA:408,0,1,0
BRF:228
BRH:114
DA:28,23
DA:31,23
DA:32,23
DA:33,23
DA:34,23
DA:35,23
DA:38,46
DA:39,23
DA:41,15
DA:42,15
DA:46,23
DA:47,0
DA:50,0
DA:53,23
DA:55,23
DA:57,23
DA:58,23
DA:60,2
DA:63,23
DA:64,23
DA:66,3
DA:69,3
DA:71,1
DA:75,2
DA:76,2
DA:78,2
DA:79,2
DA:81,4
DA:83,4
DA:85,4
DA:87,0
DA:90,4
DA:92,2
DA:95,2
DA:97,2
DA:99,0
DA:100,0
DA:103,2
DA:104,2
DA:107,4
DA:108,2
DA:109,2
DA:111,2
DA:114,0
DA:116,0
DA:118,0
DA:119,0
DA:125,2
DA:126,4
DA:128,2
DA:129,4
DA:131,2
DA:133,2
DA:136,4
DA:138,6
DA:140,44
DA:142,40
DA:144,40
DA:146,0
DA:148,40
DA:152,4
DA:154,6
DA:156,4
DA:158,4
DA:161,0
DA:163,0
DA:165,0
DA:167,0
DA:171,2
DA:172,2
DA:174,2
DA:175,2
DA:177,2
DA:181,0
DA:183,0
DA:185,0
DA:188,0
DA:194,4
DA:195,2
DA:197,3
DA:199,3
DA:201,2
DA:204,1
DA:207,26
DA:209,26
DA:211,17
DA:215,26
DA:216,26
DA:217,26
DA:219,8
DA:221,8
DA:224,4
DA:226,4
DA:228,4
DA:232,2
DA:234,0
DA:237,2
DA:238,2
DA:240,2
DA:243,0
DA:246,0
DA:249,3
DA:251,3
DA:253,2
DA:257,1
DA:260,1
DA:261,1
DA:263,4
DA:265,4
DA:267,2
DA:271,2
DA:272,2
DA:274,2
DA:275,2
DA:277,5
DA:279,5
DA:280,5
DA:282,5
DA:284,5
DA:285,5
DA:287,15
DA:293,15
DA:294,15
DA:295,15
DA:298,15
DA:299,15
DA:301,15
DA:303,15
DA:306,15
DA:308,27
DA:311,16
DA:313,16
DA:316,2
DA:317,4
DA:321,14
DA:323,14
DA:326,2
DA:327,2
DA:331,12
DA:334,12
DA:337,12
DA:338,12
DA:341,15
DA:343,11
DA:347,15
DA:348,15
DA:350,1
DA:352,15
DA:354,12
DA:356,12
DA:359,12
DA:363,7
DA:366,7
DA:368,1
DA:371,6
DA:373,5
DA:376,6
DA:378,0
DA:381,0
DA:385,5
DA:389,5
DA:392,5
DA:394,2
DA:396,2
DA:398,2
DA:401,2
DA:408,0
DA:411,0
DA:415,3
DA:416,12
LF:170
LH:145
end_of_record
TN:
SF:/home/duong/MediaPlayerApp/src/controllers/LibraryController.cpp
FN:100,103,_ZNK12media_player11controllers17LibraryController11sortByAlbumEb
FN:105,108,_ZNK12media_player11controllers17LibraryController13getTotalCountEv
FN:110,113,_ZNK12media_player11controllers17LibraryController13getAudioCountEv
FN:115,118,_ZNK12media_player11controllers17LibraryController13getVideoCountEv
FN:20,28,_ZNK12media_player11controllers17LibraryController12readMetadataERKNSt7__cxx1112basic_stringIcSt11char_traitsIcESaIcEEE
FN:30,48,_ZN12media_player11controllers17LibraryController14updateMetadataERKNS_6models14MediaFileModelERKNS2_13MetadataModelE
FN:50,52,_ZN12media_player11controllers17LibraryControllerD2Ev
FN:54,57,_ZNK12media_player11controllers17LibraryController11getAllMediaEv
FN:59,62,_ZNK12media_player11controllers17LibraryController7getPageEmm
FN:64,67,_ZNK12media_player11controllers17LibraryController13getAudioFilesEv
FN:69,83,_ZNK12media_player11controllers17LibraryController13getVideoFilesEv
FN:85,88,_ZNK12media_player11controllers17LibraryController6searchERKNSt7__cxx1112basic_stringIcSt11char_traitsIcESaIcEEE
FN:9,18,_ZN12media_player11controllers17LibraryControllerC2ESt10shared_ptrINS_6models12LibraryModelEES2_INS_12repositories17LibraryRepositoryEES2_INS_8services15IMetadataReaderEE
FN:90,93,_ZNK12media_player11controllers17LibraryController11sortByTitleEb
FN:95,98,_ZNK12media_player11controllers17LibraryController12sortByArtistEb
FNDA:1,_ZNK12media_player11controllers17LibraryController11sortByAlbumEb
FNDA:1,_ZNK12media_player11controllers17LibraryController13getTotalCountEv
FNDA:1,_ZNK12media_player11controllers17LibraryController13getAudioCountEv
FNDA:1,_ZNK12media_player11controllers17LibraryController13getVideoCountEv
FNDA:2,_ZNK12media_player11controllers17LibraryController12readMetadataERKNSt7__cxx1112basic_stringIcSt11char_traitsIcESaIcEEE
FNDA:1,_ZN12media_player11controllers17LibraryController14updateMetadataERKNS_6models14MediaFileModelERKNS2_13MetadataModelE
FNDA:4,_ZN12media_player11controllers17LibraryControllerD2Ev
FNDA:1,_ZNK12media_player11controllers17LibraryController11getAllMediaEv
FNDA:1,_ZNK12media_player11controllers17LibraryController7getPageEmm
FNDA:1,_ZNK12media_player11controllers17LibraryController13getAudioFilesEv
FNDA:1,_ZNK12media_player11controllers17LibraryController13getVideoFilesEv
FNDA:1,_ZNK12media_player11controllers17LibraryController6searchERKNSt7__cxx1112basic_stringIcSt11char_traitsIcESaIcEEE
FNDA:4,_ZN12media_player11controllers17LibraryControllerC2ESt10shared_ptrINS_6models12LibraryModelEES2_INS_12repositories17LibraryRepositoryEES2_INS_8services15IMetadataReaderEE
FNDA:1,_ZNK12media_player11controllers17LibraryController11sortByTitleEb
FNDA:1,_ZNK12media_player11controllers17LibraryController12sortByArtistEb
FNF:15
FNH:15
BRDA:22,0,0,2
BRDA:22,0,1,0
BRDA:22,0,2,2
BRDA:22,e0,3,0
BRDA:22,0,4,1
BRDA:22,0,5,1
BRDA:22,0,6,1
BRDA:22,0,7,1
BRDA:24,0,0,1
BRDA:24,e0,1,0
BRDA:25,0,0,0
BRDA:25,0,1,1
BRDA:32,0,0,0
BRDA:32,0,1,1
BRDA:35,0,0,1
BRDA:35,e0,1,0
BRDA:35,0,2,1
BRDA:35,e0,3,0
BRDA:35,0,4,1
BRDA:35,0,5,0
BRDA:37,0,0,1
BRDA:37,e0,1,0
BRDA:38,0,0,1
BRDA:38,e0,1,0
BRDA:38,0,2,1
BRDA:38,e0,3,0
BRDA:39,0,0,1
BRDA:39,e0,1,0
BRDA:39,0,2,1
BRDA:39,e0,3,0
BRDA:40,0,0,1
BRDA:40,e0,1,0
BRDA:40,0,2,1
BRDA:40,e0,3,0
BRDA:44,0,0,1
BRDA:44,e0,1,0
BRDA:44,0,2,1
BRDA:44,e0,3,0
BRDA:71,0,0,1
BRDA:71,e0,1,0
BRDA:74,0,0,3
BRDA:74,0,1,1
BRDA:76,0,0,1
BRDA:76,0,1,2
BRDA:78,0,0,1
BRDA:78,e0,1,0
BRF:46
BRH:27
DA:9,4
DA:13,4
DA:14,4
DA:15,4
DA:16,4
DA:18,4
DA:20,2
DA:22,2
DA:23,1
DA:24,1
DA:25,1
DA:26,0
DA:27,1
DA:28,1
DA:30,1
DA:32,1
DA:35,1
DA:37,1
DA:38,1
DA:39,1
DA:40,1
DA:44,1
DA:45,1
DA:46,1
DA:47,0
DA:50,4
DA:52,4
DA:54,1
DA:56,1
DA:59,1
DA:61,1
DA:64,1
DA:66,1
DA:69,1
DA:71,1
DA:72,1
DA:74,4
DA:76,3
DA:78,1
DA:82,2
DA:83,1
DA:85,1
DA:87,1
DA:90,1
DA:92,1
DA:95,1
DA:97,1
DA:100,1
DA:102,1
DA:105,1
DA:107,1
DA:110,1
DA:112,1
DA:115,1
DA:117,1
LF:55
LH:53
end_of_record
TN:
SF:/home/duong/MediaPlayerApp/src/controllers/MainController.cpp
FN:29,32,_ZN12media_player11controllers14MainControllerD2Ev
FN:34,51,_ZN12media_player11controllers14MainController10navigateToENS0_10ScreenTypeE
FN:53,56,_ZNK12media_player11controllers14MainController16getCurrentScreenEv
FN:58,67,_ZN12media_player11controllers14MainController10initializeEv
FN:69,89,_ZN12media_player11controllers14MainController8shutdownEv
FN:9,27,_ZN12media_player11controllers14MainControllerC2ESt10shared_ptrINS0_18PlaybackControllerEES2_INS0_16SourceControllerEES2_INS0_17LibraryControllerEES2_INS0_18PlaylistControllerEES2_INS0_15QueueControllerEES2_INS0_18HardwareControllerEES2_INS_6models16SystemStateModelEE
FN:91,95,_ZN12media_player11controllers14MainController20handleGlobalKeyPressEi
FN:97,100,_ZN12media_player11controllers14MainController17handleGlobalEventERKNSt7__cxx1112basic_stringIcSt11char_traitsIcESaIcEEE
FNDA:1,_ZN12media_player11controllers14MainControllerD2Ev
FNDA:4,_ZN12media_player11controllers14MainController10navigateToENS0_10ScreenTypeE
FNDA:1,_ZNK12media_player11controllers14MainController16getCurrentScreenEv
FNDA:1,_ZN12media_player11controllers14MainController10initializeEv
FNDA:2,_ZN12media_player11controllers14MainController8shutdownEv
FNDA:1,_ZN12media_player11controllers14MainControllerC2ESt10shared_ptrINS0_18PlaybackControllerEES2_INS0_16SourceControllerEES2_INS0_17LibraryControllerEES2_INS0_18PlaylistControllerEES2_INS0_15QueueControllerEES2_INS0_18HardwareControllerEES2_INS_6models16SystemStateModelEE
FNDA:1,_ZN12media_player11controllers14MainController20handleGlobalKeyPressEi
FNDA:1,_ZN12media_player11controllers14MainController17handleGlobalEventERKNSt7__cxx1112basic_stringIcSt11char_traitsIcESaIcEEE
FNF:8
FNH:8
BRDA:38,0,0,0
BRDA:38,0,1,1
BRDA:38,0,2,1
BRDA:38,0,3,1
BRDA:38,0,4,1
BRDA:38,0,5,0
BRDA:61,0,0,1
BRDA:61,0,1,0
BRDA:72,0,0,2
BRDA:72,0,1,0
BRDA:78,0,0,0
BRDA:78,0,1,2
BRDA:84,0,0,2
BRDA:84,0,1,0
BRF:14
BRH:8
DA:9,1
DA:17,1
DA:18,1
DA:19,1
DA:20,1
DA:21,1
DA:22,1
DA:23,1
DA:24,1
DA:25,1
DA:27,1
DA:29,1
DA:31,1
DA:32,1
DA:34,4
DA:36,4
DA:38,4
DA:40,0
DA:41,0
DA:42,1
DA:43,1
DA:44,1
DA:45,1
DA:46,1
DA:47,1
DA:48,1
DA:49,1
DA:51,4
DA:53,1
DA:55,1
DA:58,1
DA:61,1
DA:63,1
DA:66,1
DA:69,2
DA:72,2
DA:74,2
DA:78,2
DA:80,0
DA:84,2
DA:86,2
DA:89,2
DA:91,1
DA:95,1
DA:97,1
DA:100,1
LF:46
LH:43
end_of_record
TN:
SF:/home/duong/MediaPlayerApp/src/controllers/PlaybackController.cpp
FN:10,53,_ZN12media_player11controllers18PlaybackControllerC2ESt10shared_ptrINS_6models10QueueModelEES2_INS3_18PlaybackStateModelEES2_INS_12repositories17HistoryRepositoryEE
FN:131,141,_ZN12media_player11controllers18PlaybackController5pauseEv
FN:143,187,_ZN12media_player11controllers18PlaybackController15togglePlayPauseEv
FN:189,209,_ZN12media_player11controllers18PlaybackController4stopEv
FN:211,222,_ZN12media_player11controllers18PlaybackController8playNextEv
FN:227,284,_ZN12media_player11controllers18PlaybackController12playPreviousEv
FN:26,29,_ZZN12media_player11controllers18PlaybackControllerC4ESt10shared_ptrINS_6models10QueueModelEES2_INS3_18PlaybackStateModelEES2_INS_12repositories17HistoryRepositoryEEENKUlNS_8services13PlaybackStateEE_clESC_
FN:286,298,_ZN12media_player11controllers18PlaybackController10playItemAtEm
FN:300,325,_ZN12media_player11controllers18PlaybackController21playMediaWithoutQueueERKNS_6models14MediaFileModelE
FN:327,337,_ZN12media_player11controllers18PlaybackController4seekEi
FN:33,36,_ZZN12media_player11controllers18PlaybackControllerC4ESt10shared_ptrINS_6models10QueueModelEES2_INS3_18PlaybackStateModelEES2_INS_12repositories17HistoryRepositoryEEENKUliiE_clEii
FN:339,349,_ZN12media_player11controllers18PlaybackController9setVolumeEi
FN:351,355,_ZNK12media_player11controllers18PlaybackController9getVolumeEv
FN:357,361,_ZNK12media_player11controllers18PlaybackController9isPlayingEv
FN:363,367,_ZNK12media_player11controllers18PlaybackController8isPausedEv
FN:369,373,_ZNK12media_player11controllers18PlaybackController9isStoppedEv
FN:375,379,_ZNK12media_player11controllers18PlaybackController18getCurrentFilePathB5cxx11Ev
FN:381,385,_ZNK12media_player11controllers18PlaybackController19getCurrentMediaTypeEv
FN:387,421,_ZN12media_player11controllers18PlaybackController19selectAndLoadEngineERKNS_6models14MediaFileModelE
FN:40,43,_ZZN12media_player11controllers18PlaybackControllerC4ESt10shared_ptrINS_6models10QueueModelEES2_INS3_18PlaybackStateModelEES2_INS_12repositories17HistoryRepositoryEEENKUlRKNSt7__cxx1112basic_stringIcSt11char_traitsIcESaIcEEEE_clESI_
FN:423,432,_ZN12media_player11controllers18PlaybackController20cleanupCurrentEngineEv
FN:434,454,_ZN12media_player11controllers18PlaybackController14onStateChangedENS_8services13PlaybackStateE
FN:456,461,_ZN12media_player11controllers18PlaybackController17onPositionChangedEii
FN:463,482,_ZN12media_player11controllers18PlaybackController7onErrorERKNSt7__cxx1112basic_stringIcSt11char_traitsIcESaIcEEE
FN:47,50,_ZZN12media_player11controllers18PlaybackControllerC4ESt10shared_ptrINS_6models10QueueModelEES2_INS3_18PlaybackStateModelEES2_INS_12repositories17HistoryRepositoryEEENKUlvE_clEv
FN:484,553,_ZN12media_player11controllers18PlaybackController10onFinishedEv
FN:55,58,_ZN12media_player11controllers18PlaybackControllerD2Ev
FN:555,564,_ZN12media_player11controllers18PlaybackController14setAudioEngineESt10unique_ptrINS_8services15IPlaybackEngineESt14default_deleteIS4_EE
FN:559,559,_ZZN12media_player11controllers18PlaybackController14setAudioEngineESt10unique_ptrINS_8services15IPlaybackEngineESt14default_deleteIS4_EEENKUlNS3_13PlaybackStateEE_clES8_
FN:560,560,_ZZN12media_player11controllers18PlaybackController14setAudioEngineESt10unique_ptrINS_8services15IPlaybackEngineESt14default_deleteIS4_EEENKUliiE_clEii
FN:561,561,_ZZN12media_player11controllers18PlaybackController14setAudioEngineESt10unique_ptrINS_8services15IPlaybackEngineESt14default_deleteIS4_EEENKUlRKNSt7__cxx1112basic_stringIcSt11char_traitsIcESaIcEEEE_clESF_
FN:562,562,_ZZN12media_player11controllers18PlaybackController14setAudioEngineESt10unique_ptrINS_8services15IPlaybackEngineESt14default_deleteIS4_EEENKUlvE_clEv
FN:60,129,_ZN12media_player11controllers18PlaybackController4playEv
FNDA:42,_ZN12media_player11controllers18PlaybackControllerC2ESt10shared_ptrINS_6models10QueueModelEES2_INS3_18PlaybackStateModelEES2_INS_12repositories17HistoryRepositoryEE
FNDA:6,_ZN12media_player11controllers18PlaybackController5pauseEv
FNDA:9,_ZN12media_player11controllers18PlaybackController15togglePlayPauseEv
FNDA:51,_ZN12media_player11controllers18PlaybackController4stopEv
FNDA:8,_ZN12media_player11controllers18PlaybackController8playNextEv
FNDA:7,_ZN12media_player11controllers18PlaybackController12playPreviousEv
FNDA:0,_ZZN12media_player11controllers18PlaybackControllerC4ESt10shared_ptrINS_6models10QueueModelEES2_INS3_18PlaybackStateModelEES2_INS_12repositories17HistoryRepositoryEEENKUlNS_8services13PlaybackStateEE_clESC_
FNDA:2,_ZN12media_player11controllers18PlaybackController10playItemAtEm
FNDA:9,_ZN12media_player11controllers18PlaybackController21playMediaWithoutQueueERKNS_6models14MediaFileModelE
FNDA:3,_ZN12media_player11controllers18PlaybackController4seekEi
FNDA:0,_ZZN12media_player11controllers18PlaybackControllerC4ESt10shared_ptrINS_6models10QueueModelEES2_INS3_18PlaybackStateModelEES2_INS_12repositories17HistoryRepositoryEEENKUliiE_clEii
FNDA:3,_ZN12media_player11controllers18PlaybackController9setVolumeEi
FNDA:1,_ZNK12media_player11controllers18PlaybackController9getVolumeEv
FNDA:30,_ZNK12media_player11controllers18PlaybackController9isPlayingEv
FNDA:9,_ZNK12media_player11controllers18PlaybackController8isPausedEv
FNDA:3,_ZNK12media_player11controllers18PlaybackController9isStoppedEv
FNDA:12,_ZNK12media_player11controllers18PlaybackController18getCurrentFilePathB5cxx11Ev
FNDA:2,_ZNK12media_player11controllers18PlaybackController19getCurrentMediaTypeEv
FNDA:48,_ZN12media_player11controllers18PlaybackController19selectAndLoadEngineERKNS_6models14MediaFileModelE
FNDA:0,_ZZN12media_player11controllers18PlaybackControllerC4ESt10shared_ptrINS_6models10QueueModelEES2_INS3_18PlaybackStateModelEES2_INS_12repositories17HistoryRepositoryEEENKUlRKNSt7__cxx1112basic_stringIcSt11char_traitsIcESaIcEEEE_clESI_
FNDA:73,_ZN12media_player11controllers18PlaybackController20cleanupCurrentEngineEv
FNDA:133,_ZN12media_player11controllers18PlaybackController14onStateChangedENS_8services13PlaybackStateE
FNDA:2,_ZN12media_player11controllers18PlaybackController17onPositionChangedEii
FNDA:1,_ZN12media_player11controllers18PlaybackController7onErrorERKNSt7__cxx1112basic_stringIcSt11char_traitsIcESaIcEEE
FNDA:0,_ZZN12media_player11controllers18PlaybackControllerC4ESt10shared_ptrINS_6models10QueueModelEES2_INS3_18PlaybackStateModelEES2_INS_12repositories17HistoryRepositoryEEENKUlvE_clEv
FNDA:9,_ZN12media_player11controllers18PlaybackController10onFinishedEv
FNDA:42,_ZN12media_player11controllers18PlaybackControllerD2Ev
FNDA:41,_ZN12media_player11controllers18PlaybackController14setAudioEngineESt10unique_ptrINS_8services15IPlaybackEngineESt14default_deleteIS4_EE
FNDA:133,_ZZN12media_player11controllers18PlaybackController14setAudioEngineESt10unique_ptrINS_8services15IPlaybackEngineESt14default_deleteIS4_EEENKUlNS3_13PlaybackStateEE_clES8_
FNDA:2,_ZZN12media_player11controllers18PlaybackController14setAudioEngineESt10unique_ptrINS_8services15IPlaybackEngineESt14default_deleteIS4_EEENKUliiE_clEii
FNDA:1,_ZZN12media_player11controllers18PlaybackController14setAudioEngineESt10unique_ptrINS_8services15IPlaybackEngineESt14default_deleteIS4_EEENKUlRKNSt7__cxx1112basic_stringIcSt11char_traitsIcESaIcEEEE_clESF_
FNDA:9,_ZZN12media_player11controllers18PlaybackController14setAudioEngineESt10unique_ptrINS_8services15IPlaybackEngineESt14default_deleteIS4_EEENKUlvE_clEv
FNDA:37,_ZN12media_player11controllers18PlaybackController4playEv
FNF:33
FNH:29
BRDA:22,0,0,42
BRDA:22,e0,1,0
BRDA:25,0,0,42
BRDA:25,e0,1,0
BRDA:32,0,0,42
BRDA:32,e0,1,0
BRDA:39,0,0,42
BRDA:39,e0,1,0
BRDA:46,0,0,42
BRDA:46,e0,1,0
BRDA:62,0,0,37
BRDA:62,e0,1,0
BRDA:66,0,0,37
BRDA:66,e0,1,0
BRDA:68,0,0,2
BRDA:68,0,1,35
BRDA:74,0,0,37
BRDA:74,0,1,0
BRDA:74,0,2,37
BRDA:74,e0,3,0
BRDA:74,0,4,37
BRDA:74,e0,5,0
BRDA:74,0,6,37
BRDA:74,e0,7,0
BRDA:74,0,8,2
BRDA:74,0,9,35
BRDA:74,0,10,37
BRDA:74,0,11,0
BRDA:74,0,12,37
BRDA:74,0,13,0
BRDA:74,0,14,2
BRDA:74,0,15,35
BRDA:74,0,16,0
BRDA:74,0,17,0
BRDA:74,0,18,0
BRDA:74,0,19,0
BRDA:76,0,0,2
BRDA:76,e0,1,0
BRDA:76,0,2,2
BRDA:76,e0,3,0
BRDA:77,0,0,2
BRDA:77,e0,1,0
BRDA:78,0,0,2
BRDA:78,e0,1,0
BRDA:80,0,0,0
BRDA:80,0,1,35
BRDA:82,0,0,-
BRDA:82,e0,1,-
BRDA:88,0,0,35
BRDA:88,e0,1,0
BRDA:88,0,2,35
BRDA:88,0,3,0
BRDA:88,0,4,35
BRDA:88,e0,5,0
BRDA:88,0,6,0
BRDA:88,e0,7,0
BRDA:88,0,8,35
BRDA:88,e0,9,0
BRDA:89,0,0,35
BRDA:89,e0,1,0
BRDA:89,0,2,35
BRDA:89,0,3,0
BRDA:89,0,4,35
BRDA:89,e0,5,0
BRDA:89,0,6,0
BRDA:89,e0,7,0
BRDA:89,0,8,35
BRDA:89,e0,9,0
BRDA:89,0,10,35
BRDA:89,0,11,0
BRDA:89,0,12,0
BRDA:89,0,13,0
BRDA:90,0,0,35
BRDA:90,e0,1,0
BRDA:93,0,0,35
BRDA:93,e0,1,0
BRDA:93,0,2,35
BRDA:93,e0,3,0
BRDA:93,0,4,35
BRDA:93,0,5,0
BRDA:95,0,0,35
BRDA:95,e0,1,0
BRDA:95,0,2,1
BRDA:95,0,3,34
BRDA:97,0,0,1
BRDA:97,e0,1,0
BRDA:97,0,2,1
BRDA:97,e0,3,0
BRDA:98,0,0,1
BRDA:98,e0,1,0
BRDA:99,0,0,1
BRDA:99,e0,1,0
BRDA:102,0,0,34
BRDA:102,e0,1,0
BRDA:102,0,2,34
BRDA:102,e0,3,0
BRDA:106,0,0,0
BRDA:106,0,1,34
BRDA:111,0,0,34
BRDA:111,e0,1,0
BRDA:113,0,0,34
BRDA:113,0,1,0
BRDA:116,0,0,1
BRDA:116,0,1,33
BRDA:120,0,0,33
BRDA:120,0,1,0
BRDA:122,0,0,33
BRDA:122,e0,1,0
BRDA:122,0,2,33
BRDA:122,e0,3,0
BRDA:123,0,0,33
BRDA:123,e0,1,0
BRDA:133,0,0,6
BRDA:133,e0,1,0
BRDA:135,0,0,0
BRDA:135,0,1,6
BRDA:140,0,0,6
BRDA:140,e0,1,0
BRDA:145,0,0,9
BRDA:145,e0,1,0
BRDA:147,0,0,9
BRDA:147,e0,1,0
BRDA:147,0,2,2
BRDA:147,0,3,7
BRDA:149,0,0,2
BRDA:149,e0,1,0
BRDA:151,0,0,7
BRDA:151,e0,1,0
BRDA:151,0,2,2
BRDA:151,0,3,5
BRDA:151,0,4,2
BRDA:151,0,5,0
BRDA:151,0,6,2
BRDA:151,0,7,5
BRDA:154,0,0,2
BRDA:154,e0,1,0
BRDA:159,0,0,2
BRDA:159,0,1,3
BRDA:159,0,2,2
BRDA:159,0,3,0
BRDA:159,0,4,2
BRDA:159,0,5,3
BRDA:162,0,0,2
BRDA:162,e0,1,0
BRDA:162,0,2,1
BRDA:162,0,3,1
BRDA:165,0,0,1
BRDA:165,e0,1,0
BRDA:170,0,0,1
BRDA:170,e0,1,0
BRDA:170,0,2,1
BRDA:170,0,3,0
BRDA:172,0,0,1
BRDA:172,e0,1,0
BRDA:172,0,2,1
BRDA:172,e0,3,0
BRDA:173,0,0,1
BRDA:173,e0,1,0
BRDA:173,0,2,1
BRDA:173,0,3,0
BRDA:173,0,4,1
BRDA:173,e0,5,0
BRDA:173,0,6,0
BRDA:173,e0,7,0
BRDA:173,0,8,1
BRDA:173,e0,9,0
BRDA:174,0,0,1
BRDA:174,e0,1,0
BRDA:174,0,2,1
BRDA:174,0,3,0
BRDA:174,0,4,1
BRDA:174,e0,5,0
BRDA:174,0,6,0
BRDA:174,e0,7,0
BRDA:174,0,8,1
BRDA:174,e0,9,0
BRDA:174,0,10,1
BRDA:174,0,11,0
BRDA:174,0,12,0
BRDA:174,0,13,0
BRDA:175,0,0,1
BRDA:175,e0,1,0
BRDA:176,0,0,1
BRDA:176,e0,1,0
BRDA:183,0,0,3
BRDA:183,e0,1,0
BRDA:191,0,0,51
BRDA:191,e0,1,0
BRDA:193,0,0,5
BRDA:193,0,1,46
BRDA:198,0,0,46
BRDA:198,e0,1,0
BRDA:200,0,0,38
BRDA:200,0,1,8
BRDA:202,0,0,38
BRDA:202,e0,1,0
BRDA:202,0,2,38
BRDA:202,e0,3,0
BRDA:203,0,0,38
BRDA:203,e0,1,0
BRDA:204,0,0,38
BRDA:204,e0,1,0
BRDA:213,0,0,8
BRDA:213,e0,1,0
BRDA:214,0,0,8
BRDA:214,e0,1,0
BRDA:215,0,0,6
BRDA:215,0,1,2
BRDA:217,0,0,6
BRDA:217,e0,1,0
BRDA:218,0,0,6
BRDA:218,e0,1,0
BRDA:220,0,0,2
BRDA:220,e0,1,0
BRDA:229,0,0,7
BRDA:229,e0,1,0
BRDA:231,0,0,7
BRDA:231,e0,1,0
BRDA:232,0,0,7
BRDA:232,e0,1,0
BRDA:233,0,0,7
BRDA:233,0,1,0
BRDA:233,0,2,7
BRDA:233,e0,3,0
BRDA:233,0,4,7
BRDA:233,0,5,0
BRDA:233,0,6,7
BRDA:233,0,7,0
BRDA:233,0,8,0
BRDA:233,0,9,0
BRDA:235,0,0,7
BRDA:235,0,1,0
BRDA:235,0,2,7
BRDA:235,e0,3,0
BRDA:235,0,4,0
BRDA:235,0,5,7
BRDA:235,0,6,0
BRDA:235,e0,7,0
BRDA:235,0,8,0
BRDA:235,0,9,0
BRDA:235,0,10,3
BRDA:235,0,11,4
BRDA:236,0,0,3
BRDA:236,0,1,4
BRDA:239,0,0,3
BRDA:239,0,1,0
BRDA:239,0,2,3
BRDA:239,0,3,0
BRDA:239,0,4,3
BRDA:239,0,5,0
BRDA:240,0,0,3
BRDA:240,e0,1,0
BRDA:240,0,2,3
BRDA:240,e0,3,0
BRDA:241,0,0,3
BRDA:241,0,1,0
BRDA:241,0,2,3
BRDA:241,e0,3,0
BRDA:241,0,4,3
BRDA:241,0,5,0
BRDA:245,0,0,4
BRDA:245,e0,1,0
BRDA:246,0,0,4
BRDA:246,0,1,0
BRDA:248,0,0,4
BRDA:248,e0,1,0
BRDA:249,0,0,1
BRDA:249,0,1,3
BRDA:249,0,2,1
BRDA:249,0,3,0
BRDA:249,0,4,1
BRDA:249,0,5,3
BRDA:250,0,0,1
BRDA:250,e0,1,0
BRDA:251,0,0,3
BRDA:251,0,1,1
BRDA:251,0,2,3
BRDA:251,e0,3,0
BRDA:251,0,4,3
BRDA:251,e0,5,0
BRDA:251,0,6,3
BRDA:251,e0,7,0
BRDA:251,0,8,3
BRDA:251,0,9,0
BRDA:251,0,10,3
BRDA:251,0,11,1
BRDA:251,0,12,3
BRDA:251,0,13,1
BRDA:251,0,14,3
BRDA:251,0,15,1
BRDA:251,0,16,0
BRDA:251,0,17,0
BRDA:251,0,18,0
BRDA:251,0,19,0
BRDA:254,0,0,3
BRDA:254,e0,1,0
BRDA:254,0,2,3
BRDA:254,e0,3,0
BRDA:257,0,0,3
BRDA:257,e0,1,0
BRDA:258,0,0,3
BRDA:258,e0,1,0
BRDA:258,0,2,0
BRDA:258,0,3,3
BRDA:260,0,0,3
BRDA:260,e0,1,0
BRDA:260,0,2,3
BRDA:260,e0,3,0
BRDA:261,0,0,3
BRDA:261,e0,1,0
BRDA:261,0,2,3
BRDA:261,0,3,0
BRDA:261,0,4,3
BRDA:261,e0,5,0
BRDA:261,0,6,0
BRDA:261,e0,7,0
BRDA:261,0,8,3
BRDA:261,e0,9,0
BRDA:262,0,0,3
BRDA:262,e0,1,0
BRDA:262,0,2,3
BRDA:262,0,3,0
BRDA:262,0,4,3
BRDA:262,e0,5,0
BRDA:262,0,6,0
BRDA:262,e0,7,0
BRDA:262,0,8,3
BRDA:262,e0,9,0
BRDA:262,0,10,3
BRDA:262,0,11,0
BRDA:262,0,12,0
BRDA:262,0,13,0
BRDA:263,0,0,3
BRDA:263,e0,1,0
BRDA:265,0,0,3
BRDA:265,0,1,0
BRDA:265,0,2,3
BRDA:265,e0,3,0
BRDA:265,0,4,3
BRDA:265,0,5,0
BRDA:267,0,0,1
BRDA:267,0,1,3
BRDA:270,0,0,1
BRDA:270,e0,1,0
BRDA:270,0,2,0
BRDA:270,0,3,1
BRDA:275,0,0,1
BRDA:275,e0,1,0
BRDA:276,0,0,1
BRDA:276,e0,1,0
BRDA:277,0,0,1
BRDA:277,e0,1,0
BRDA:278,0,0,1
BRDA:278,0,1,0
BRDA:278,0,2,1
BRDA:278,0,3,0
BRDA:278,0,4,1
BRDA:278,0,5,0
BRDA:280,0,0,1
BRDA:280,e0,1,0
BRDA:280,0,2,1
BRDA:280,e0,3,0
BRDA:283,0,0,1
BRDA:283,e0,1,0
BRDA:288,0,0,2
BRDA:288,e0,1,0
BRDA:290,0,0,2
BRDA:290,e0,1,0
BRDA:290,0,2,1
BRDA:290,0,3,1
BRDA:295,0,0,1
BRDA:295,e0,1,0
BRDA:296,0,0,1
BRDA:296,e0,1,0
BRDA:296,0,2,1
BRDA:296,e0,3,0
BRDA:296,0,4,1
BRDA:296,e0,5,0
BRDA:296,0,6,1
BRDA:296,e0,7,0
BRDA:297,0,0,1
BRDA:297,e0,1,0
BRDA:302,0,0,9
BRDA:302,e0,1,0
BRDA:304,0,0,9
BRDA:304,e0,1,0
BRDA:304,0,2,9
BRDA:304,e0,3,0
BRDA:304,0,4,9
BRDA:304,e0,5,0
BRDA:304,0,6,1
BRDA:304,0,7,8
BRDA:307,0,0,8
BRDA:307,e0,1,0
BRDA:308,0,0,8
BRDA:308,e0,1,0
BRDA:309,0,0,8
BRDA:309,e0,1,0
BRDA:309,0,2,0
BRDA:309,0,3,8
BRDA:312,0,0,8
BRDA:312,e0,1,0
BRDA:312,0,2,8
BRDA:312,e0,3,0
BRDA:313,0,0,8
BRDA:313,e0,1,0
BRDA:313,0,2,8
BRDA:313,0,3,0
BRDA:313,0,4,8
BRDA:313,e0,5,0
BRDA:313,0,6,0
BRDA:313,e0,7,0
BRDA:313,0,8,8
BRDA:313,e0,9,0
BRDA:314,0,0,8
BRDA:314,e0,1,0
BRDA:314,0,2,8
BRDA:314,0,3,0
BRDA:314,0,4,8
BRDA:314,e0,5,0
BRDA:314,0,6,0
BRDA:314,e0,7,0
BRDA:314,0,8,8
BRDA:314,e0,9,0
BRDA:314,0,10,8
BRDA:314,0,11,0
BRDA:314,0,12,0
BRDA:314,0,13,0
BRDA:315,0,0,8
BRDA:315,e0,1,0
BRDA:318,0,0,8
BRDA:318,0,1,0
BRDA:318,0,2,8
BRDA:318,e0,3,0
BRDA:318,0,4,8
BRDA:318,0,5,0
BRDA:319,0,0,8
BRDA:319,0,1,0
BRDA:319,0,2,8
BRDA:319,0,3,0
BRDA:319,0,4,8
BRDA:319,0,5,0
BRDA:321,0,0,8
BRDA:321,e0,1,0
BRDA:321,0,2,8
BRDA:321,e0,3,0
BRDA:322,0,0,8
BRDA:322,e0,1,0
BRDA:329,0,0,3
BRDA:329,e0,1,0
BRDA:331,0,0,0
BRDA:331,0,1,3
BRDA:336,0,0,3
BRDA:336,e0,1,0
BRDA:341,0,0,3
BRDA:341,e0,1,0
BRDA:343,0,0,3
BRDA:343,0,1,0
BRDA:345,0,0,3
BRDA:345,e0,1,0
BRDA:348,0,0,3
BRDA:348,e0,1,0
BRDA:353,0,0,1
BRDA:353,e0,1,0
BRDA:354,0,0,1
BRDA:354,e0,1,0
BRDA:359,0,0,30
BRDA:359,e0,1,0
BRDA:360,0,0,30
BRDA:360,e0,1,0
BRDA:365,0,0,9
BRDA:365,e0,1,0
BRDA:366,0,0,9
BRDA:366,e0,1,0
BRDA:371,0,0,3
BRDA:371,e0,1,0
BRDA:372,0,0,3
BRDA:372,e0,1,0
BRDA:377,0,0,12
BRDA:377,e0,1,0
BRDA:378,0,0,12
BRDA:378,e0,1,0
BRDA:383,0,0,2
BRDA:383,e0,1,0
BRDA:384,0,0,2
BRDA:384,e0,1,0
BRDA:393,0,0,0
BRDA:393,0,1,48
BRDA:398,0,0,1
BRDA:398,0,1,47
BRDA:410,0,0,47
BRDA:410,e0,1,0
BRDA:410,0,2,47
BRDA:410,e0,3,0
BRDA:410,0,4,0
BRDA:410,0,5,47
BRDA:425,0,0,48
BRDA:425,0,1,25
BRDA:436,0,0,133
BRDA:436,e0,1,0
BRDA:439,0,0,47
BRDA:439,0,1,5
BRDA:439,0,2,81
BRDA:439,0,3,0
BRDA:452,0,0,133
BRDA:452,e0,1,0
BRDA:458,0,0,2
BRDA:458,e0,1,0
BRDA:459,0,0,2
BRDA:459,e0,1,0
BRDA:460,0,0,2
BRDA:460,e0,1,0
BRDA:465,0,0,1
BRDA:465,e0,1,0
BRDA:473,0,0,1
BRDA:473,e0,1,0
BRDA:474,0,0,1
BRDA:474,0,1,0
BRDA:474,0,2,1
BRDA:474,0,3,0
BRDA:474,0,4,1
BRDA:474,0,5,0
BRDA:474,0,6,1
BRDA:474,0,7,0
BRDA:475,0,0,1
BRDA:475,e0,1,0
BRDA:476,0,0,1
BRDA:476,e0,1,0
BRDA:478,0,0,1
BRDA:478,0,1,0
BRDA:478,0,2,1
BRDA:478,0,3,0
BRDA:478,0,4,1
BRDA:478,0,5,0
BRDA:479,0,0,1
BRDA:479,e0,1,0
BRDA:481,0,0,-
BRDA:481,e0,1,-
BRDA:486,0,0,9
BRDA:486,e0,1,0
BRDA:488,0,0,3
BRDA:488,0,1,6
BRDA:492,0,0,2
BRDA:492,0,1,1
BRDA:492,0,2,2
BRDA:492,0,3,0
BRDA:494,0,0,2
BRDA:494,e0,1,0
BRDA:495,0,0,1
BRDA:495,0,1,1
BRDA:498,0,0,1
BRDA:498,e0,1,0
BRDA:502,0,0,1
BRDA:502,0,1,0
BRDA:502,0,2,1
BRDA:502,e0,3,0
BRDA:502,0,4,1
BRDA:502,e0,5,0
BRDA:502,0,6,1
BRDA:502,e0,7,0
BRDA:502,0,8,1
BRDA:502,0,9,0
BRDA:502,0,10,1
BRDA:502,0,11,0
BRDA:502,0,12,1
BRDA:502,0,13,0
BRDA:502,0,14,1
BRDA:502,0,15,0
BRDA:502,0,16,0
BRDA:502,0,17,0
BRDA:502,0,18,0
BRDA:502,0,19,0
BRDA:505,0,0,1
BRDA:505,e0,1,0
BRDA:506,0,0,1
BRDA:506,e0,1,0
BRDA:506,0,2,1
BRDA:506,0,3,0
BRDA:508,0,0,1
BRDA:508,e0,1,0
BRDA:508,0,2,1
BRDA:508,e0,3,0
BRDA:509,0,0,1
BRDA:509,e0,1,0
BRDA:509,0,2,1
BRDA:509,0,3,0
BRDA:509,0,4,1
BRDA:509,e0,5,0
BRDA:509,0,6,0
BRDA:509,e0,7,0
BRDA:509,0,8,1
BRDA:509,e0,9,0
BRDA:510,0,0,1
BRDA:510,e0,1,0
BRDA:510,0,2,1
BRDA:510,0,3,0
BRDA:510,0,4,1
BRDA:510,e0,5,0
BRDA:510,0,6,0
BRDA:510,e0,7,0
BRDA:510,0,8,1
BRDA:510,e0,9,0
BRDA:510,0,10,1
BRDA:510,0,11,0
BRDA:510,0,12,0
BRDA:510,0,13,0
BRDA:511,0,0,1
BRDA:511,e0,1,0
BRDA:513,0,0,1
BRDA:513,0,1,0
BRDA:513,0,2,1
BRDA:513,e0,3,0
BRDA:513,0,4,1
BRDA:513,0,5,0
BRDA:513,0,6,1
BRDA:513,0,7,0
BRDA:518,0,0,1
BRDA:518,e0,1,0
BRDA:519,0,0,1
BRDA:519,e0,1,0
BRDA:521,0,0,1
BRDA:521,0,1,5
BRDA:524,0,0,1
BRDA:524,e0,1,0
BRDA:525,0,0,1
BRDA:525,e0,1,0
BRDA:530,0,0,1
BRDA:530,0,1,4
BRDA:532,0,0,1
BRDA:532,0,1,0
BRDA:534,0,0,1
BRDA:534,e0,1,0
BRDA:535,0,0,1
BRDA:535,0,1,0
BRDA:537,0,0,1
BRDA:537,e0,1,0
BRDA:542,0,0,-
BRDA:542,e0,1,-
BRDA:543,0,0,-
BRDA:543,0,1,-
BRDA:543,0,2,-
BRDA:543,e0,3,-
BRDA:543,0,4,-
BRDA:543,e0,5,-
BRDA:543,0,6,-
BRDA:543,e0,7,-
BRDA:543,0,8,-
BRDA:543,0,9,-
BRDA:543,0,10,-
BRDA:543,0,11,-
BRDA:543,0,12,-
BRDA:543,0,13,-
BRDA:543,0,14,-
BRDA:543,0,15,-
BRDA:543,0,16,-
BRDA:543,0,17,-
BRDA:543,0,18,-
BRDA:543,0,19,-
BRDA:545,0,0,-
BRDA:545,e0,1,-
BRDA:546,0,0,-
BRDA:546,e0,1,-
BRDA:546,0,2,-
BRDA:546,e0,3,-
BRDA:547,0,0,-
BRDA:547,e0,1,-
BRDA:547,0,2,-
BRDA:547,0,3,-
BRDA:550,0,0,-
BRDA:550,0,1,-
BRDA:551,0,0,4
BRDA:551,e0,1,0
BRDA:553,0,0,6
BRDA:553,0,1,3
BRDA:557,0,0,41
BRDA:557,e0,1,0
BRDA:559,0,0,41
BRDA:559,e0,1,0
BRDA:560,0,0,41
BRDA:560,e0,1,0
BRDA:561,0,0,41
BRDA:561,e0,1,0
BRDA:562,0,0,41
BRDA:562,e0,1,0
BRF:684
BRH:333
DA:10,42
DA:14,42
DA:15,42
DA:16,42
DA:17,42
DA:18,42
DA:19,42
DA:22,42
DA:25,84
DA:26,0
DA:28,0
DA:29,0
DA:32,84
DA:33,0
DA:35,0
DA:36,0
DA:39,84
DA:40,0
DA:42,0
DA:43,0
DA:46,84
DA:47,0
DA:49,0
DA:50,0
DA:53,42
DA:55,42
DA:57,42
DA:58,42
DA:60,37
DA:62,37
DA:64,37
DA:65,37
DA:66,37
DA:68,37
DA:70,2
DA:74,37
DA:76,2
DA:77,2
DA:78,2
DA:80,35
DA:82,0
DA:83,0
DA:87,35
DA:88,35
DA:89,105
DA:90,35
DA:93,35
DA:95,35
DA:97,1
DA:98,1
DA:99,1
DA:102,34
DA:106,34
DA:108,0
DA:111,34
DA:113,34
DA:116,34
DA:118,1
DA:120,33
DA:122,33
DA:123,33
DA:128,34
DA:129,37
DA:131,6
DA:133,6
DA:135,6
DA:137,0
DA:140,6
DA:141,6
DA:143,9
DA:145,9
DA:147,9
DA:149,2
DA:151,7
DA:154,2
DA:159,5
DA:162,2
DA:165,1
DA:170,1
DA:172,1
DA:173,1
DA:174,3
DA:175,1
DA:176,1
DA:183,3
DA:186,0
DA:187,9
DA:189,51
DA:191,51
DA:193,51
DA:195,5
DA:198,46
DA:200,46
DA:202,76
DA:203,38
DA:204,38
DA:205,38
DA:208,46
DA:209,51
DA:211,8
DA:213,8
DA:214,8
DA:215,8
DA:217,6
DA:218,6
DA:220,2
DA:221,2
DA:222,8
DA:227,7
DA:229,7
DA:231,7
DA:232,7
DA:233,7
DA:235,7
DA:236,7
DA:239,3
DA:240,3
DA:241,3
DA:245,4
DA:246,4
DA:248,4
DA:249,4
DA:250,1
DA:251,4
DA:254,3
DA:257,3
DA:258,3
DA:259,0
DA:260,3
DA:261,3
DA:262,9
DA:263,3
DA:264,3
DA:265,3
DA:267,4
DA:270,1
DA:272,0
DA:275,1
DA:276,1
DA:277,1
DA:278,1
DA:280,1
DA:281,1
DA:283,1
DA:284,7
DA:286,2
DA:288,2
DA:290,2
DA:292,1
DA:295,1
DA:296,1
DA:297,1
DA:298,2
DA:300,9
DA:302,9
DA:304,9
DA:305,1
DA:307,8
DA:308,8
DA:309,8
DA:310,0
DA:312,8
DA:313,8
DA:314,24
DA:315,8
DA:316,8
DA:318,8
DA:319,8
DA:321,8
DA:322,8
DA:324,8
DA:325,9
DA:327,3
DA:329,3
DA:331,3
DA:333,0
DA:336,3
DA:337,3
DA:339,3
DA:341,3
DA:343,3
DA:345,3
DA:348,3
DA:349,3
DA:351,1
DA:353,1
DA:354,2
DA:355,1
DA:357,30
DA:359,30
DA:360,60
DA:361,30
DA:363,9
DA:365,9
DA:366,18
DA:367,9
DA:369,3
DA:371,3
DA:372,6
DA:373,3
DA:375,12
DA:377,12
DA:378,24
DA:379,12
DA:381,2
DA:383,2
DA:384,4
DA:385,2
DA:387,48
DA:389,48
DA:393,48
DA:395,0
DA:398,48
DA:400,1
DA:404,47
DA:405,47
DA:408,47
DA:410,47
DA:412,0
DA:413,0
DA:414,0
DA:418,47
DA:420,47
DA:423,73
DA:425,73
DA:427,48
DA:430,73
DA:431,73
DA:432,73
DA:434,133
DA:436,133
DA:439,133
DA:441,47
DA:442,47
DA:443,47
DA:444,5
DA:445,5
DA:446,5
DA:447,81
DA:448,81
DA:449,81
DA:452,133
DA:454,133
DA:456,2
DA:458,2
DA:459,2
DA:460,2
DA:461,2
DA:463,1
DA:465,1
DA:468,1
DA:469,1
DA:470,1
DA:471,1
DA:473,1
DA:474,1
DA:475,1
DA:476,1
DA:478,1
DA:479,1
DA:481,0
DA:482,1
DA:484,9
DA:486,9
DA:487,9
DA:488,9
DA:490,3
DA:492,3
DA:494,2
DA:495,2
DA:497,1
DA:498,1
DA:499,1
DA:502,1
DA:504,1
DA:505,1
DA:506,1
DA:508,1
DA:509,1
DA:510,3
DA:511,1
DA:512,1
DA:513,1
DA:514,1
DA:518,1
DA:519,1
DA:521,6
DA:523,1
DA:524,1
DA:525,1
DA:530,5
DA:532,1
DA:534,1
DA:535,1
DA:537,1
DA:538,1
DA:542,0
DA:543,0
DA:545,0
DA:546,0
DA:547,0
DA:548,0
DA:550,0
DA:551,4
DA:553,9
DA:555,41
DA:557,41
DA:558,41
DA:559,174
DA:560,43
DA:561,42
DA:562,50
DA:563,41
DA:564,41
LF:314
LH:281
end_of_record
TN:
SF:/home/duong/MediaPlayerApp/src/controllers/PlaylistController.cpp
FN:114,135,_ZN12media_player11controllers18PlaylistController23removeMediaFromPlaylistERKNSt7__cxx1112basic_stringIcSt11char_traitsIcESaIcEEEm
FN:137,158,_ZN12media_player11controllers18PlaylistController18moveItemInPlaylistERKNSt7__cxx1112basic_stringIcSt11char_traitsIcESaIcEEEmm
FN:14,16,_ZN12media_player11controllers18PlaylistControllerD2Ev
FN:160,163,_ZNK12media_player11controllers18PlaylistController16getPlaylistCountEv
FN:18,38,_ZN12media_player11controllers18PlaylistController14createPlaylistERKNSt7__cxx1112basic_stringIcSt11char_traitsIcESaIcEEE
FN:40,47,_ZN12media_player11controllers18PlaylistController14deletePlaylistERKNSt7__cxx1112basic_stringIcSt11char_traitsIcESaIcEEE
FN:49,66,_ZN12media_player11controllers18PlaylistController14renamePlaylistERKNSt7__cxx1112basic_stringIcSt11char_traitsIcESaIcEEES9_
FN:68,71,_ZNK12media_player11controllers18PlaylistController15getAllPlaylistsEv
FN:73,76,_ZNK12media_player11controllers18PlaylistController15getPlaylistByIdERKNSt7__cxx1112basic_stringIcSt11char_traitsIcESaIcEEE
FN:78,81,_ZNK12media_player11controllers18PlaylistController17getPlaylistByNameERKNSt7__cxx1112basic_stringIcSt11char_traitsIcESaIcEEE
FN:83,93,_ZNK12media_player11controllers18PlaylistController16getPlaylistItemsERKNSt7__cxx1112basic_stringIcSt11char_traitsIcESaIcEEE
FN:9,12,_ZN12media_player11controllers18PlaylistControllerC2ESt10shared_ptrINS_12repositories18PlaylistRepositoryEE
FN:95,112,_ZN12media_player11controllers18PlaylistController18addMediaToPlaylistERKNSt7__cxx1112basic_stringIcSt11char_traitsIcESaIcEEERKNS_6models14MediaFileModelE
FNDA:3,_ZN12media_player11controllers18PlaylistController23removeMediaFromPlaylistERKNSt7__cxx1112basic_stringIcSt11char_traitsIcESaIcEEEm
FNDA:3,_ZN12media_player11controllers18PlaylistController18moveItemInPlaylistERKNSt7__cxx1112basic_stringIcSt11char_traitsIcESaIcEEEmm
FNDA:3,_ZN12media_player11controllers18PlaylistControllerD2Ev
FNDA:1,_ZNK12media_player11controllers18PlaylistController16getPlaylistCountEv
FNDA:5,_ZN12media_player11controllers18PlaylistController14createPlaylistERKNSt7__cxx1112basic_stringIcSt11char_traitsIcESaIcEEE
FNDA:2,_ZN12media_player11controllers18PlaylistController14deletePlaylistERKNSt7__cxx1112basic_stringIcSt11char_traitsIcESaIcEEE
FNDA:2,_ZN12media_player11controllers18PlaylistController14renamePlaylistERKNSt7__cxx1112basic_stringIcSt11char_traitsIcESaIcEEES9_
FNDA:1,_ZNK12media_player11controllers18PlaylistController15getAllPlaylistsEv
FNDA:1,_ZNK12media_player11controllers18PlaylistController15getPlaylistByIdERKNSt7__cxx1112basic_stringIcSt11char_traitsIcESaIcEEE
FNDA:3,_ZNK12media_player11controllers18PlaylistController17getPlaylistByNameERKNSt7__cxx1112basic_stringIcSt11char_traitsIcESaIcEEE
FNDA:2,_ZNK12media_player11controllers18PlaylistController16getPlaylistItemsERKNSt7__cxx1112basic_stringIcSt11char_traitsIcESaIcEEE
FNDA:3,_ZN12media_player11controllers18PlaylistControllerC2ESt10shared_ptrINS_12repositories18PlaylistRepositoryEE
FNDA:3,_ZN12media_player11controllers18PlaylistController18addMediaToPlaylistERKNSt7__cxx1112basic_stringIcSt11char_traitsIcESaIcEEERKNS_6models14MediaFileModelE
FNF:13
FNH:13
BRDA:20,0,0,1
BRDA:20,0,1,4
BRDA:26,0,0,4
BRDA:26,e0,1,0
BRDA:26,0,2,2
BRDA:26,0,3,2
BRDA:31,0,0,2
BRDA:31,e0,1,0
BRDA:33,0,0,2
BRDA:33,e0,1,0
BRDA:33,0,2,2
BRDA:33,0,3,0
BRDA:42,0,0,1
BRDA:42,0,1,1
BRDA:51,0,0,2
BRDA:51,e0,1,0
BRDA:53,0,0,1
BRDA:53,0,1,1
BRDA:58,0,0,1
BRDA:58,e0,1,0
BRDA:59,0,0,1
BRDA:59,e0,1,0
BRDA:61,0,0,1
BRDA:61,e0,1,0
BRDA:61,0,2,1
BRDA:61,0,3,0
BRDA:85,0,0,2
BRDA:85,e0,1,0
BRDA:87,0,0,1
BRDA:87,0,1,1
BRDA:92,0,0,1
BRDA:92,e0,1,0
BRDA:97,0,0,3
BRDA:97,e0,1,0
BRDA:99,0,0,1
BRDA:99,0,1,2
BRDA:104,0,0,2
BRDA:104,e0,1,0
BRDA:105,0,0,2
BRDA:105,e0,1,0
BRDA:107,0,0,2
BRDA:107,e0,1,0
BRDA:107,0,2,2
BRDA:107,0,3,0
BRDA:116,0,0,3
BRDA:116,e0,1,0
BRDA:118,0,0,1
BRDA:118,0,1,2
BRDA:123,0,0,2
BRDA:123,e0,1,0
BRDA:125,0,0,2
BRDA:125,e0,1,0
BRDA:125,0,2,1
BRDA:125,0,3,1
BRDA:130,0,0,1
BRDA:130,e0,1,0
BRDA:130,0,2,1
BRDA:130,0,3,0
BRDA:139,0,0,3
BRDA:139,e0,1,0
BRDA:141,0,0,1
BRDA:141,0,1,2
BRDA:146,0,0,2
BRDA:146,e0,1,0
BRDA:148,0,0,2
BRDA:148,e0,1,0
BRDA:148,0,2,1
BRDA:148,0,3,1
BRDA:153,0,0,1
BRDA:153,e0,1,0
BRDA:153,0,2,1
BRDA:153,0,3,0
BRF:72
BRH:46
DA:9,3
DA:10,3
DA:12,3
DA:14,3
DA:16,3
DA:18,5
DA:20,5
DA:22,1
DA:26,4
DA:28,2
DA:31,2
DA:33,2
DA:35,2
DA:37,0
DA:38,2
DA:40,2
DA:42,2
DA:44,1
DA:46,1
DA:49,2
DA:51,2
DA:53,2
DA:55,1
DA:58,1
DA:59,1
DA:61,1
DA:63,1
DA:65,0
DA:66,2
DA:68,1
DA:70,1
DA:73,1
DA:75,1
DA:78,3
DA:80,3
DA:83,2
DA:85,2
DA:87,2
DA:89,1
DA:92,1
DA:93,2
DA:95,3
DA:97,3
DA:99,3
DA:101,1
DA:104,2
DA:105,2
DA:107,2
DA:109,2
DA:111,0
DA:112,3
DA:114,3
DA:116,3
DA:118,3
DA:120,1
DA:123,2
DA:125,2
DA:127,1
DA:130,1
DA:132,1
DA:134,0
DA:135,3
DA:137,3
DA:139,3
DA:141,3
DA:143,1
DA:146,2
DA:148,2
DA:150,1
DA:153,1
DA:155,1
DA:157,0
DA:158,3
DA:160,1
DA:162,1
LF:75
LH:70
end_of_record
TN:
SF:/home/duong/MediaPlayerApp/src/controllers/QueueController.cpp
FN:101,109,_ZN12media_player11controllers15QueueController10moveToNextEv
FN:111,119,_ZN12media_player11controllers15QueueController14moveToPreviousEv
FN:121,129,_ZN12media_player11controllers15QueueController8moveItemEmm
FN:131,135,_ZN12media_player11controllers15QueueController13toggleShuffleEv
FN:137,146,_ZN12media_player11controllers15QueueController15cycleRepeatModeEv
FN:14,16,_ZN12media_player11controllers15QueueControllerD2Ev
FN:148,151,_ZN12media_player11controllers15QueueController12toggleRepeatEv
FN:153,156,_ZN12media_player11controllers15QueueController10setShuffleEb
FN:158,161,_ZN12media_player11controllers15QueueController9setRepeatENS_6models10RepeatModeE
FN:163,166,_ZNK12media_player11controllers15QueueController16isShuffleEnabledEv
FN:168,171,_ZNK12media_player11controllers15QueueController13getRepeatModeEv
FN:173,176,_ZNK12media_player11controllers15QueueController16isLoopOneEnabledEv
FN:178,181,_ZNK12media_player11controllers15QueueController16isLoopAllEnabledEv
FN:18,27,_ZN12media_player11controllers15QueueController10addToQueueERKNS_6models14MediaFileModelE
FN:183,186,_ZNK12media_player11controllers15QueueController15isRepeatEnabledEv
FN:188,191,_ZNK12media_player11controllers15QueueController12getQueueSizeEv
FN:193,196,_ZNK12media_player11controllers15QueueController7isEmptyEv
FN:198,201,_ZNK12media_player11controllers15QueueController7hasNextEv
FN:203,206,_ZNK12media_player11controllers15QueueController11hasPreviousEv
FN:208,211,_ZNK12media_player11controllers15QueueController11getAllItemsEv
FN:213,216,_ZNK12media_player11controllers15QueueController21getPlaybackOrderItemsEv
FN:218,221,_ZNK12media_player11controllers15QueueController14getCurrentItemEv
FN:223,226,_ZNK12media_player11controllers15QueueController15getCurrentIndexEv
FN:29,37,_ZN12media_player11controllers15QueueController14addToQueueNextERKNS_6models14MediaFileModelE
FN:39,47,_ZN12media_player11controllers15QueueController18addPlaylistToQueueERKNS_6models13PlaylistModelE
FN:49,64,_ZN12media_player11controllers15QueueController18addMultipleToQueueERKSt6vectorINS_6models14MediaFileModelESaIS4_EE
FN:66,74,_ZN12media_player11controllers15QueueController15removeFromQueueEm
FN:76,84,_ZN12media_player11controllers15QueueController12removeByPathERKNSt7__cxx1112basic_stringIcSt11char_traitsIcESaIcEEE
FN:86,89,_ZN12media_player11controllers15QueueController10clearQueueEv
FN:9,12,_ZN12media_player11controllers15QueueControllerC2ESt10shared_ptrINS_6models10QueueModelEE
FN:91,99,_ZN12media_player11controllers15QueueController11jumpToIndexEm
FNDA:2,_ZN12media_player11controllers15QueueController10moveToNextEv
FNDA:2,_ZN12media_player11controllers15QueueController14moveToPreviousEv
FNDA:3,_ZN12media_player11controllers15QueueController8moveItemEmm
FNDA:2,_ZN12media_player11controllers15QueueController13toggleShuffleEv
FNDA:5,_ZN12media_player11controllers15QueueController15cycleRepeatModeEv
FNDA:14,_ZN12media_player11controllers15QueueControllerD2Ev
FNDA:0,_ZN12media_player11controllers15QueueController12toggleRepeatEv
FNDA:2,_ZN12media_player11controllers15QueueController10setShuffleEb
FNDA:1,_ZN12media_player11controllers15QueueController9setRepeatENS_6models10RepeatModeE
FNDA:5,_ZNK12media_player11controllers15QueueController16isShuffleEnabledEv
FNDA:1,_ZNK12media_player11controllers15QueueController13getRepeatModeEv
FNDA:0,_ZNK12media_player11controllers15QueueController16isLoopOneEnabledEv
FNDA:0,_ZNK12media_player11controllers15QueueController16isLoopAllEnabledEv
FNDA:17,_ZN12media_player11controllers15QueueController10addToQueueERKNS_6models14MediaFileModelE
FNDA:7,_ZNK12media_player11controllers15QueueController15isRepeatEnabledEv
FNDA:2,_ZNK12media_player11controllers15QueueController12getQueueSizeEv
FNDA:2,_ZNK12media_player11controllers15QueueController7isEmptyEv
FNDA:0,_ZNK12media_player11controllers15QueueController7hasNextEv
FNDA:0,_ZNK12media_player11controllers15QueueController11hasPreviousEv
FNDA:3,_ZNK12media_player11controllers15QueueController11getAllItemsEv
FNDA:2,_ZNK12media_player11controllers15QueueController21getPlaybackOrderItemsEv
FNDA:1,_ZNK12media_player11controllers15QueueController14getCurrentItemEv
FNDA:2,_ZNK12media_player11controllers15QueueController15getCurrentIndexEv
FNDA:3,_ZN12media_player11controllers15QueueController14addToQueueNextERKNS_6models14MediaFileModelE
FNDA:2,_ZN12media_player11controllers15QueueController18addPlaylistToQueueERKNS_6models13PlaylistModelE
FNDA:4,_ZN12media_player11controllers15QueueController18addMultipleToQueueERKSt6vectorINS_6models14MediaFileModelESaIS4_EE
FNDA:3,_ZN12media_player11controllers15QueueController15removeFromQueueEm
FNDA:2,_ZN12media_player11controllers15QueueController12removeByPathERKNSt7__cxx1112basic_stringIcSt11char_traitsIcESaIcEEE
FNDA:1,_ZN12media_player11controllers15QueueController10clearQueueEv
FNDA:14,_ZN12media_player11controllers15QueueControllerC2ESt10shared_ptrINS_6models10QueueModelEE
FNDA:3,_ZN12media_player11controllers15QueueController11jumpToIndexEm
FNF:31
FNH:26
BRDA:21,0,0,17
BRDA:21,e0,1,0
BRDA:21,0,2,9
BRDA:21,0,3,16
BRDA:22,0,0,9
BRDA:22,e0,1,0
BRDA:22,0,2,9
BRDA:22,e0,3,0
BRDA:22,0,4,1
BRDA:22,0,5,8
BRDA:25,0,0,16
BRDA:25,0,1,1
BRDA:31,0,0,3
BRDA:31,e0,1,0
BRDA:31,0,2,4
BRDA:31,0,3,2
BRDA:32,0,0,4
BRDA:32,e0,1,0
BRDA:32,0,2,4
BRDA:32,e0,3,0
BRDA:32,0,4,1
BRDA:32,0,5,3
BRDA:35,0,0,2
BRDA:35,0,1,1
BRDA:41,0,0,2
BRDA:41,e0,1,0
BRDA:43,0,0,4
BRDA:43,0,1,2
BRDA:45,0,0,4
BRDA:45,e0,1,0
BRDA:51,0,0,7
BRDA:51,0,1,4
BRDA:54,0,0,7
BRDA:54,e0,1,0
BRDA:54,0,2,10
BRDA:54,0,3,6
BRDA:55,0,0,10
BRDA:55,e0,1,0
BRDA:55,0,2,10
BRDA:55,e0,3,0
BRDA:55,0,4,1
BRDA:55,0,5,9
BRDA:60,0,0,6
BRDA:60,0,1,1
BRDA:61,0,0,6
BRDA:61,e0,1,0
BRDA:68,0,0,1
BRDA:68,0,1,2
BRDA:78,0,0,1
BRDA:78,0,1,1
BRDA:93,0,0,2
BRDA:93,0,1,1
BRDA:103,0,0,1
BRDA:103,0,1,1
BRDA:113,0,0,1
BRDA:113,0,1,1
BRDA:123,0,0,2
BRDA:123,0,1,1
BRDA:140,0,0,2
BRDA:140,0,1,3
BRDA:141,0,0,1
BRDA:141,0,1,1
BRDA:144,0,0,4
BRDA:144,0,1,1
BRDA:144,0,2,3
BRDA:144,0,3,1
BRF:66
BRH:54
DA:9,14
DA:10,14
DA:12,14
DA:14,14
DA:16,14
DA:18,17
DA:21,25
DA:22,9
DA:23,1
DA:25,17
DA:26,16
DA:29,3
DA:31,6
DA:32,4
DA:33,1
DA:35,3
DA:36,2
DA:39,2
DA:41,2
DA:43,6
DA:45,4
DA:47,2
DA:49,4
DA:51,11
DA:53,7
DA:54,16
DA:55,10
DA:56,1
DA:57,1
DA:59,7
DA:60,7
DA:61,6
DA:64,4
DA:66,3
DA:68,3
DA:70,1
DA:73,2
DA:76,2
DA:78,2
DA:80,1
DA:83,1
DA:86,1
DA:88,1
DA:89,1
DA:91,3
DA:93,3
DA:95,2
DA:98,1
DA:101,2
DA:103,2
DA:105,1
DA:108,1
DA:111,2
DA:113,2
DA:115,1
DA:118,1
DA:121,3
DA:123,3
DA:125,2
DA:128,1
DA:131,2
DA:133,2
DA:134,2
DA:135,2
DA:137,5
DA:139,5
DA:140,7
DA:141,2
DA:143,5
DA:144,5
DA:146,5
DA:148,0
DA:150,0
DA:151,0
DA:153,2
DA:155,2
DA:156,2
DA:158,1
DA:160,1
DA:161,1
DA:163,5
DA:165,5
DA:168,1
DA:170,1
DA:173,0
DA:175,0
DA:178,0
DA:180,0
DA:183,7
DA:185,7
DA:188,2
DA:190,2
DA:193,2
DA:195,2
DA:198,0
DA:200,0
DA:203,0
DA:205,0
DA:208,3
DA:210,3
DA:213,2
DA:215,2
DA:218,1
DA:220,1
DA:223,2
DA:225,2
LF:106
LH:95
end_of_record
TN:
SF:/home/duong/MediaPlayerApp/src/controllers/SourceController.cpp
FN:107,168,_ZN12media_player11controllers16SourceController15isStorageDeviceERKNSt7__cxx1112basic_stringIcSt11char_traitsIcESaIcEEE
FN:13,42,_ZN12media_player11controllers16SourceControllerC2ESt10shared_ptrINS_8services12IFileScannerEES2_INS_12repositories17LibraryRepositoryEES2_INS_6models12LibraryModelEE
FN:170,176,_ZN12media_player11controllers16SourceController15isS32K144DeviceERKNSt7__cxx1112basic_stringIcSt11char_traitsIcESaIcEEE
FN:178,183,_ZN12media_player11controllers16SourceController16handleUSBRemovedEv
FN:185,188,_ZNK12media_player11controllers16SourceController10isScanningEv
FN:190,193,_ZNK12media_player11controllers16SourceController20getCurrentSourcePathB5cxx11Ev
FN:195,198,_ZN12media_player11controllers16SourceController19setProgressCallbackESt8functionIFviRKNSt7__cxx1112basic_stringIcSt11char_traitsIcESaIcEEEEE
FN:200,203,_ZN12media_player11controllers16SourceController19setCompleteCallbackESt8functionIFviEE
FN:205,208,_ZN12media_player11controllers16SourceController22setUsbInsertedCallbackESt8functionIFvRKNSt7__cxx1112basic_stringIcSt11char_traitsIcESaIcEEEEE
FN:210,216,_ZN12media_player11controllers16SourceController14onScanProgressEiRKNSt7__cxx1112basic_stringIcSt11char_traitsIcESaIcEEE
FN:218,233,_ZN12media_player11controllers16SourceController14onScanCompleteESt6vectorINS_6models14MediaFileModelESaIS4_EE
FN:238,241,_ZN12media_player11controllers16SourceController12setMediaRootERKNSt7__cxx1112basic_stringIcSt11char_traitsIcESaIcEEE
FN:24,27,_ZZN12media_player11controllers16SourceControllerC4ESt10shared_ptrINS_8services12IFileScannerEES2_INS_12repositories17LibraryRepositoryEES2_INS_6models12LibraryModelEEENKUliRKNSt7__cxx1112basic_stringIcSt11char_traitsIcESaIcEEEE_clEiSJ_
FN:243,353,_ZN12media_player11controllers16SourceController14monitorUsbLoopEv
FN:31,34,_ZZN12media_player11controllers16SourceControllerC4ESt10shared_ptrINS_8services12IFileScannerEES2_INS_12repositories17LibraryRepositoryEES2_INS_6models12LibraryModelEEENKUlSt6vectorINS9_14MediaFileModelESaISD_EEE_clESF_
FN:44,50,_ZN12media_player11controllers16SourceController15startMonitoringEv
FN:52,60,_ZN12media_player11controllers16SourceControllerD2Ev
FN:62,65,_ZN12media_player11controllers16SourceController15selectDirectoryERKNSt7__cxx1112basic_stringIcSt11char_traitsIcESaIcEEE
FN:67,75,_ZN12media_player11controllers16SourceController20scanCurrentDirectoryEv
FN:77,80,_ZN12media_player11controllers16SourceController8stopScanEv
FN:82,105,_ZN12media_player11controllers16SourceController17handleUSBInsertedERKNSt7__cxx1112basic_stringIcSt11char_traitsIcESaIcEEE
FNDA:11,_ZN12media_player11controllers16SourceController15isStorageDeviceERKNSt7__cxx1112basic_stringIcSt11char_traitsIcESaIcEEE
FNDA:19,_ZN12media_player11controllers16SourceControllerC2ESt10shared_ptrINS_8services12IFileScannerEES2_INS_12repositories17LibraryRepositoryEES2_INS_6models12LibraryModelEE
FNDA:0,_ZN12media_player11controllers16SourceController15isS32K144DeviceERKNSt7__cxx1112basic_stringIcSt11char_traitsIcESaIcEEE
FNDA:1,_ZN12media_player11controllers16SourceController16handleUSBRemovedEv
FNDA:1,_ZNK12media_player11controllers16SourceController10isScanningEv
FNDA:4,_ZNK12media_player11controllers16SourceController20getCurrentSourcePathB5cxx11Ev
FNDA:2,_ZN12media_player11controllers16SourceController19setProgressCallbackESt8functionIFviRKNSt7__cxx1112basic_stringIcSt11char_traitsIcESaIcEEEEE
FNDA:1,_ZN12media_player11controllers16SourceController19setCompleteCallbackESt8functionIFviEE
FNDA:7,_ZN12media_player11controllers16SourceController22setUsbInsertedCallbackESt8functionIFvRKNSt7__cxx1112basic_stringIcSt11char_traitsIcESaIcEEEEE
FNDA:2,_ZN12media_player11controllers16SourceController14onScanProgressEiRKNSt7__cxx1112basic_stringIcSt11char_traitsIcESaIcEEE
FNDA:2,_ZN12media_player11controllers16SourceController14onScanCompleteESt6vectorINS_6models14MediaFileModelESaIS4_EE
FNDA:8,_ZN12media_player11controllers16SourceController12setMediaRootERKNSt7__cxx1112basic_stringIcSt11char_traitsIcESaIcEEE
FNDA:2,_ZZN12media_player11controllers16SourceControllerC4ESt10shared_ptrINS_8services12IFileScannerEES2_INS_12repositories17LibraryRepositoryEES2_INS_6models12LibraryModelEEENKUliRKNSt7__cxx1112basic_stringIcSt11char_traitsIcESaIcEEEE_clEiSJ_
FNDA:2,_ZN12media_player11controllers16SourceController14monitorUsbLoopEv
FNDA:2,_ZZN12media_player11controllers16SourceControllerC4ESt10shared_ptrINS_8services12IFileScannerEES2_INS_12repositories17LibraryRepositoryEES2_INS_6models12LibraryModelEEENKUlSt6vectorINS9_14MediaFileModelESaISD_EEE_clESF_
FNDA:2,_ZN12media_player11controllers16SourceController15startMonitoringEv
FNDA:19,_ZN12media_player11controllers16SourceControllerD2Ev
FNDA:2,_ZN12media_player11controllers16SourceController15selectDirectoryERKNSt7__cxx1112basic_stringIcSt11char_traitsIcESaIcEEE
FNDA:4,_ZN12media_player11controllers16SourceController20scanCurrentDirectoryEv
FNDA:23,_ZN12media_player11controllers16SourceController8stopScanEv
FNDA:11,_ZN12media_player11controllers16SourceController17handleUSBInsertedERKNSt7__cxx1112basic_stringIcSt11char_traitsIcESaIcEEE
FNF:21
FNH:20
BRDA:21,0,0,19
BRDA:21,e0,1,0
BRDA:23,0,0,19
BRDA:23,e0,1,0
BRDA:30,0,0,19
BRDA:30,e0,1,0
BRDA:33,0,0,2
BRDA:33,e0,1,0
BRDA:33,0,2,2
BRDA:33,e0,3,0
BRDA:46,0,0,0
BRDA:46,0,1,2
BRDA:49,0,0,2
BRDA:49,e0,1,0
BRDA:55,0,0,2
BRDA:55,0,1,17
BRDA:69,0,0,0
BRDA:69,0,1,4
BRDA:86,0,0,8
BRDA:86,0,1,3
BRDA:89,0,0,5
BRDA:89,0,1,3
BRDA:110,0,0,11
BRDA:110,e0,1,0
BRDA:114,0,0,3
BRDA:114,0,1,8
BRDA:123,0,0,8
BRDA:123,e0,1,0
BRDA:123,0,2,8
BRDA:123,e0,3,0
BRDA:123,0,4,7
BRDA:123,0,5,1
BRDA:128,0,0,7
BRDA:128,e0,1,0
BRDA:128,0,2,7
BRDA:128,e0,3,0
BRDA:128,0,4,1
BRDA:128,e0,5,0
BRDA:128,0,6,5
BRDA:128,0,7,3
BRDA:130,0,0,5
BRDA:130,e0,1,0
BRDA:130,0,2,4
BRDA:130,0,3,1
BRDA:132,0,0,4
BRDA:132,e0,1,0
BRDA:132,0,2,4
BRDA:132,e0,3,0
BRDA:136,0,0,4
BRDA:136,e0,1,0
BRDA:136,0,2,1
BRDA:136,e0,3,0
BRDA:136,0,4,0
BRDA:136,0,5,1
BRDA:136,0,6,0
BRDA:136,e0,7,0
BRDA:136,0,8,0
BRDA:136,0,9,0
BRDA:137,0,0,1
BRDA:137,0,1,3
BRDA:137,0,2,0
BRDA:137,e0,3,0
BRDA:137,0,4,0
BRDA:137,0,5,0
BRDA:137,0,6,0
BRDA:137,e0,7,0
BRDA:137,0,8,0
BRDA:137,0,9,0
BRDA:137,0,10,0
BRDA:137,e0,11,0
BRDA:137,0,12,0
BRDA:137,0,13,0
BRDA:137,0,14,4
BRDA:137,0,15,0
BRDA:141,0,0,0
BRDA:141,0,1,4
BRDA:142,0,0,3
BRDA:142,0,1,4
BRDA:142,0,2,3
BRDA:142,0,3,4
BRDA:142,0,4,3
BRDA:142,0,5,4
BRDA:145,0,0,3
BRDA:145,e0,1,0
BRDA:145,0,2,3
BRDA:145,e0,3,0
BRDA:145,0,4,0
BRDA:145,e0,5,0
BRDA:145,0,6,1
BRDA:145,0,7,2
BRDA:147,0,0,1
BRDA:147,e0,1,0
BRDA:147,0,2,1
BRDA:147,0,3,0
BRDA:149,0,0,1
BRDA:149,e0,1,0
BRDA:149,0,2,1
BRDA:149,e0,3,0
BRDA:153,0,0,1
BRDA:153,e0,1,0
BRDA:153,0,2,0
BRDA:153,e0,3,0
BRDA:153,0,4,0
BRDA:153,0,5,0
BRDA:153,0,6,0
BRDA:153,e0,7,0
BRDA:153,0,8,0
BRDA:153,0,9,0
BRDA:153,0,10,0
BRDA:153,e0,11,0
BRDA:153,0,12,0
BRDA:153,0,13,0
BRDA:154,0,0,0
BRDA:154,0,1,1
BRDA:154,0,2,0
BRDA:154,e0,3,0
BRDA:154,0,4,0
BRDA:154,0,5,0
BRDA:154,0,6,0
BRDA:154,e0,7,0
BRDA:154,0,8,0
BRDA:154,0,9,0
BRDA:154,0,10,0
BRDA:154,e0,11,0
BRDA:154,0,12,0
BRDA:154,0,13,0
BRDA:154,0,14,0
BRDA:154,e0,15,0
BRDA:154,0,16,0
BRDA:154,0,17,0
BRDA:154,0,18,1
BRDA:154,0,19,0
BRDA:158,0,0,0
BRDA:158,0,1,1
BRDA:159,0,0,2
BRDA:159,0,1,1
BRDA:159,0,2,2
BRDA:159,0,3,1
BRDA:159,0,4,2
BRDA:159,0,5,1
BRDA:161,0,0,0
BRDA:161,0,1,0
BRDA:163,0,0,0
BRDA:163,e0,1,0
BRDA:172,0,0,-
BRDA:172,e0,1,-
BRDA:212,0,0,2
BRDA:212,0,1,0
BRDA:229,0,0,1
BRDA:229,0,1,1
BRDA:249,0,0,2
BRDA:249,e0,1,0
BRDA:250,0,0,2
BRDA:250,e0,1,0
BRDA:250,0,2,2
BRDA:250,e0,3,0
BRDA:250,0,4,0
BRDA:250,0,5,2
BRDA:253,0,0,-
BRDA:253,e0,1,-
BRDA:253,0,2,-
BRDA:253,e0,3,-
BRDA:253,0,4,-
BRDA:253,0,5,-
BRDA:255,0,0,-
BRDA:255,e0,1,-
BRDA:276,0,0,2
BRDA:276,e0,1,0
BRDA:278,0,0,4
BRDA:278,0,1,2
BRDA:281,0,0,4
BRDA:281,e0,1,0
BRDA:281,0,2,4
BRDA:281,e0,3,0
BRDA:281,0,4,0
BRDA:281,0,5,4
BRDA:283,0,0,-
BRDA:283,e0,1,-
BRDA:288,0,0,4
BRDA:288,e0,1,0
BRDA:288,0,2,4
BRDA:288,e0,3,0
BRDA:288,0,4,2
BRDA:288,e0,5,0
BRDA:288,0,6,2
BRDA:288,0,7,4
BRDA:290,0,0,2
BRDA:290,e0,1,0
BRDA:290,0,2,2
BRDA:290,0,3,0
BRDA:292,0,0,2
BRDA:292,e0,1,0
BRDA:294,0,0,0
BRDA:294,0,1,2
BRDA:297,0,0,2
BRDA:297,e0,1,0
BRDA:298,0,0,2
BRDA:298,0,1,0
BRDA:302,0,0,2
BRDA:302,0,1,4
BRDA:305,0,0,0
BRDA:305,0,1,2
BRDA:307,0,0,-
BRDA:307,0,1,-
BRDA:314,0,0,2
BRDA:314,0,1,0
BRDA:317,0,0,2
BRDA:317,e0,1,0
BRDA:322,0,0,2
BRDA:322,e0,1,0
BRDA:327,0,0,2
BRDA:327,0,1,4
BRDA:330,0,0,2
BRDA:330,0,1,0
BRDA:332,0,0,2
BRDA:332,0,1,0
BRDA:339,0,0,0
BRDA:339,0,1,2
BRDA:341,0,0,-
BRDA:341,e0,1,-
BRDA:351,0,0,4
BRDA:351,e0,1,0
BRF:222
BRH:98
DA:13,19
DA:17,19
DA:18,19
DA:19,19
DA:20,19
DA:21,57
DA:23,38
DA:24,19
DA:26,2
DA:27,2
DA:30,38
DA:31,19
DA:33,2
DA:34,2
DA:38,19
DA:42,19
DA:44,2
DA:46,2
DA:48,2
DA:49,2
DA:52,19
DA:54,19
DA:55,19
DA:57,2
DA:59,19
DA:60,19
DA:62,2
DA:64,2
DA:65,2
DA:67,4
DA:69,4
DA:71,0
DA:74,4
DA:77,23
DA:79,23
DA:80,23
DA:82,11
DA:86,11
DA:89,8
DA:91,5
DA:96,3
DA:97,3
DA:105,11
DA:107,11
DA:110,11
DA:111,11
DA:114,11
DA:116,3
DA:123,8
DA:128,8
DA:130,5
DA:132,4
DA:133,4
DA:136,5
DA:137,5
DA:139,4
DA:141,4
DA:142,15
DA:145,3
DA:147,1
DA:149,1
DA:150,1
DA:153,1
DA:154,1
DA:156,1
DA:158,1
DA:159,5
DA:161,0
DA:163,0
DA:167,3
DA:168,11
DA:170,0
DA:172,0
DA:173,0
DA:175,0
DA:176,0
DA:178,1
DA:181,1
DA:182,1
DA:183,1
DA:185,1
DA:187,1
DA:190,4
DA:192,4
DA:195,2
DA:197,2
DA:198,2
DA:200,1
DA:202,1
DA:203,1
DA:205,7
DA:207,7
DA:208,7
DA:210,2
DA:212,2
DA:214,2
DA:216,2
DA:218,2
DA:222,2
DA:223,2
DA:226,2
DA:227,2
DA:229,2
DA:231,1
DA:233,2
DA:238,8
DA:240,8
DA:241,8
DA:243,2
DA:249,2
DA:250,2
DA:253,0
DA:255,0
DA:259,2
DA:276,2
DA:278,6
DA:281,4
DA:283,0
DA:284,0
DA:287,4
DA:288,8
DA:290,2
DA:292,2
DA:294,2
DA:295,0
DA:297,2
DA:298,2
DA:299,4
DA:302,6
DA:304,2
DA:305,2
DA:307,0
DA:309,0
DA:310,0
DA:314,2
DA:317,2
DA:322,2
DA:327,6
DA:329,2
DA:330,2
DA:332,2
DA:334,2
DA:335,2
DA:339,2
DA:341,0
DA:346,2
DA:351,4
DA:352,4
DA:353,2
LF:149
LH:132
end_of_record
TN:
SF:/home/duong/MediaPlayerApp/src/models/LibraryModel.cpp
FN:103,121,_ZZNK12media_player6models12LibraryModel9getSortedENS0_12SortCriteriaEbENKUlRKNS0_14MediaFileModelES5_E_clES5_S5_
FN:12,24,_ZN12media_player6models12LibraryModel8addMediaERKNS0_14MediaFileModelE
FN:128,147,_ZNK12media_player6models12LibraryModel7getPageEmm
FN:149,160,_ZNK12media_player6models12LibraryModel18getTotalAudioFilesEv
FN:162,173,_ZNK12media_player6models12LibraryModel18getTotalVideoFilesEv
FN:175,183,_ZNK12media_player6models12LibraryModel12getTotalSizeEv
FN:185,194,_ZNK12media_player6models12LibraryModel12matchesQueryERKNS0_14MediaFileModelERKNSt7__cxx1112basic_stringIcSt11char_traitsIcESaIcEEE
FN:26,32,_ZN12media_player6models12LibraryModel13addMediaBatchERKSt6vectorINS0_14MediaFileModelESaIS3_EE
FN:34,48,_ZN12media_player6models12LibraryModel11removeMediaERKNSt7__cxx1112basic_stringIcSt11char_traitsIcESaIcEEE
FN:37,39,_ZZN12media_player6models12LibraryModel11removeMediaERKNSt7__cxx1112basic_stringIcSt11char_traitsIcESaIcEEEENKUlRKNS0_14MediaFileModelEE_clESC_
FN:51,54,_ZN12media_player6models12LibraryModel5clearEv
FN:56,70,_ZN12media_player6models12LibraryModel11updateMediaERKNSt7__cxx1112basic_stringIcSt11char_traitsIcESaIcEEERKNS0_14MediaFileModelE
FN:59,61,_ZZN12media_player6models12LibraryModel11updateMediaERKNSt7__cxx1112basic_stringIcSt11char_traitsIcESaIcEEERKNS0_14MediaFileModelEENKUlSC_E_clESC_
FN:72,82,_ZNK12media_player6models12LibraryModel14getMediaByPathERKNSt7__cxx1112basic_stringIcSt11char_traitsIcESaIcEEE
FN:84,97,_ZNK12media_player6models12LibraryModel6searchERKNSt7__cxx1112basic_stringIcSt11char_traitsIcESaIcEEE
FN:99,126,_ZNK12media_player6models12LibraryModel9getSortedENS0_12SortCriteriaEb
FNDA:19,_ZZNK12media_player6models12LibraryModel9getSortedENS0_12SortCriteriaEbENKUlRKNS0_14MediaFileModelES5_E_clES5_S5_
FNDA:78,_ZN12media_player6models12LibraryModel8addMediaERKNS0_14MediaFileModelE
FNDA:6,_ZNK12media_player6models12LibraryModel7getPageEmm
FNDA:4,_ZNK12media_player6models12LibraryModel18getTotalAudioFilesEv
FNDA:4,_ZNK12media_player6models12LibraryModel18getTotalVideoFilesEv
FNDA:2,_ZNK12media_player6models12LibraryModel12getTotalSizeEv
FNDA:9,_ZNK12media_player6models12LibraryModel12matchesQueryERKNS0_14MediaFileModelERKNSt7__cxx1112basic_stringIcSt11char_traitsIcESaIcEEE
FNDA:4,_ZN12media_player6models12LibraryModel13addMediaBatchERKSt6vectorINS0_14MediaFileModelESaIS3_EE
FNDA:2,_ZN12media_player6models12LibraryModel11removeMediaERKNSt7__cxx1112basic_stringIcSt11char_traitsIcESaIcEEE
FNDA:2,_ZZN12media_player6models12LibraryModel11removeMediaERKNSt7__cxx1112basic_stringIcSt11char_traitsIcESaIcEEEENKUlRKNS0_14MediaFileModelEE_clESC_
FNDA:3,_ZN12media_player6models12LibraryModel5clearEv
FNDA:3,_ZN12media_player6models12LibraryModel11updateMediaERKNSt7__cxx1112basic_stringIcSt11char_traitsIcESaIcEEERKNS0_14MediaFileModelE
FNDA:1,_ZZN12media_player6models12LibraryModel11updateMediaERKNSt7__cxx1112basic_stringIcSt11char_traitsIcESaIcEEERKNS0_14MediaFileModelEENKUlSC_E_clESC_
FNDA:3,_ZNK12media_player6models12LibraryModel14getMediaByPathERKNSt7__cxx1112basic_stringIcSt11char_traitsIcESaIcEEE
FNDA:5,_ZNK12media_player6models12LibraryModel6searchERKNSt7__cxx1112basic_stringIcSt11char_traitsIcESaIcEEE
FNDA:10,_ZNK12media_player6models12LibraryModel9getSortedENS0_12SortCriteriaEb
FNF:16
FNH:16
BRDA:15,0,0,369
BRDA:15,0,1,76
BRDA:17,0,0,369
BRDA:17,e0,1,0
BRDA:17,0,2,369
BRDA:17,e0,3,0
BRDA:17,0,4,2
BRDA:17,0,5,367
BRDA:28,0,0,7
BRDA:28,0,1,4
BRDA:30,0,0,7
BRDA:30,e0,1,0
BRDA:36,0,0,2
BRDA:36,e0,1,0
BRDA:38,0,0,2
BRDA:38,e0,1,0
BRDA:41,0,0,1
BRDA:41,0,1,1
BRDA:43,0,0,1
BRDA:43,e0,1,0
BRDA:58,0,0,3
BRDA:58,e0,1,0
BRDA:60,0,0,1
BRDA:60,e0,1,0
BRDA:63,0,0,1
BRDA:63,0,1,2
BRDA:65,0,0,1
BRDA:65,e0,1,0
BRDA:74,0,0,3
BRDA:74,0,1,1
BRDA:76,0,0,3
BRDA:76,e0,1,0
BRDA:76,0,2,2
BRDA:76,0,3,1
BRDA:78,0,0,2
BRDA:78,e0,1,0
BRDA:88,0,0,9
BRDA:88,0,1,5
BRDA:90,0,0,9
BRDA:90,e0,1,0
BRDA:90,0,2,4
BRDA:90,0,3,5
BRDA:92,0,0,4
BRDA:92,e0,1,0
BRDA:101,0,0,10
BRDA:101,e0,1,0
BRDA:106,0,0,11
BRDA:106,0,1,8
BRDA:110,0,0,11
BRDA:110,e0,1,0
BRDA:110,0,2,11
BRDA:110,e0,3,0
BRDA:116,0,0,8
BRDA:116,e0,1,0
BRDA:116,0,2,8
BRDA:116,e0,3,0
BRDA:120,0,0,16
BRDA:120,0,1,3
BRDA:123,0,0,10
BRDA:123,e0,1,0
BRDA:134,0,0,2
BRDA:134,0,1,4
BRDA:141,0,0,27
BRDA:141,0,1,4
BRDA:143,0,0,27
BRDA:143,e0,1,0
BRDA:152,0,0,9
BRDA:152,0,1,4
BRDA:154,0,0,6
BRDA:154,0,1,3
BRDA:165,0,0,8
BRDA:165,0,1,4
BRDA:167,0,0,3
BRDA:167,0,1,5
BRDA:178,0,0,2
BRDA:178,0,1,2
BRDA:187,0,0,9
BRDA:187,e0,1,0
BRDA:190,0,0,9
BRDA:190,e0,1,0
BRF:80
BRH:58
DA:12,78
DA:15,445
DA:17,369
DA:19,2
DA:23,76
DA:26,4
DA:28,11
DA:30,7
DA:32,4
DA:34,2
DA:36,2
DA:37,2
DA:38,2
DA:41,2
DA:43,1
DA:44,1
DA:47,1
DA:51,3
DA:53,3
DA:54,3
DA:56,3
DA:58,3
DA:59,1
DA:60,1
DA:63,3
DA:65,1
DA:66,1
DA:69,2
DA:72,3
DA:74,4
DA:76,3
DA:78,2
DA:81,1
DA:84,5
DA:86,5
DA:88,14
DA:90,9
DA:92,4
DA:96,5
DA:97,0
DA:99,10
DA:101,10
DA:103,19
DA:104,19
DA:106,19
DA:108,11
DA:110,11
DA:111,11
DA:112,8
DA:116,8
DA:117,8
DA:120,35
DA:121,16
DA:123,10
DA:125,20
DA:126,0
DA:128,6
DA:130,6
DA:132,6
DA:134,6
DA:136,2
DA:139,4
DA:141,31
DA:143,27
DA:146,4
DA:147,0
DA:149,4
DA:151,4
DA:152,13
DA:154,9
DA:156,6
DA:159,4
DA:162,4
DA:164,4
DA:165,12
DA:167,8
DA:169,3
DA:172,4
DA:175,2
DA:177,2
DA:178,4
DA:180,2
DA:182,2
DA:185,9
DA:187,9
DA:188,9
DA:190,9
DA:191,9
DA:193,18
DA:194,9
LF:90
LH:87
end_of_record
TN:
SF:/home/duong/MediaPlayerApp/src/models/MediaFileModel.cpp
FN:102,155,_ZNK12media_player6models14MediaFileModel18determineMediaTypeEv
FN:16,20,_ZN12media_player6models14MediaFileModelC2Ev
FN:22,29,_ZN12media_player6models14MediaFileModelC2ERKNSt7__cxx1112basic_stringIcSt11char_traitsIcESaIcEEE
FN:31,36,_ZNK12media_player6models14MediaFileModel7isValidEv
FN:38,41,_ZNK12media_player6models14MediaFileModelltERKS1_
FN:43,46,_ZNK12media_player6models14MediaFileModeleqERKS1_
FN:48,55,_ZNK12media_player6models14MediaFileModel9serializeB5cxx11Ev
FN:57,71,_ZN12media_player6models14MediaFileModel11deserializeERKNSt7__cxx1112basic_stringIcSt11char_traitsIcESaIcEEE
FN:73,100,_ZN12media_player6models14MediaFileModel15extractFileInfoEv
FNDA:316,_ZNK12media_player6models14MediaFileModel18determineMediaTypeEv
FNDA:5,_ZN12media_player6models14MediaFileModelC2Ev
FNDA:316,_ZN12media_player6models14MediaFileModelC2ERKNSt7__cxx1112basic_stringIcSt11char_traitsIcESaIcEEE
FNDA:65,_ZNK12media_player6models14MediaFileModel7isValidEv
FNDA:2,_ZNK12media_player6models14MediaFileModelltERKS1_
FNDA:2,_ZNK12media_player6models14MediaFileModeleqERKS1_
FNDA:2,_ZNK12media_player6models14MediaFileModel9serializeB5cxx11Ev
FNDA:2,_ZN12media_player6models14MediaFileModel11deserializeERKNSt7__cxx1112basic_stringIcSt11char_traitsIcESaIcEEE
FNDA:316,_ZN12media_player6models14MediaFileModel15extractFileInfoEv
FNF:9
FNH:9
BRDA:27,0,0,316
BRDA:27,e0,1,0
BRDA:28,0,0,316
BRDA:28,e0,1,0
BRDA:34,0,0,64
BRDA:34,0,1,1
BRDA:34,0,2,64
BRDA:34,0,3,0
BRDA:35,0,0,64
BRDA:35,e0,1,0
BRDA:35,0,2,64
BRDA:35,e0,3,0
BRDA:35,0,4,60
BRDA:35,0,5,4
BRDA:35,0,6,64
BRDA:35,0,7,1
BRDA:35,0,8,0
BRDA:35,0,9,0
BRDA:50,0,0,2
BRDA:50,e0,1,0
BRDA:51,0,0,2
BRDA:51,e0,1,0
BRDA:51,0,2,2
BRDA:51,e0,3,0
BRDA:52,0,0,2
BRDA:52,e0,1,0
BRDA:52,0,2,2
BRDA:52,e0,3,0
BRDA:52,0,4,2
BRDA:52,e0,5,0
BRDA:53,0,0,2
BRDA:53,e0,1,0
BRDA:54,0,0,2
BRDA:54,e0,1,0
BRDA:54,0,2,2
BRDA:54,e0,3,0
BRDA:63,0,0,1
BRDA:63,0,1,1
BRDA:65,0,0,1
BRDA:65,e0,1,0
BRDA:68,0,0,1
BRDA:68,e0,1,0
BRDA:70,0,0,1
BRDA:70,e0,1,0
BRDA:75,0,0,0
BRDA:75,0,1,316
BRDA:82,0,0,316
BRDA:82,e0,1,0
BRDA:84,0,0,316
BRDA:84,e0,1,0
BRDA:84,0,2,316
BRDA:84,e0,3,0
BRDA:85,0,0,316
BRDA:85,e0,1,0
BRDA:85,0,2,316
BRDA:85,e0,3,0
BRDA:91,0,0,316
BRDA:91,e0,1,0
BRDA:91,0,2,118
BRDA:91,0,3,198
BRDA:93,0,0,118
BRDA:93,e0,1,0
BRDA:94,0,0,118
BRDA:94,e0,1,0
BRDA:97,0,0,0
BRDA:97,0,1,0
BRDA:110,0,0,674
BRDA:110,0,1,21
BRDA:111,0,0,348
BRDA:111,0,1,326
BRDA:113,0,0,295
BRDA:113,0,1,53
BRDA:120,0,0,316
BRDA:120,0,1,0
BRDA:120,0,2,21
BRDA:120,0,3,295
BRDA:125,0,0,295
BRDA:125,e0,1,0
BRDA:131,0,0,295
BRDA:131,e0,1,0
BRDA:131,0,2,268
BRDA:131,0,3,27
BRDA:139,0,0,27
BRDA:139,e0,1,0
BRDA:139,0,2,18
BRDA:139,0,3,9
BRDA:149,0,0,9
BRDA:149,e0,1,0
BRDA:149,0,2,8
BRDA:149,0,3,1
BRF:90
BRH:55
DA:16,5
DA:17,5
DA:18,5
DA:20,5
DA:22,316
DA:23,316
DA:24,316
DA:25,316
DA:27,316
DA:28,316
DA:29,316
DA:31,65
DA:33,194
DA:34,129
DA:35,129
DA:38,2
DA:40,2
DA:43,2
DA:45,2
DA:48,2
DA:50,4
DA:51,4
DA:52,6
DA:53,8
DA:54,6
DA:57,2
DA:60,2
DA:61,2
DA:63,2
DA:65,1
DA:68,1
DA:70,1
DA:71,1
DA:73,316
DA:75,316
DA:77,0
DA:82,316
DA:84,316
DA:85,316
DA:91,316
DA:93,118
DA:94,118
DA:96,316
DA:97,0
DA:99,0
DA:102,316
DA:107,316
DA:108,316
DA:110,695
DA:111,674
DA:112,348
DA:113,348
DA:114,295
DA:115,295
DA:120,316
DA:122,21
DA:125,295
DA:126,295
DA:129,295
DA:131,295
DA:133,268
DA:137,27
DA:139,27
DA:141,18
DA:146,9
DA:149,9
DA:151,8
DA:154,1
DA:155,295
LF:69
LH:66
end_of_record
TN:
SF:/home/duong/MediaPlayerApp/src/models/MetadataModel.cpp
FN:13,16,_ZN12media_player6models13MetadataModelC2ERKNSt7__cxx1112basic_stringIcSt11char_traitsIcESaIcEEE
FN:18,21,_ZN12media_player6models13MetadataModel12setCustomTagERKNSt7__cxx1112basic_stringIcSt11char_traitsIcESaIcEEES9_
FN:23,31,_ZNK12media_player6models13MetadataModel12getCustomTagERKNSt7__cxx1112basic_stringIcSt11char_traitsIcESaIcEEE
FN:33,36,_ZNK12media_player6models13MetadataModel10isCompleteEv
FN:38,45,_ZNK12media_player6models13MetadataModel15getDisplayTitleB5cxx11Ev
FN:47,54,_ZNK12media_player6models13MetadataModel16getDisplayArtistB5cxx11Ev
FN:56,77,_ZNK12media_player6models13MetadataModel20getFormattedDurationB5cxx11Ev
FNDA:1,_ZN12media_player6models13MetadataModelC2ERKNSt7__cxx1112basic_stringIcSt11char_traitsIcESaIcEEE
FNDA:8,_ZN12media_player6models13MetadataModel12setCustomTagERKNSt7__cxx1112basic_stringIcSt11char_traitsIcESaIcEEES9_
FNDA:4,_ZNK12media_player6models13MetadataModel12getCustomTagERKNSt7__cxx1112basic_stringIcSt11char_traitsIcESaIcEEE
FNDA:4,_ZNK12media_player6models13MetadataModel10isCompleteEv
FNDA:2,_ZNK12media_player6models13MetadataModel15getDisplayTitleB5cxx11Ev
FNDA:2,_ZNK12media_player6models13MetadataModel16getDisplayArtistB5cxx11Ev
FNDA:3,_ZNK12media_player6models13MetadataModel20getFormattedDurationB5cxx11Ev
FNF:7
FNH:7
BRDA:25,0,0,4
BRDA:25,e0,1,0
BRDA:26,0,0,3
BRDA:26,0,1,1
BRDA:28,0,0,3
BRDA:28,e0,1,0
BRDA:35,0,0,2
BRDA:35,0,1,2
BRDA:35,0,2,1
BRDA:35,0,3,1
BRDA:40,0,0,1
BRDA:40,0,1,1
BRDA:44,0,0,1
BRDA:44,e0,1,0
BRDA:49,0,0,1
BRDA:49,0,1,1
BRDA:53,0,0,1
BRDA:53,e0,1,0
BRDA:62,0,0,3
BRDA:62,e0,1,0
BRDA:64,0,0,0
BRDA:64,0,1,3
BRDA:66,0,0,-
BRDA:66,e0,1,-
BRDA:66,0,2,-
BRDA:66,e0,3,-
BRDA:67,0,0,-
BRDA:67,e0,1,-
BRDA:67,0,2,-
BRDA:67,e0,3,-
BRDA:67,0,4,-
BRDA:67,e0,5,-
BRDA:71,0,0,3
BRDA:71,e0,1,0
BRDA:71,0,2,3
BRDA:71,e0,3,0
BRDA:74,0,0,3
BRDA:74,e0,1,0
BRDA:74,0,2,3
BRDA:74,e0,3,0
BRDA:76,0,0,3
BRDA:76,e0,1,0
BRF:42
BRH:21
DA:13,1
DA:16,1
DA:18,8
DA:20,8
DA:21,8
DA:23,4
DA:25,4
DA:26,4
DA:28,3
DA:30,1
DA:33,4
DA:35,4
DA:38,2
DA:40,2
DA:42,1
DA:44,2
DA:47,2
DA:49,2
DA:51,1
DA:53,2
DA:56,3
DA:58,3
DA:59,3
DA:60,3
DA:62,3
DA:64,3
DA:66,0
DA:67,0
DA:71,3
DA:74,3
DA:76,6
DA:77,3
LF:32
LH:30
end_of_record
TN:
SF:/home/duong/MediaPlayerApp/src/models/PlaybackStateModel.cpp
FN:15,33,_ZNK12media_player6models18PlaybackStateModel20getFormattedPositionB5cxx11Ev
FN:35,53,_ZNK12media_player6models18PlaybackStateModel20getFormattedDurationB5cxx11Ev
FN:55,65,_ZNK12media_player6models18PlaybackStateModel21getProgressPercentageEv
FNDA:4,_ZNK12media_player6models18PlaybackStateModel20getFormattedPositionB5cxx11Ev
FNDA:3,_ZNK12media_player6models18PlaybackStateModel20getFormattedDurationB5cxx11Ev
FNDA:2,_ZNK12media_player6models18PlaybackStateModel21getProgressPercentageEv
FNF:3
FNH:3
BRDA:17,0,0,4
BRDA:17,e0,1,0
BRDA:22,0,0,4
BRDA:22,e0,1,0
BRDA:24,0,0,1
BRDA:24,0,1,3
BRDA:26,0,0,1
BRDA:26,e0,1,0
BRDA:26,0,2,1
BRDA:26,e0,3,0
BRDA:26,0,4,1
BRDA:26,e0,5,0
BRDA:29,0,0,4
BRDA:29,e0,1,0
BRDA:30,0,0,4
BRDA:30,e0,1,0
BRDA:30,0,2,4
BRDA:30,e0,3,0
BRDA:30,0,4,4
BRDA:30,e0,5,0
BRDA:30,0,6,4
BRDA:30,e0,7,0
BRDA:32,0,0,4
BRDA:32,e0,1,0
BRDA:37,0,0,3
BRDA:37,e0,1,0
BRDA:42,0,0,3
BRDA:42,e0,1,0
BRDA:44,0,0,1
BRDA:44,0,1,2
BRDA:46,0,0,1
BRDA:46,e0,1,0
BRDA:46,0,2,1
BRDA:46,e0,3,0
BRDA:46,0,4,1
BRDA:46,e0,5,0
BRDA:49,0,0,3
BRDA:49,e0,1,0
BRDA:50,0,0,3
BRDA:50,e0,1,0
BRDA:50,0,2,3
BRDA:50,e0,3,0
BRDA:50,0,4,3
BRDA:50,e0,5,0
BRDA:50,0,6,3
BRDA:50,e0,7,0
BRDA:52,0,0,3
BRDA:52,e0,1,0
BRDA:57,0,0,2
BRDA:57,e0,1,0
BRDA:58,0,0,1
BRDA:58,0,1,1
BRF:52
BRH:29
DA:15,4
DA:17,4
DA:18,4
DA:19,4
DA:20,4
DA:22,4
DA:24,4
DA:26,1
DA:29,4
DA:30,4
DA:32,8
DA:33,4
DA:35,3
DA:37,3
DA:38,3
DA:39,3
DA:40,3
DA:42,3
DA:44,3
DA:46,1
DA:49,3
DA:50,3
DA:52,6
DA:53,3
DA:55,2
DA:57,2
DA:58,2
DA:60,1
DA:63,1
DA:64,1
DA:65,2
LF:31
LH:31
end_of_record
TN:
SF:/home/duong/MediaPlayerApp/src/models/PlaylistModel.cpp
FN:110,121,_ZNK12media_player6models13PlaylistModel9serializeB5cxx11Ev
FN:123,155,_ZN12media_player6models13PlaylistModel11deserializeERKNSt7__cxx1112basic_stringIcSt11char_traitsIcESaIcEEE
FN:14,20,_ZN12media_player6models13PlaylistModelC2ERKNSt7__cxx1112basic_stringIcSt11char_traitsIcESaIcEEE
FN:157,173,_ZNK12media_player6models13PlaylistModel10generateIdB5cxx11Ev
FN:22,26,_ZNK12media_player6models13PlaylistModel16getTotalDurationEv
FN:28,32,_ZN12media_player6models13PlaylistModel7addItemERKNS0_14MediaFileModelE
FN:34,44,_ZN12media_player6models13PlaylistModel10removeItemEm
FN:46,61,_ZN12media_player6models13PlaylistModel10removeItemERKNSt7__cxx1112basic_stringIcSt11char_traitsIcESaIcEEE
FN:49,51,_ZZN12media_player6models13PlaylistModel10removeItemERKNSt7__cxx1112basic_stringIcSt11char_traitsIcESaIcEEEENKUlRKNS0_14MediaFileModelEE_clESC_
FN:63,67,_ZN12media_player6models13PlaylistModel5clearEv
FN:69,76,_ZNK12media_player6models13PlaylistModel9getItemAtEm
FN:78,91,_ZN12media_player6models13PlaylistModel8moveItemEmm
FN:93,96,_ZNK12media_player6models13PlaylistModel12containsFileERKNSt7__cxx1112basic_stringIcSt11char_traitsIcESaIcEEE
FN:98,108,_ZNK12media_player6models13PlaylistModel13findItemIndexERKNSt7__cxx1112basic_stringIcSt11char_traitsIcESaIcEEE
FNDA:2,_ZNK12media_player6models13PlaylistModel9serializeB5cxx11Ev
FNDA:2,_ZN12media_player6models13PlaylistModel11deserializeERKNSt7__cxx1112basic_stringIcSt11char_traitsIcESaIcEEE
FNDA:9,_ZN12media_player6models13PlaylistModelC2ERKNSt7__cxx1112basic_stringIcSt11char_traitsIcESaIcEEE
FNDA:9,_ZNK12media_player6models13PlaylistModel10generateIdB5cxx11Ev
FNDA:1,_ZNK12media_player6models13PlaylistModel16getTotalDurationEv
FNDA:24,_ZN12media_player6models13PlaylistModel7addItemERKNS0_14MediaFileModelE
FNDA:4,_ZN12media_player6models13PlaylistModel10removeItemEm
FNDA:2,_ZN12media_player6models13PlaylistModel10removeItemERKNSt7__cxx1112basic_stringIcSt11char_traitsIcESaIcEEE
FNDA:2,_ZZN12media_player6models13PlaylistModel10removeItemERKNSt7__cxx1112basic_stringIcSt11char_traitsIcESaIcEEEENKUlRKNS0_14MediaFileModelEE_clESC_
FNDA:1,_ZN12media_player6models13PlaylistModel5clearEv
FNDA:2,_ZNK12media_player6models13PlaylistModel9getItemAtEm
FNDA:4,_ZN12media_player6models13PlaylistModel8moveItemEmm
FNDA:2,_ZNK12media_player6models13PlaylistModel12containsFileERKNSt7__cxx1112basic_stringIcSt11char_traitsIcESaIcEEE
FNDA:5,_ZNK12media_player6models13PlaylistModel13findItemIndexERKNSt7__cxx1112basic_stringIcSt11char_traitsIcESaIcEEE
FNF:14
FNH:14
BRDA:16,0,0,9
BRDA:16,e0,1,0
BRDA:36,0,0,2
BRDA:36,0,1,2
BRDA:41,0,0,2
BRDA:41,e0,1,0
BRDA:48,0,0,2
BRDA:48,e0,1,0
BRDA:50,0,0,2
BRDA:50,e0,1,0
BRDA:53,0,0,1
BRDA:53,0,1,1
BRDA:55,0,0,1
BRDA:55,e0,1,0
BRDA:71,0,0,1
BRDA:71,0,1,1
BRDA:80,0,0,3
BRDA:80,0,1,1
BRDA:80,0,2,1
BRDA:80,0,3,2
BRDA:80,0,4,2
BRDA:80,0,5,2
BRDA:85,0,0,2
BRDA:85,e0,1,0
BRDA:86,0,0,2
BRDA:86,e0,1,0
BRDA:87,0,0,2
BRDA:87,e0,1,0
BRDA:100,0,0,7
BRDA:100,0,1,2
BRDA:102,0,0,7
BRDA:102,e0,1,0
BRDA:102,0,2,3
BRDA:102,0,3,4
BRDA:112,0,0,2
BRDA:112,e0,1,0
BRDA:113,0,0,2
BRDA:113,e0,1,0
BRDA:113,0,2,2
BRDA:113,e0,3,0
BRDA:113,0,4,2
BRDA:113,e0,5,0
BRDA:113,0,6,2
BRDA:113,e0,7,0
BRDA:113,0,8,2
BRDA:113,e0,9,0
BRDA:115,0,0,2
BRDA:115,0,1,2
BRDA:117,0,0,2
BRDA:117,e0,1,0
BRDA:117,0,2,2
BRDA:117,e0,3,0
BRDA:117,0,4,2
BRDA:117,e0,5,0
BRDA:120,0,0,2
BRDA:120,e0,1,0
BRDA:125,0,0,2
BRDA:125,e0,1,0
BRDA:129,0,0,2
BRDA:129,e0,1,0
BRDA:130,0,0,2
BRDA:130,e0,1,0
BRDA:133,0,0,2
BRDA:133,e0,1,0
BRDA:134,0,0,2
BRDA:134,e0,1,0
BRDA:136,0,0,2
BRDA:136,e0,1,0
BRDA:139,0,0,2
BRDA:139,e0,1,0
BRDA:142,0,0,5
BRDA:142,e0,1,0
BRDA:142,0,2,5
BRDA:142,e0,3,0
BRDA:142,0,4,3
BRDA:142,0,5,2
BRDA:144,0,0,0
BRDA:144,0,1,3
BRDA:146,0,0,3
BRDA:146,e0,1,0
BRDA:147,0,0,3
BRDA:147,e0,1,0
BRDA:147,0,2,1
BRDA:147,0,3,2
BRDA:149,0,0,1
BRDA:149,e0,1,0
BRDA:159,0,0,9
BRDA:159,e0,1,0
BRDA:160,0,0,9
BRDA:160,e0,1,0
BRDA:160,0,2,9
BRDA:160,e0,3,0
BRDA:161,0,0,9
BRDA:161,e0,1,0
BRDA:165,0,0,9
BRDA:165,e0,1,0
BRDA:167,0,0,288
BRDA:167,0,1,9
BRDA:169,0,0,288
BRDA:169,e0,1,0
BRDA:169,0,2,288
BRDA:169,e0,3,0
BRF:102
BRH:63
DA:14,9
DA:15,9
DA:16,9
DA:17,9
DA:18,18
DA:20,9
DA:22,1
DA:25,1
DA:28,24
DA:30,24
DA:31,24
DA:32,24
DA:34,4
DA:36,4
DA:38,2
DA:41,2
DA:42,2
DA:43,2
DA:46,2
DA:48,2
DA:49,2
DA:50,2
DA:53,2
DA:55,1
DA:56,1
DA:57,1
DA:60,1
DA:63,1
DA:65,1
DA:66,1
DA:67,1
DA:69,2
DA:71,2
DA:73,1
DA:75,1
DA:78,4
DA:80,4
DA:82,2
DA:85,2
DA:86,2
DA:87,2
DA:88,2
DA:90,2
DA:91,2
DA:93,2
DA:95,2
DA:98,5
DA:100,9
DA:102,7
DA:104,3
DA:107,2
DA:110,2
DA:112,2
DA:113,2
DA:115,4
DA:117,2
DA:120,4
DA:121,2
DA:123,2
DA:125,2
DA:126,2
DA:129,2
DA:130,2
DA:133,2
DA:134,2
DA:136,2
DA:139,2
DA:142,7
DA:144,3
DA:146,3
DA:147,3
DA:149,1
DA:151,3
DA:154,4
DA:155,2
DA:157,9
DA:159,9
DA:160,9
DA:161,9
DA:163,9
DA:164,9
DA:165,9
DA:167,297
DA:169,288
DA:172,18
DA:173,9
LF:86
LH:86
end_of_record
TN:
SF:/home/duong/MediaPlayerApp/src/models/QueueModel.cpp
FN:106,115,_ZNK12media_player6models10QueueModel14getCurrentItemEv
FN:117,140,_ZNK12media_player6models10QueueModel11getNextItemEv
FN:142,161,_ZNK12media_player6models10QueueModel15getPreviousItemEv
FN:15,22,_ZN12media_player6models10QueueModel8addToEndERKNS0_14MediaFileModelE
FN:163,170,_ZNK12media_player6models10QueueModel9getItemAtEm
FN:172,181,_ZNK12media_player6models10QueueModel23getItemsInPlaybackOrderEv
FN:183,204,_ZN12media_player6models10QueueModel10moveToNextEv
FN:206,220,_ZN12media_player6models10QueueModel14moveToPreviousEv
FN:222,231,_ZN12media_player6models10QueueModel6jumpToEm
FN:233,246,_ZNK12media_player6models10QueueModel7hasNextEv
FN:24,38,_ZN12media_player6models10QueueModel7addNextERKNS0_14MediaFileModelE
FN:248,261,_ZNK12media_player6models10QueueModel11hasPreviousEv
FN:263,289,_ZN12media_player6models10QueueModel8moveItemEmm
FN:291,298,_ZN12media_player6models10QueueModel14setShuffleModeEb
FN:300,305,_ZN12media_player6models10QueueModel13setRepeatModeENS0_10RepeatModeE
FN:307,328,_ZN12media_player6models10QueueModel18updateShuffleOrderEv
FN:330,337,_ZNK12media_player6models10QueueModel14getActualIndexEm
FN:40,54,_ZN12media_player6models10QueueModel5addAtERKNS0_14MediaFileModelEm
FN:56,81,_ZN12media_player6models10QueueModel8removeAtEm
FN:83,97,_ZN12media_player6models10QueueModel12removeByPathERKNSt7__cxx1112basic_stringIcSt11char_traitsIcESaIcEEE
FN:86,88,_ZZN12media_player6models10QueueModel12removeByPathERKNSt7__cxx1112basic_stringIcSt11char_traitsIcESaIcEEEENKUlRKNS0_14MediaFileModelEE_clESC_
FN:99,104,_ZN12media_player6models10QueueModel5clearEv
FNDA:51,_ZNK12media_player6models10QueueModel14getCurrentItemEv
FNDA:4,_ZNK12media_player6models10QueueModel11getNextItemEv
FNDA:4,_ZNK12media_player6models10QueueModel15getPreviousItemEv
FNDA:114,_ZN12media_player6models10QueueModel8addToEndERKNS0_14MediaFileModelE
FNDA:9,_ZNK12media_player6models10QueueModel9getItemAtEm
FNDA:6,_ZNK12media_player6models10QueueModel23getItemsInPlaybackOrderEv
FNDA:15,_ZN12media_player6models10QueueModel10moveToNextEv
FNDA:7,_ZN12media_player6models10QueueModel14moveToPreviousEv
FNDA:22,_ZN12media_player6models10QueueModel6jumpToEm
FNDA:3,_ZNK12media_player6models10QueueModel7hasNextEv
FNDA:4,_ZN12media_player6models10QueueModel7addNextERKNS0_14MediaFileModelE
FNDA:4,_ZNK12media_player6models10QueueModel11hasPreviousEv
FNDA:7,_ZN12media_player6models10QueueModel8moveItemEmm
FNDA:9,_ZN12media_player6models10QueueModel14setShuffleModeEb
FNDA:21,_ZN12media_player6models10QueueModel13setRepeatModeENS0_10RepeatModeE
FNDA:9,_ZN12media_player6models10QueueModel18updateShuffleOrderEv
FNDA:57,_ZNK12media_player6models10QueueModel14getActualIndexEm
FNDA:2,_ZN12media_player6models10QueueModel5addAtERKNS0_14MediaFileModelEm
FNDA:13,_ZN12media_player6models10QueueModel8removeAtEm
FNDA:8,_ZN12media_player6models10QueueModel12removeByPathERKNSt7__cxx1112basic_stringIcSt11char_traitsIcESaIcEEE
FNDA:8,_ZZN12media_player6models10QueueModel12removeByPathERKNSt7__cxx1112basic_stringIcSt11char_traitsIcESaIcEEEENKUlRKNS0_14MediaFileModelEE_clESC_
FNDA:2,_ZN12media_player6models10QueueModel5clearEv
FNF:22
FNH:22
BRDA:18,0,0,1
BRDA:18,0,1,113
BRDA:26,0,0,1
BRDA:26,0,1,3
BRDA:32,0,0,3
BRDA:32,e0,1,0
BRDA:34,0,0,0
BRDA:34,0,1,4
BRDA:42,0,0,1
BRDA:42,0,1,1
BRDA:48,0,0,1
BRDA:48,e0,1,0
BRDA:50,0,0,0
BRDA:50,0,1,2
BRDA:58,0,0,3
BRDA:58,0,1,10
BRDA:63,0,0,10
BRDA:63,e0,1,0
BRDA:65,0,0,1
BRDA:65,0,1,9
BRDA:70,0,0,1
BRDA:70,0,1,9
BRDA:70,0,2,1
BRDA:70,0,3,0
BRDA:70,0,4,1
BRDA:70,0,5,9
BRDA:75,0,0,1
BRDA:75,0,1,9
BRDA:85,0,0,8
BRDA:85,e0,1,0
BRDA:87,0,0,8
BRDA:87,e0,1,0
BRDA:90,0,0,6
BRDA:90,0,1,2
BRDA:93,0,0,6
BRDA:93,e0,1,0
BRDA:108,0,0,48
BRDA:108,0,1,3
BRDA:108,0,2,0
BRDA:108,0,3,48
BRDA:108,0,4,3
BRDA:108,0,5,48
BRDA:119,0,0,1
BRDA:119,0,1,3
BRDA:126,0,0,2
BRDA:126,0,1,1
BRDA:128,0,0,1
BRDA:128,0,1,1
BRDA:144,0,0,1
BRDA:144,0,1,3
BRDA:149,0,0,2
BRDA:149,0,1,1
BRDA:151,0,0,1
BRDA:151,0,1,1
BRDA:165,0,0,1
BRDA:165,0,1,8
BRDA:174,0,0,1
BRDA:174,0,1,5
BRDA:175,0,0,2
BRDA:175,0,1,3
BRDA:175,0,2,2
BRDA:175,e0,3,0
BRDA:177,0,0,3
BRDA:177,e0,1,0
BRDA:178,0,0,5
BRDA:178,0,1,3
BRDA:179,0,0,5
BRDA:179,e0,1,0
BRDA:185,0,0,2
BRDA:185,0,1,13
BRDA:192,0,0,6
BRDA:192,0,1,7
BRDA:194,0,0,3
BRDA:194,0,1,3
BRDA:208,0,0,5
BRDA:208,0,1,2
BRDA:208,0,2,2
BRDA:208,0,3,3
BRDA:208,0,4,4
BRDA:208,0,5,3
BRDA:210,0,0,1
BRDA:210,0,1,3
BRDA:210,0,2,1
BRDA:210,0,3,0
BRDA:210,0,4,1
BRDA:210,0,5,3
BRDA:224,0,0,3
BRDA:224,0,1,19
BRDA:235,0,0,1
BRDA:235,0,1,2
BRDA:240,0,0,1
BRDA:240,0,1,1
BRDA:250,0,0,1
BRDA:250,0,1,3
BRDA:255,0,0,1
BRDA:255,0,1,2
BRDA:265,0,0,5
BRDA:265,0,1,2
BRDA:265,0,2,1
BRDA:265,0,3,4
BRDA:265,0,4,3
BRDA:265,0,5,4
BRDA:270,0,0,4
BRDA:270,e0,1,0
BRDA:271,0,0,4
BRDA:271,e0,1,0
BRDA:272,0,0,4
BRDA:272,e0,1,0
BRDA:275,0,0,3
BRDA:275,0,1,1
BRDA:279,0,0,0
BRDA:279,0,1,1
BRDA:279,0,2,0
BRDA:279,0,3,0
BRDA:283,0,0,1
BRDA:283,0,1,0
BRDA:283,0,2,1
BRDA:283,0,3,0
BRDA:294,0,0,7
BRDA:294,0,1,2
BRDA:303,0,0,19
BRDA:303,0,1,2
BRDA:303,0,2,7
BRDA:303,0,3,12
BRDA:310,0,0,3
BRDA:310,0,1,6
BRDA:311,0,0,6
BRDA:311,e0,1,0
BRDA:313,0,0,9
BRDA:313,0,1,6
BRDA:315,0,0,9
BRDA:315,e0,1,0
BRDA:319,0,0,6
BRDA:319,e0,1,0
BRDA:320,0,0,6
BRDA:320,e0,1,0
BRDA:320,0,2,6
BRDA:320,e0,3,0
BRDA:322,0,0,3
BRDA:322,0,1,6
BRDA:324,0,0,3
BRDA:324,e0,1,0
BRDA:325,0,0,3
BRDA:325,e0,1,0
BRDA:332,0,0,5
BRDA:332,0,1,52
BRDA:332,0,2,5
BRDA:332,0,3,0
BRDA:332,0,4,5
BRDA:332,0,5,52
BRF:150
BRH:120
DA:15,114
DA:17,114
DA:18,114
DA:20,1
DA:22,114
DA:24,4
DA:26,4
DA:28,1
DA:32,3
DA:34,4
DA:36,0
DA:38,4
DA:40,2
DA:42,2
DA:44,1
DA:48,1
DA:50,2
DA:52,0
DA:54,2
DA:56,13
DA:58,13
DA:60,3
DA:63,10
DA:65,10
DA:67,1
DA:70,10
DA:72,1
DA:75,10
DA:77,1
DA:80,10
DA:83,8
DA:85,8
DA:86,8
DA:87,8
DA:90,8
DA:92,6
DA:93,6
DA:96,2
DA:99,2
DA:101,2
DA:102,2
DA:103,2
DA:104,2
DA:106,51
DA:108,51
DA:110,3
DA:113,48
DA:114,48
DA:117,4
DA:119,4
DA:121,1
DA:124,3
DA:126,3
DA:128,2
DA:130,1
DA:134,1
DA:138,2
DA:139,2
DA:142,4
DA:144,4
DA:146,1
DA:149,3
DA:151,2
DA:153,1
DA:154,1
DA:156,1
DA:159,1
DA:160,1
DA:163,9
DA:165,9
DA:167,1
DA:169,8
DA:172,6
DA:174,6
DA:175,5
DA:176,3
DA:177,3
DA:178,8
DA:179,5
DA:180,3
DA:181,3
DA:183,15
DA:185,15
DA:187,2
DA:190,13
DA:192,13
DA:194,6
DA:196,3
DA:197,3
DA:199,3
DA:200,3
DA:203,7
DA:206,7
DA:208,7
DA:210,4
DA:212,1
DA:213,1
DA:215,3
DA:218,3
DA:219,3
DA:222,22
DA:224,22
DA:226,3
DA:229,19
DA:230,19
DA:233,3
DA:235,3
DA:237,1
DA:240,2
DA:242,1
DA:245,1
DA:248,4
DA:250,4
DA:252,1
DA:255,3
DA:257,1
DA:260,2
DA:263,7
DA:265,7
DA:267,3
DA:270,4
DA:271,4
DA:272,4
DA:275,4
DA:277,3
DA:279,1
DA:281,0
DA:283,1
DA:285,1
DA:288,4
DA:289,4
DA:291,9
DA:293,9
DA:294,9
DA:296,7
DA:298,9
DA:300,21
DA:302,21
DA:303,21
DA:305,21
DA:307,9
DA:309,9
DA:310,9
DA:311,6
DA:313,15
DA:315,9
DA:319,6
DA:320,6
DA:322,9
DA:324,3
DA:325,3
DA:326,3
DA:328,6
DA:330,57
DA:332,57
DA:334,5
DA:336,52
LF:157
LH:154
end_of_record
TN:
SF:/home/duong/MediaPlayerApp/src/services/FileScanner.cpp
FN:105,149,_ZN12media_player8services11FileScanner17scanDirectorySyncERKNSt7__cxx1112basic_stringIcSt11char_traitsIcESaIcEEE
FN:151,154,_ZN12media_player8services11FileScanner11setMaxDepthEi
FN:156,159,_ZN12media_player8services11FileScanner17setFileExtensionsERKSt6vectorINSt7__cxx1112basic_stringIcSt11char_traitsIcESaIcEEESaIS8_EE
FN:161,180,_ZN12media_player8services11FileScanner10scanWorkerERKNSt7__cxx1112basic_stringIcSt11char_traitsIcESaIcEEE
FN:182,280,_ZN12media_player8services11FileScanner13scanRecursiveERKNSt7__cxx1112basic_stringIcSt11char_traitsIcESaIcEEEi
FN:21,31,_ZN12media_player8services11FileScannerC2Ev
FN:282,286,_ZNK12media_player8services11FileScanner16isValidMediaFileERKNSt7__cxx1112basic_stringIcSt11char_traitsIcESaIcEEE
FN:288,295,_ZNK12media_player8services11FileScanner17hasValidExtensionERKNSt7__cxx1112basic_stringIcSt11char_traitsIcESaIcEEE
FN:297,307,_ZNK12media_player8services11FileScanner16getFileExtensionERKNSt7__cxx1112basic_stringIcSt11char_traitsIcESaIcEEE
FN:309,314,_ZNK12media_player8services11FileScanner11toLowerCaseERKNSt7__cxx1112basic_stringIcSt11char_traitsIcESaIcEEE
FN:316,326,_ZN12media_player8services11FileScanner14notifyProgressEiRKNSt7__cxx1112basic_stringIcSt11char_traitsIcESaIcEEE
FN:328,334,_ZN12media_player8services11FileScanner14notifyCompleteERKSt6vectorINS_6models14MediaFileModelESaIS4_EE
FN:33,36,_ZN12media_player8services11FileScannerD0Ev
FN:33,36,_ZN12media_player8services11FileScannerD2Ev
FN:38,69,_ZN12media_player8services11FileScanner13scanDirectoryERKNSt7__cxx1112basic_stringIcSt11char_traitsIcESaIcEEE
FN:71,82,_ZN12media_player8services11FileScanner12stopScanningEv
FN:84,87,_ZNK12media_player8services11FileScanner10isScanningEv
FN:89,92,_ZN12media_player8services11FileScanner19setProgressCallbackESt8functionIFviRKNSt7__cxx1112basic_stringIcSt11char_traitsIcESaIcEEEEE
FN:94,97,_ZN12media_player8services11FileScanner19setProgressCallbackESt8functionIFviiRKNSt7__cxx1112basic_stringIcSt11char_traitsIcESaIcEEEEE
FN:99,102,_ZN12media_player8services11FileScanner19setCompleteCallbackESt8functionIFvSt6vectorINS_6models14MediaFileModelESaIS5_EEEE
FNDA:11,_ZN12media_player8services11FileScanner17scanDirectorySyncERKNSt7__cxx1112basic_stringIcSt11char_traitsIcESaIcEEE
FNDA:6,_ZN12media_player8services11FileScanner11setMaxDepthEi
FNDA:0,_ZN12media_player8services11FileScanner17setFileExtensionsERKSt6vectorINSt7__cxx1112basic_stringIcSt11char_traitsIcESaIcEEESaIS8_EE
FNDA:3,_ZN12media_player8services11FileScanner10scanWorkerERKNSt7__cxx1112basic_stringIcSt11char_traitsIcESaIcEEE
FNDA:22,_ZN12media_player8services11FileScanner13scanRecursiveERKNSt7__cxx1112basic_stringIcSt11char_traitsIcESaIcEEEi
FNDA:13,_ZN12media_player8services11FileScannerC2Ev
FNDA:68,_ZNK12media_player8services11FileScanner16isValidMediaFileERKNSt7__cxx1112basic_stringIcSt11char_traitsIcESaIcEEE
FNDA:124,_ZNK12media_player8services11FileScanner17hasValidExtensionERKNSt7__cxx1112basic_stringIcSt11char_traitsIcESaIcEEE
FNDA:68,_ZNK12media_player8services11FileScanner16getFileExtensionERKNSt7__cxx1112basic_stringIcSt11char_traitsIcESaIcEEE
FNDA:124,_ZNK12media_player8services11FileScanner11toLowerCaseERKNSt7__cxx1112basic_stringIcSt11char_traitsIcESaIcEEE
FNDA:0,_ZN12media_player8services11FileScanner14notifyProgressEiRKNSt7__cxx1112basic_stringIcSt11char_traitsIcESaIcEEE
FNDA:2,_ZN12media_player8services11FileScanner14notifyCompleteERKSt6vectorINS_6models14MediaFileModelESaIS4_EE
FNDA:0,_ZN12media_player8services11FileScannerD0Ev
FNDA:13,_ZN12media_player8services11FileScannerD2Ev
FNDA:3,_ZN12media_player8services11FileScanner13scanDirectoryERKNSt7__cxx1112basic_stringIcSt11char_traitsIcESaIcEEE
FNDA:14,_ZN12media_player8services11FileScanner12stopScanningEv
FNDA:2,_ZNK12media_player8services11FileScanner10isScanningEv
FNDA:2,_ZN12media_player8services11FileScanner19setProgressCallbackESt8functionIFviRKNSt7__cxx1112basic_stringIcSt11char_traitsIcESaIcEEEEE
FNDA:0,_ZN12media_player8services11FileScanner19setProgressCallbackESt8functionIFviiRKNSt7__cxx1112basic_stringIcSt11char_traitsIcESaIcEEEEE
FNDA:2,_ZN12media_player8services11FileScanner19setCompleteCallbackESt8functionIFvSt6vectorINS_6models14MediaFileModelESaIS5_EEEE
FNF:20
FNH:16
BRDA:30,0,0,13
BRDA:30,e0,1,0
BRDA:40,0,0,0
BRDA:40,0,1,3
BRDA:45,0,0,3
BRDA:45,e0,1,0
BRDA:45,0,2,3
BRDA:45,e0,3,0
BRDA:45,0,4,0
BRDA:45,0,5,3
BRDA:50,0,0,3
BRDA:50,e0,1,0
BRDA:50,0,2,3
BRDA:50,e0,3,0
BRDA:50,0,4,0
BRDA:50,0,5,3
BRDA:62,0,0,0
BRDA:62,0,1,3
BRDA:62,0,2,0
BRDA:62,0,3,0
BRDA:62,0,4,0
BRDA:62,0,5,3
BRDA:68,0,0,3
BRDA:68,e0,1,0
BRDA:75,0,0,4
BRDA:75,0,1,10
BRDA:75,0,2,3
BRDA:75,0,3,1
BRDA:75,0,4,3
BRDA:75,0,5,11
BRDA:107,0,0,11
BRDA:107,e0,1,0
BRDA:107,0,2,11
BRDA:107,e0,3,0
BRDA:107,0,4,1
BRDA:107,0,5,10
BRDA:112,0,0,10
BRDA:112,e0,1,0
BRDA:112,0,2,10
BRDA:112,e0,3,0
BRDA:112,0,4,1
BRDA:112,0,5,9
BRDA:127,0,0,9
BRDA:127,e0,1,0
BRDA:127,0,2,9
BRDA:127,e0,3,0
BRDA:127,0,4,64
BRDA:127,e0,5,0
BRDA:127,0,6,64
BRDA:127,0,7,9
BRDA:129,0,0,64
BRDA:129,e0,1,0
BRDA:129,0,2,56
BRDA:129,0,3,8
BRDA:131,0,0,56
BRDA:131,e0,1,0
BRDA:131,0,2,56
BRDA:131,e0,3,0
BRDA:133,0,0,56
BRDA:133,e0,1,0
BRDA:133,0,2,48
BRDA:133,0,3,8
BRDA:165,0,0,3
BRDA:165,e0,1,0
BRDA:167,0,0,2
BRDA:167,0,1,1
BRDA:169,0,0,2
BRDA:169,e0,1,0
BRDA:175,0,0,0
BRDA:175,0,1,0
BRDA:184,0,0,1
BRDA:184,0,1,21
BRDA:189,0,0,2
BRDA:189,0,1,19
BRDA:196,0,0,19
BRDA:196,e0,1,0
BRDA:196,0,2,19
BRDA:196,e0,3,0
BRDA:196,0,4,78
BRDA:196,e0,5,0
BRDA:196,0,6,78
BRDA:196,0,7,19
BRDA:198,0,0,0
BRDA:198,0,1,78
BRDA:205,0,0,78
BRDA:205,e0,1,0
BRDA:205,0,2,10
BRDA:205,0,3,68
BRDA:208,0,0,10
BRDA:208,e0,1,0
BRDA:208,0,2,10
BRDA:208,e0,3,0
BRDA:208,0,4,10
BRDA:208,e0,5,0
BRDA:208,0,6,0
BRDA:208,0,7,10
BRDA:213,0,0,10
BRDA:213,e0,1,0
BRDA:213,0,2,10
BRDA:213,e0,3,0
BRDA:215,0,0,68
BRDA:215,e0,1,0
BRDA:215,0,2,68
BRDA:215,0,3,0
BRDA:217,0,0,68
BRDA:217,e0,1,0
BRDA:219,0,0,68
BRDA:219,e0,1,0
BRDA:219,0,2,58
BRDA:219,0,3,10
BRDA:221,0,0,58
BRDA:221,e0,1,0
BRDA:223,0,0,58
BRDA:223,e0,1,0
BRDA:223,0,2,58
BRDA:223,0,3,0
BRDA:228,0,0,58
BRDA:228,e0,1,0
BRDA:229,0,0,58
BRDA:229,e0,1,0
BRDA:229,0,2,40
BRDA:229,0,3,18
BRDA:231,0,0,40
BRDA:231,e0,1,0
BRDA:232,0,0,40
BRDA:232,0,1,0
BRDA:234,0,0,40
BRDA:234,e0,1,0
BRDA:234,0,2,40
BRDA:234,e0,3,0
BRDA:234,0,4,40
BRDA:234,e0,5,0
BRDA:235,0,0,40
BRDA:235,e0,1,0
BRDA:235,0,2,40
BRDA:235,e0,3,0
BRDA:235,0,4,40
BRDA:235,e0,5,0
BRDA:236,0,0,40
BRDA:236,e0,1,0
BRDA:236,0,2,40
BRDA:236,e0,3,0
BRDA:236,0,4,40
BRDA:236,e0,5,0
BRDA:238,0,0,0
BRDA:238,0,1,40
BRDA:238,0,2,0
BRDA:238,e0,3,0
BRDA:239,0,0,0
BRDA:239,0,1,40
BRDA:239,0,2,0
BRDA:239,e0,3,0
BRDA:240,0,0,0
BRDA:240,0,1,40
BRDA:240,0,2,0
BRDA:240,e0,3,0
BRDA:243,0,0,40
BRDA:243,e0,1,0
BRDA:244,0,0,40
BRDA:244,0,1,0
BRDA:246,0,0,40
BRDA:246,e0,1,0
BRDA:253,0,0,0
BRDA:253,e0,1,0
BRDA:255,0,0,58
BRDA:255,e0,1,0
BRDA:259,0,0,0
BRDA:259,0,1,58
BRDA:261,0,0,-
BRDA:261,e0,1,-
BRDA:270,0,0,0
BRDA:270,0,1,0
BRDA:273,0,0,0
BRDA:273,e0,1,0
BRDA:274,0,0,19
BRDA:274,0,1,0
BRDA:274,0,2,19
BRDA:274,0,3,0
BRDA:274,0,4,19
BRDA:274,0,5,0
BRDA:276,0,0,0
BRDA:276,0,1,0
BRDA:284,0,0,68
BRDA:284,e0,1,0
BRDA:285,0,0,68
BRDA:285,e0,1,0
BRDA:290,0,0,124
BRDA:290,e0,1,0
BRDA:292,0,0,124
BRDA:292,e0,1,0
BRDA:301,0,0,0
BRDA:301,0,1,68
BRDA:303,0,0,-
BRDA:303,e0,1,-
BRDA:318,0,0,-
BRDA:318,0,1,-
BRDA:322,0,0,-
BRDA:322,0,1,-
BRDA:330,0,0,2
BRDA:330,0,1,0
BRDA:332,0,0,2
BRDA:332,e0,1,0
BRDA:332,0,2,2
BRDA:332,e0,3,0
BRF:204
BRH:104
DA:21,13
DA:22,13
DA:23,13
DA:24,13
DA:25,13
DA:26,26
DA:30,13
DA:31,13
DA:33,13
DA:35,13
DA:36,13
DA:38,3
DA:40,3
DA:42,0
DA:45,3
DA:47,0
DA:50,3
DA:52,0
DA:56,3
DA:57,3
DA:58,3
DA:59,3
DA:62,3
DA:64,0
DA:68,3
DA:71,14
DA:73,14
DA:75,14
DA:77,3
DA:80,14
DA:82,14
DA:84,2
DA:86,2
DA:89,2
DA:91,2
DA:92,2
DA:94,0
DA:96,0
DA:97,0
DA:99,2
DA:101,2
DA:102,2
DA:105,11
DA:107,11
DA:109,1
DA:112,10
DA:114,1
DA:118,9
DA:119,9
DA:120,9
DA:121,9
DA:124,9
DA:127,73
DA:129,64
DA:131,56
DA:132,56
DA:133,56
DA:135,48
DA:137,56
DA:138,9
DA:140,0
DA:142,9
DA:144,9
DA:146,9
DA:148,9
DA:151,6
DA:153,6
DA:154,6
DA:156,0
DA:158,0
DA:159,0
DA:161,3
DA:165,3
DA:167,3
DA:169,2
DA:175,0
DA:177,0
DA:179,3
DA:180,3
DA:182,22
DA:184,22
DA:186,1
DA:189,21
DA:191,2
DA:196,97
DA:198,78
DA:200,0
DA:205,78
DA:208,10
DA:210,0
DA:213,10
DA:215,68
DA:217,68
DA:219,68
DA:221,58
DA:223,58
DA:228,58
DA:229,58
DA:231,40
DA:232,40
DA:234,40
DA:235,40
DA:236,40
DA:238,40
DA:239,40
DA:240,40
DA:241,40
DA:243,40
DA:244,40
DA:246,40
DA:249,58
DA:250,0
DA:253,0
DA:255,58
DA:256,58
DA:259,58
DA:261,0
DA:264,58
DA:268,68
DA:270,0
DA:272,0
DA:273,0
DA:274,19
DA:276,0
DA:279,0
DA:282,68
DA:284,68
DA:285,136
DA:286,68
DA:288,124
DA:290,124
DA:292,124
DA:294,372
DA:295,124
DA:297,68
DA:299,68
DA:301,68
DA:303,0
DA:306,68
DA:309,124
DA:311,124
DA:312,124
DA:313,124
DA:316,0
DA:318,0
DA:320,0
DA:322,0
DA:324,0
DA:326,0
DA:328,2
DA:330,2
DA:332,2
DA:334,2
LF:153
LH:123
end_of_record
TN:
SF:/home/duong/MediaPlayerApp/src/services/MetadataReader.cpp
FN:109,112,_ZNK12media_player8services14MetadataReader11canReadFileERKNSt7__cxx1112basic_stringIcSt11char_traitsIcESaIcEEE
FN:114,171,_ZN12media_player8services14MetadataReader13writeMetadataERKNSt7__cxx1112basic_stringIcSt11char_traitsIcESaIcEEERKNS_6models13MetadataModelE
FN:173,222,_ZN12media_player8services14MetadataReader15extractCoverArtERKNSt7__cxx1112basic_stringIcSt11char_traitsIcESaIcEEES9_
FN:22,24,_ZN12media_player8services14MetadataReaderC2Ev
FN:224,283,_ZN12media_player8services14MetadataReader13embedCoverArtERKNSt7__cxx1112basic_stringIcSt11char_traitsIcESaIcEEES9_
FN:26,28,_ZN12media_player8services14MetadataReaderD0Ev
FN:26,28,_ZN12media_player8services14MetadataReaderD2Ev
FN:285,295,_ZNK12media_player8services14MetadataReader17isSupportedFormatERKNSt7__cxx1112basic_stringIcSt11char_traitsIcESaIcEEE
FN:297,310,_ZNK12media_player8services14MetadataReader16getFileExtensionERKNSt7__cxx1112basic_stringIcSt11char_traitsIcESaIcEEE
FN:30,107,_ZN12media_player8services14MetadataReader12readMetadataERKNSt7__cxx1112basic_stringIcSt11char_traitsIcESaIcEEE
FN:312,332,_ZNK12media_player8services14MetadataReader13readImageFileERKNSt7__cxx1112basic_stringIcSt11char_traitsIcESaIcEEE
FN:334,347,_ZNK12media_player8services14MetadataReader14writeImageFileERKNSt7__cxx1112basic_stringIcSt11char_traitsIcESaIcEEERKSt6vectorIhSaIhEE
FNDA:26,_ZNK12media_player8services14MetadataReader11canReadFileERKNSt7__cxx1112basic_stringIcSt11char_traitsIcESaIcEEE
FNDA:5,_ZN12media_player8services14MetadataReader13writeMetadataERKNSt7__cxx1112basic_stringIcSt11char_traitsIcESaIcEEERKNS_6models13MetadataModelE
FNDA:3,_ZN12media_player8services14MetadataReader15extractCoverArtERKNSt7__cxx1112basic_stringIcSt11char_traitsIcESaIcEEES9_
FNDA:22,_ZN12media_player8services14MetadataReaderC2Ev
FNDA:3,_ZN12media_player8services14MetadataReader13embedCoverArtERKNSt7__cxx1112basic_stringIcSt11char_traitsIcESaIcEEES9_
FNDA:0,_ZN12media_player8services14MetadataReaderD0Ev
FNDA:22,_ZN12media_player8services14MetadataReaderD2Ev
FNDA:26,_ZNK12media_player8services14MetadataReader17isSupportedFormatERKNSt7__cxx1112basic_stringIcSt11char_traitsIcESaIcEEE
FNDA:34,_ZNK12media_player8services14MetadataReader16getFileExtensionERKNSt7__cxx1112basic_stringIcSt11char_traitsIcESaIcEEE
FNDA:5,_ZN12media_player8services14MetadataReader12readMetadataERKNSt7__cxx1112basic_stringIcSt11char_traitsIcESaIcEEE
FNDA:2,_ZNK12media_player8services14MetadataReader13readImageFileERKNSt7__cxx1112basic_stringIcSt11char_traitsIcESaIcEEE
FNDA:0,_ZNK12media_player8services14MetadataReader14writeImageFileERKNSt7__cxx1112basic_stringIcSt11char_traitsIcESaIcEEERKSt6vectorIhSaIhEE
FNF:12
FNH:10
BRDA:32,0,0,5
BRDA:32,e0,1,0
BRDA:32,0,2,2
BRDA:32,0,3,3
BRDA:37,0,0,3
BRDA:37,e0,1,0
BRDA:41,0,0,3
BRDA:41,e0,1,0
BRDA:43,0,0,3
BRDA:43,e0,1,0
BRDA:43,0,2,1
BRDA:43,0,3,2
BRDA:48,0,0,2
BRDA:48,e0,1,0
BRDA:50,0,0,2
BRDA:50,0,1,0
BRDA:52,0,0,2
BRDA:52,e0,1,0
BRDA:52,0,2,2
BRDA:52,e0,3,0
BRDA:52,0,4,2
BRDA:52,e0,5,0
BRDA:52,0,6,2
BRDA:52,e0,7,0
BRDA:53,0,0,2
BRDA:53,e0,1,0
BRDA:53,0,2,2
BRDA:53,e0,3,0
BRDA:53,0,4,2
BRDA:53,e0,5,0
BRDA:53,0,6,2
BRDA:53,e0,7,0
BRDA:54,0,0,2
BRDA:54,e0,1,0
BRDA:54,0,2,2
BRDA:54,e0,3,0
BRDA:54,0,4,2
BRDA:54,e0,5,0
BRDA:54,0,6,2
BRDA:54,e0,7,0
BRDA:55,0,0,2
BRDA:55,e0,1,0
BRDA:55,0,2,2
BRDA:55,e0,3,0
BRDA:55,0,4,2
BRDA:55,e0,5,0
BRDA:55,0,6,2
BRDA:55,e0,7,0
BRDA:56,0,0,2
BRDA:56,e0,1,0
BRDA:56,0,2,2
BRDA:56,e0,3,0
BRDA:59,0,0,2
BRDA:59,e0,1,0
BRDA:61,0,0,2
BRDA:61,0,1,0
BRDA:64,0,0,2
BRDA:64,e0,1,0
BRDA:65,0,0,2
BRDA:65,e0,1,0
BRDA:65,0,2,2
BRDA:65,e0,3,0
BRDA:68,0,0,2
BRDA:68,e0,1,0
BRDA:69,0,0,2
BRDA:69,e0,1,0
BRDA:69,0,2,2
BRDA:69,e0,3,0
BRDA:73,0,0,2
BRDA:73,e0,1,0
BRDA:75,0,0,2
BRDA:75,e0,1,0
BRDA:75,0,2,1
BRDA:75,0,3,1
BRDA:77,0,0,1
BRDA:77,e0,1,0
BRDA:79,0,0,1
BRDA:79,e0,1,0
BRDA:79,0,2,1
BRDA:79,0,3,0
BRDA:79,0,4,1
BRDA:79,e0,5,0
BRDA:79,0,6,1
BRDA:79,0,7,0
BRDA:79,0,8,1
BRDA:79,0,9,0
BRDA:81,0,0,1
BRDA:81,e0,1,0
BRDA:82,0,0,1
BRDA:82,e0,1,0
BRDA:82,0,2,1
BRDA:82,e0,3,0
BRDA:84,0,0,0
BRDA:84,0,1,1
BRDA:87,0,0,-
BRDA:87,e0,1,-
BRDA:89,0,0,-
BRDA:89,0,1,-
BRDA:91,0,0,-
BRDA:91,e0,1,-
BRDA:92,0,0,-
BRDA:92,e0,1,-
BRDA:92,0,2,-
BRDA:92,e0,3,-
BRDA:92,0,4,-
BRDA:92,e0,5,-
BRDA:94,0,0,-
BRDA:94,e0,1,-
BRDA:94,0,2,-
BRDA:94,e0,3,-
BRDA:94,0,4,-
BRDA:94,e0,5,-
BRDA:95,0,0,-
BRDA:95,e0,1,-
BRDA:95,0,2,-
BRDA:95,e0,3,-
BRDA:95,0,4,-
BRDA:95,e0,5,-
BRDA:103,0,0,0
BRDA:103,0,1,0
BRDA:116,0,0,2
BRDA:116,0,1,3
BRDA:123,0,0,3
BRDA:123,e0,1,0
BRDA:125,0,0,3
BRDA:125,e0,1,0
BRDA:125,0,2,1
BRDA:125,0,3,2
BRDA:130,0,0,2
BRDA:130,e0,1,0
BRDA:132,0,0,0
BRDA:132,0,1,2
BRDA:138,0,0,2
BRDA:138,e0,1,0
BRDA:138,0,2,2
BRDA:138,e0,3,0
BRDA:138,0,4,2
BRDA:138,e0,5,0
BRDA:139,0,0,2
BRDA:139,e0,1,0
BRDA:139,0,2,2
BRDA:139,e0,3,0
BRDA:139,0,4,2
BRDA:139,e0,5,0
BRDA:140,0,0,2
BRDA:140,e0,1,0
BRDA:140,0,2,2
BRDA:140,e0,3,0
BRDA:140,0,4,2
BRDA:140,e0,5,0
BRDA:141,0,0,2
BRDA:141,e0,1,0
BRDA:141,0,2,2
BRDA:141,e0,3,0
BRDA:141,0,4,2
BRDA:141,e0,5,0
BRDA:146,0,0,2
BRDA:146,e0,1,0
BRDA:146,0,2,1
BRDA:146,0,3,1
BRDA:148,0,0,1
BRDA:148,e0,1,0
BRDA:148,0,2,0
BRDA:148,e0,3,1
BRDA:149,0,0,-
BRDA:149,e0,1,-
BRDA:152,0,0,0
BRDA:152,0,1,1
BRDA:156,0,0,2
BRDA:156,e0,1,0
BRDA:167,0,0,0
BRDA:167,0,1,0
BRDA:175,0,0,3
BRDA:175,e0,1,0
BRDA:177,0,0,3
BRDA:177,e0,1,0
BRDA:177,0,2,2
BRDA:177,0,3,1
BRDA:184,0,0,1
BRDA:184,e0,1,0
BRDA:186,0,0,1
BRDA:186,e0,1,0
BRDA:186,0,2,0
BRDA:186,0,3,1
BRDA:186,0,4,0
BRDA:186,e0,5,0
BRDA:186,0,6,0
BRDA:186,0,7,0
BRDA:186,0,8,1
BRDA:186,0,9,0
BRDA:191,0,0,-
BRDA:191,e0,1,-
BRDA:192,0,0,-
BRDA:192,e0,1,-
BRDA:192,0,2,-
BRDA:192,e0,3,-
BRDA:194,0,0,-
BRDA:194,0,1,-
BRDA:200,0,0,-
BRDA:200,e0,1,-
BRDA:202,0,0,-
BRDA:202,0,1,-
BRDA:207,0,0,-
BRDA:207,e0,1,-
BRDA:208,0,0,-
BRDA:208,e0,1,-
BRDA:208,0,2,-
BRDA:208,e0,3,-
BRDA:208,0,4,-
BRDA:208,e0,5,-
BRDA:210,0,0,-
BRDA:210,e0,1,-
BRDA:218,0,0,0
BRDA:218,0,1,0
BRDA:226,0,0,3
BRDA:226,e0,1,0
BRDA:228,0,0,3
BRDA:228,e0,1,0
BRDA:228,0,2,1
BRDA:228,0,3,2
BRDA:235,0,0,2
BRDA:235,e0,1,0
BRDA:237,0,0,1
BRDA:237,0,1,1
BRDA:242,0,0,1
BRDA:242,e0,1,0
BRDA:244,0,0,1
BRDA:244,e0,1,0
BRDA:244,0,2,1
BRDA:244,0,3,0
BRDA:249,0,0,-
BRDA:249,e0,1,-
BRDA:251,0,0,-
BRDA:251,0,1,-
BRDA:257,0,0,-
BRDA:257,e0,1,-
BRDA:257,0,2,-
BRDA:257,e0,3,-
BRDA:260,0,0,-
BRDA:260,e0,1,-
BRDA:260,0,2,-
BRDA:260,e0,3,-
BRDA:260,0,4,-
BRDA:260,0,5,-
BRDA:261,0,0,-
BRDA:261,e0,1,-
BRDA:261,0,2,-
BRDA:261,e0,3,-
BRDA:262,0,0,-
BRDA:262,e0,1,-
BRDA:262,0,2,-
BRDA:262,e0,3,-
BRDA:264,0,0,-
BRDA:264,e0,1,-
BRDA:266,0,0,-
BRDA:266,e0,1,-
BRDA:268,0,0,-
BRDA:268,e0,1,-
BRDA:279,0,0,0
BRDA:279,0,1,0
BRDA:287,0,0,26
BRDA:287,e0,1,0
BRDA:290,0,0,26
BRDA:290,e0,1,0
BRDA:292,0,0,26
BRDA:292,e0,1,0
BRDA:301,0,0,3
BRDA:301,0,1,31
BRDA:303,0,0,3
BRDA:303,e0,1,0
BRDA:306,0,0,31
BRDA:306,e0,1,0
BRDA:314,0,0,2
BRDA:314,e0,1,0
BRDA:316,0,0,1
BRDA:316,0,1,1
BRDA:321,0,0,1
BRDA:321,e0,1,0
BRDA:322,0,0,1
BRDA:322,e0,1,0
BRDA:324,0,0,1
BRDA:324,e0,1,0
BRDA:326,0,0,1
BRDA:326,e0,1,0
BRDA:326,0,2,1
BRDA:326,e0,3,0
BRDA:326,0,4,0
BRDA:326,0,5,1
BRDA:337,0,0,-
BRDA:337,e0,1,-
BRDA:339,0,0,-
BRDA:339,0,1,-
BRDA:344,0,0,-
BRDA:344,e0,1,-
BRDA:346,0,0,-
BRDA:346,e0,1,-
BRF:296
BRH:111
DA:22,22
DA:24,22
DA:26,22
DA:28,22
DA:30,5
DA:32,5
DA:34,2
DA:37,3
DA:41,3
DA:43,3
DA:45,1
DA:48,2
DA:50,2
DA:52,4
DA:53,4
DA:54,4
DA:55,4
DA:56,2
DA:59,2
DA:61,2
DA:64,2
DA:65,6
DA:68,2
DA:69,6
DA:73,2
DA:75,2
DA:77,1
DA:79,1
DA:81,1
DA:82,1
DA:84,1
DA:87,0
DA:89,0
DA:91,0
DA:92,0
DA:94,0
DA:95,0
DA:96,0
DA:98,1
DA:99,1
DA:101,2
DA:102,3
DA:103,0
DA:105,0
DA:106,0
DA:107,3
DA:109,26
DA:111,26
DA:114,5
DA:116,5
DA:118,2
DA:123,3
DA:125,3
DA:127,1
DA:130,2
DA:132,2
DA:134,0
DA:138,2
DA:139,2
DA:140,2
DA:141,2
DA:146,2
DA:148,2
DA:149,0
DA:152,1
DA:154,1
DA:156,2
DA:165,2
DA:166,3
DA:167,0
DA:169,0
DA:170,0
DA:173,3
DA:175,3
DA:177,3
DA:179,2
DA:184,1
DA:186,1
DA:188,1
DA:191,0
DA:192,0
DA:194,0
DA:196,0
DA:200,0
DA:202,0
DA:204,0
DA:207,0
DA:208,0
DA:210,0
DA:216,0
DA:217,0
DA:218,0
DA:220,0
DA:221,0
DA:222,3
DA:224,3
DA:226,3
DA:228,3
DA:230,1
DA:235,2
DA:237,2
DA:239,1
DA:242,1
DA:244,1
DA:246,1
DA:249,0
DA:251,0
DA:253,0
DA:257,0
DA:260,0
DA:261,0
DA:262,0
DA:263,0
DA:264,0
DA:266,0
DA:268,0
DA:277,0
DA:278,2
DA:279,0
DA:281,0
DA:282,0
DA:283,3
DA:285,26
DA:287,26
DA:290,52
DA:292,26
DA:294,78
DA:295,26
DA:297,34
DA:299,34
DA:301,34
DA:303,6
DA:306,31
DA:307,31
DA:309,31
DA:310,31
DA:312,2
DA:314,2
DA:316,2
DA:318,1
DA:321,1
DA:322,1
DA:324,1
DA:326,1
DA:328,0
DA:331,1
DA:332,2
DA:334,0
DA:337,0
DA:339,0
DA:341,0
DA:344,0
DA:346,0
DA:347,0
LF:154
LH:101
end_of_record
