TN:
SF:/home/duong/MediaPlayerApp/inc/models/MediaFileModel.h
FN:63,63,_ZN12media_player6models14MediaFileModel8setTitleERKNSt7__cxx1112basic_stringIcSt11char_traitsIcESaIcEEE
FN:64,64,_ZN12media_player6models14MediaFileModel9setArtistERKNSt7__cxx1112basic_stringIcSt11char_traitsIcESaIcEEE
FN:65,65,_ZN12media_player6models14MediaFileModel8setAlbumERKNSt7__cxx1112basic_stringIcSt11char_traitsIcESaIcEEE
FN:66,66,_ZN12media_player6models14MediaFileModel11setDurationEi
FNDA:0,_ZN12media_player6models14MediaFileModel8setTitleERKNSt7__cxx1112basic_stringIcSt11char_traitsIcESaIcEEE
FNDA:0,_ZN12media_player6models14MediaFileModel9setArtistERKNSt7__cxx1112basic_stringIcSt11char_traitsIcESaIcEEE
FNDA:0,_ZN12media_player6models14MediaFileModel8setAlbumERKNSt7__cxx1112basic_stringIcSt11char_traitsIcESaIcEEE
FNDA:0,_ZN12media_player6models14MediaFileModel11setDurationEi
FNF:4
FNH:0
DA:63,0
DA:64,0
DA:65,0
DA:66,0
LF:4
LH:0
end_of_record
TN:
SF:/home/duong/MediaPlayerApp/inc/models/MetadataModel.h
FN:18,18,_ZN12media_player6models13MetadataModelC2Ev
FN:22,25,_ZNK12media_player6models13MetadataModel8getTitleB5cxx11Ev
FN:27,30,_ZNK12media_player6models13MetadataModel9getArtistB5cxx11Ev
FN:32,35,_ZNK12media_player6models13MetadataModel8getAlbumB5cxx11Ev
FN:37,40,_ZNK12media_player6models13MetadataModel8getGenreB5cxx11Ev
FN:42,45,_ZNK12media_player6models13MetadataModel7getYearB5cxx11Ev
FN:74,77,_ZN12media_player6models13MetadataModel8setTitleERKNSt7__cxx1112basic_stringIcSt11char_traitsIcESaIcEEE
FN:79,82,_ZN12media_player6models13MetadataModel9setArtistERKNSt7__cxx1112basic_stringIcSt11char_traitsIcESaIcEEE
FN:84,87,_ZN12media_player6models13MetadataModel8setAlbumERKNSt7__cxx1112basic_stringIcSt11char_traitsIcESaIcEEE
FN:89,92,_ZN12media_player6models13MetadataModel8setGenreERKNSt7__cxx1112basic_stringIcSt11char_traitsIcESaIcEEE
FN:94,97,_ZN12media_player6models13MetadataModel7setYearERKNSt7__cxx1112basic_stringIcSt11char_traitsIcESaIcEEE
FNDA:0,_ZN12media_player6models13MetadataModelC2Ev
FNDA:0,_ZNK12media_player6models13MetadataModel8getTitleB5cxx11Ev
FNDA:0,_ZNK12media_player6models13MetadataModel9getArtistB5cxx11Ev
FNDA:0,_ZNK12media_player6models13MetadataModel8getAlbumB5cxx11Ev
FNDA:0,_ZNK12media_player6models13MetadataModel8getGenreB5cxx11Ev
FNDA:0,_ZNK12media_player6models13MetadataModel7getYearB5cxx11Ev
FNDA:0,_ZN12media_player6models13MetadataModel8setTitleERKNSt7__cxx1112basic_stringIcSt11char_traitsIcESaIcEEE
FNDA:0,_ZN12media_player6models13MetadataModel9setArtistERKNSt7__cxx1112basic_stringIcSt11char_traitsIcESaIcEEE
FNDA:0,_ZN12media_player6models13MetadataModel8setAlbumERKNSt7__cxx1112basic_stringIcSt11char_traitsIcESaIcEEE
FNDA:0,_ZN12media_player6models13MetadataModel8setGenreERKNSt7__cxx1112basic_stringIcSt11char_traitsIcESaIcEEE
FNDA:0,_ZN12media_player6models13MetadataModel7setYearERKNSt7__cxx1112basic_stringIcSt11char_traitsIcESaIcEEE
FNF:11
FNH:0
DA:18,0
DA:22,0
DA:24,0
DA:27,0
DA:29,0
DA:32,0
DA:34,0
DA:37,0
DA:39,0
DA:42,0
DA:44,0
DA:74,0
DA:76,0
DA:77,0
DA:79,0
DA:81,0
DA:82,0
DA:84,0
DA:86,0
DA:87,0
DA:89,0
DA:91,0
DA:92,0
DA:94,0
DA:96,0
DA:97,0
LF:26
LH:0
end_of_record
TN:
SF:/home/duong/MediaPlayerApp/inc/services/IFileScanner.h
FN:25,25,_ZN12media_player8services12IFileScannerD0Ev
FN:25,25,_ZN12media_player8services12IFileScannerD2Ev
FNDA:0,_ZN12media_player8services12IFileScannerD0Ev
FNDA:0,_ZN12media_player8services12IFileScannerD2Ev
FNF:2
FNH:0
DA:25,0
LF:1
LH:0
end_of_record
TN:
SF:/home/duong/MediaPlayerApp/inc/services/IMetadataReader.h
FN:19,19,_ZN12media_player8services15IMetadataReaderD0Ev
FN:19,19,_ZN12media_player8services15IMetadataReaderD2Ev
FNDA:0,_ZN12media_player8services15IMetadataReaderD0Ev
FNDA:0,_ZN12media_player8services15IMetadataReaderD2Ev
FNF:2
FNH:0
DA:19,0
LF:1
LH:0
end_of_record
TN:
SF:/home/duong/MediaPlayerApp/inc/services/IPlaybackEngine.h
FN:32,32,_ZN12media_player8services15IPlaybackEngineD0Ev
FN:32,32,_ZN12media_player8services15IPlaybackEngineD2Ev
FN:42,42,_ZN12media_player8services15IPlaybackEngine16releaseResourcesEv
FNDA:0,_ZN12media_player8services15IPlaybackEngineD0Ev
FNDA:0,_ZN12media_player8services15IPlaybackEngineD2Ev
FNDA:0,_ZN12media_player8services15IPlaybackEngine16releaseResourcesEv
FNF:3
FNH:0
DA:32,0
DA:42,0
LF:2
LH:0
end_of_record
TN:
SF:/home/duong/MediaPlayerApp/inc/services/ISerialCommunication.h
FN:20,20,_ZN12media_player8services20ISerialCommunicationD0Ev
FN:20,20,_ZN12media_player8services20ISerialCommunicationD2Ev
FNDA:0,_ZN12media_player8services20ISerialCommunicationD0Ev
FNDA:0,_ZN12media_player8services20ISerialCommunicationD2Ev
FNF:2
FNH:0
DA:20,0
LF:1
LH:0
end_of_record
TN:
SF:/home/duong/MediaPlayerApp/src/services/AudioPlaybackEngine.cpp
FN:106,117,_ZN12media_player8services19AudioPlaybackEngine15unloadAudioFileEv
FN:119,214,_ZN12media_player8services19AudioPlaybackEngine8loadFileERKNSt7__cxx1112basic_stringIcSt11char_traitsIcESaIcEEE
FN:15,21,_ZN12media_player8services19AudioPlaybackEngine21musicFinishedCallbackEv
FN:216,268,_ZN12media_player8services19AudioPlaybackEngine4playEv
FN:23,44,_ZN12media_player8services19AudioPlaybackEngineC2Ev
FN:270,284,_ZN12media_player8services19AudioPlaybackEngine5pauseEv
FN:286,312,_ZN12media_player8services19AudioPlaybackEngine4stopEv
FN:314,323,_ZN12media_player8services19AudioPlaybackEngine16releaseResourcesEv
FN:325,339,_ZN12media_player8services19AudioPlaybackEngine4seekEi
FN:341,344,_ZNK12media_player8services19AudioPlaybackEngine8getStateEv
FN:346,349,_ZNK12media_player8services19AudioPlaybackEngine18getCurrentPositionEv
FN:351,354,_ZNK12media_player8services19AudioPlaybackEngine16getTotalDurationEv
FN:356,364,_ZN12media_player8services19AudioPlaybackEngine9setVolumeEi
FN:366,369,_ZNK12media_player8services19AudioPlaybackEngine9getVolumeEv
FN:371,374,_ZNK12media_player8services19AudioPlaybackEngine17supportsMediaTypeENS_6models9MediaTypeE
FN:376,379,_ZN12media_player8services19AudioPlaybackEngine22setStateChangeCallbackESt8functionIFvNS0_13PlaybackStateEEE
FN:381,384,_ZN12media_player8services19AudioPlaybackEngine19setPositionCallbackESt8functionIFviiEE
FN:386,389,_ZN12media_player8services19AudioPlaybackEngine16setErrorCallbackESt8functionIFvRKNSt7__cxx1112basic_stringIcSt11char_traitsIcESaIcEEEEE
FN:391,394,_ZN12media_player8services19AudioPlaybackEngine19setFinishedCallbackESt8functionIFvvEE
FN:398,404,_ZN12media_player8services19AudioPlaybackEngine15onMusicFinishedEv
FN:406,460,_ZN12media_player8services19AudioPlaybackEngine12updateThreadEv
FN:46,61,_ZN12media_player8services19AudioPlaybackEngineD0Ev
FN:46,61,_ZN12media_player8services19AudioPlaybackEngineD2Ev
FN:462,468,_ZN12media_player8services19AudioPlaybackEngine17notifyStateChangeENS0_13PlaybackStateE
FN:470,476,_ZN12media_player8services19AudioPlaybackEngine14notifyPositionEv
FN:478,484,_ZN12media_player8services19AudioPlaybackEngine11notifyErrorERKNSt7__cxx1112basic_stringIcSt11char_traitsIcESaIcEEE
FN:486,492,_ZN12media_player8services19AudioPlaybackEngine14notifyFinishedEv
FN:63,91,_ZN12media_player8services19AudioPlaybackEngine13initializeSDLEv
FN:93,104,_ZN12media_player8services19AudioPlaybackEngine10cleanupSDLEv
FNDA:50,_ZN12media_player8services19AudioPlaybackEngine15unloadAudioFileEv
FNDA:3,_ZN12media_player8services19AudioPlaybackEngine8loadFileERKNSt7__cxx1112basic_stringIcSt11char_traitsIcESaIcEEE
FNDA:2,_ZN12media_player8services19AudioPlaybackEngine21musicFinishedCallbackEv
FNDA:4,_ZN12media_player8services19AudioPlaybackEngine4playEv
FNDA:47,_ZN12media_player8services19AudioPlaybackEngineC2Ev
FNDA:1,_ZN12media_player8services19AudioPlaybackEngine5pauseEv
FNDA:48,_ZN12media_player8services19AudioPlaybackEngine4stopEv
FNDA:0,_ZN12media_player8services19AudioPlaybackEngine16releaseResourcesEv
FNDA:0,_ZN12media_player8services19AudioPlaybackEngine4seekEi
FNDA:7,_ZNK12media_player8services19AudioPlaybackEngine8getStateEv
FNDA:0,_ZNK12media_player8services19AudioPlaybackEngine18getCurrentPositionEv
FNDA:0,_ZNK12media_player8services19AudioPlaybackEngine16getTotalDurationEv
FNDA:3,_ZN12media_player8services19AudioPlaybackEngine9setVolumeEi
FNDA:4,_ZNK12media_player8services19AudioPlaybackEngine9getVolumeEv
FNDA:0,_ZNK12media_player8services19AudioPlaybackEngine17supportsMediaTypeENS_6models9MediaTypeE
FNDA:43,_ZN12media_player8services19AudioPlaybackEngine22setStateChangeCallbackESt8functionIFvNS0_13PlaybackStateEEE
FNDA:42,_ZN12media_player8services19AudioPlaybackEngine19setPositionCallbackESt8functionIFviiEE
FNDA:43,_ZN12media_player8services19AudioPlaybackEngine16setErrorCallbackESt8functionIFvRKNSt7__cxx1112basic_stringIcSt11char_traitsIcESaIcEEEEE
FNDA:42,_ZN12media_player8services19AudioPlaybackEngine19setFinishedCallbackESt8functionIFvvEE
FNDA:2,_ZN12media_player8services19AudioPlaybackEngine15onMusicFinishedEv
FNDA:47,_ZN12media_player8services19AudioPlaybackEngine12updateThreadEv
FNDA:42,_ZN12media_player8services19AudioPlaybackEngineD0Ev
FNDA:47,_ZN12media_player8services19AudioPlaybackEngineD2Ev
FNDA:8,_ZN12media_player8services19AudioPlaybackEngine17notifyStateChangeENS0_13PlaybackStateE
FNDA:0,_ZN12media_player8services19AudioPlaybackEngine14notifyPositionEv
FNDA:1,_ZN12media_player8services19AudioPlaybackEngine11notifyErrorERKNSt7__cxx1112basic_stringIcSt11char_traitsIcESaIcEEE
FNDA:0,_ZN12media_player8services19AudioPlaybackEngine14notifyFinishedEv
FNDA:47,_ZN12media_player8services19AudioPlaybackEngine13initializeSDLEv
FNDA:47,_ZN12media_player8services19AudioPlaybackEngine10cleanupSDLEv
FNF:29
FNH:22
BRDA:17,0,0,2
BRDA:17,0,1,0
BRDA:35,0,0,47
BRDA:35,e0,1,0
BRDA:35,0,2,0
BRDA:35,0,3,47
BRDA:41,0,0,47
BRDA:41,e0,1,0
BRDA:52,0,0,47
BRDA:52,0,1,0
BRDA:52,0,2,47
BRDA:52,0,3,0
BRDA:52,0,4,47
BRDA:52,0,5,0
BRDA:65,0,0,0
BRDA:65,0,1,47
BRDA:98,0,0,47
BRDA:98,0,1,0
BRDA:108,0,0,2
BRDA:108,0,1,48
BRDA:121,0,0,3
BRDA:121,e0,1,0
BRDA:126,0,0,0
BRDA:126,0,1,3
BRDA:128,0,0,-
BRDA:128,e0,1,-
BRDA:131,0,0,3
BRDA:131,e0,1,0
BRDA:134,0,0,0
BRDA:134,0,1,3
BRDA:136,0,0,-
BRDA:136,e0,1,-
BRDA:136,0,2,-
BRDA:136,e0,3,-
BRDA:145,0,0,3
BRDA:145,e0,1,0
BRDA:147,0,0,3
BRDA:147,0,1,0
BRDA:150,0,0,3
BRDA:150,e0,1,0
BRDA:150,0,2,0
BRDA:150,0,3,3
BRDA:152,0,0,-
BRDA:152,e0,1,-
BRDA:152,0,2,-
BRDA:152,e0,3,-
BRDA:157,0,0,3
BRDA:157,e0,1,0
BRDA:159,0,0,1
BRDA:159,0,1,2
BRDA:161,0,0,1
BRDA:161,e0,1,0
BRDA:161,0,2,1
BRDA:161,e0,3,0
BRDA:162,0,0,1
BRDA:162,e0,1,0
BRDA:162,0,2,1
BRDA:162,e0,3,0
BRDA:163,0,0,1
BRDA:163,e0,1,0
BRDA:168,0,0,2
BRDA:168,e0,1,0
BRDA:170,0,0,2
BRDA:170,e0,1,0
BRDA:183,0,0,2
BRDA:183,e0,1,0
BRDA:184,0,0,2
BRDA:184,0,1,0
BRDA:198,0,0,2
BRDA:198,e0,1,0
BRDA:202,0,0,0
BRDA:202,0,1,0
BRDA:204,0,0,0
BRDA:204,e0,1,0
BRDA:204,0,2,0
BRDA:204,e0,3,0
BRDA:204,0,4,0
BRDA:204,e0,5,0
BRDA:205,0,0,0
BRDA:205,e0,1,0
BRDA:210,0,0,0
BRDA:210,e0,1,0
BRDA:210,0,2,0
BRDA:210,e0,3,0
BRDA:211,0,0,0
BRDA:211,e0,1,0
BRDA:213,0,0,0
BRDA:213,e0,1,0
BRDA:218,0,0,4
BRDA:218,e0,1,0
BRDA:222,0,0,1
BRDA:222,0,1,3
BRDA:227,0,0,0
BRDA:227,0,1,3
BRDA:235,0,0,1
BRDA:235,0,1,2
BRDA:237,0,0,1
BRDA:237,e0,1,0
BRDA:242,0,0,2
BRDA:242,e0,1,0
BRDA:242,0,2,0
BRDA:242,0,3,2
BRDA:244,0,0,-
BRDA:244,e0,1,-
BRDA:244,0,2,-
BRDA:244,e0,3,-
BRDA:245,0,0,-
BRDA:245,e0,1,-
BRDA:245,0,2,-
BRDA:245,e0,3,-
BRDA:250,0,0,3
BRDA:250,e0,1,0
BRDA:254,0,0,3
BRDA:254,e0,1,0
BRDA:258,0,0,0
BRDA:258,0,1,0
BRDA:260,0,0,0
BRDA:260,e0,1,0
BRDA:260,0,2,0
BRDA:260,e0,3,0
BRDA:260,0,4,0
BRDA:260,e0,5,0
BRDA:265,0,0,0
BRDA:265,e0,1,0
BRDA:265,0,2,0
BRDA:265,e0,3,0
BRDA:267,0,0,0
BRDA:267,e0,1,0
BRDA:272,0,0,1
BRDA:272,e0,1,0
BRDA:274,0,0,0
BRDA:274,0,1,1
BRDA:279,0,0,1
BRDA:279,e0,1,0
BRDA:281,0,0,1
BRDA:281,e0,1,0
BRDA:288,0,0,48
BRDA:288,e0,1,0
BRDA:290,0,0,46
BRDA:290,0,1,2
BRDA:299,0,0,2
BRDA:299,e0,1,0
BRDA:309,0,0,2
BRDA:309,e0,1,0
BRDA:316,0,0,-
BRDA:316,e0,1,-
BRDA:317,0,0,-
BRDA:317,0,1,-
BRDA:319,0,0,-
BRDA:319,e0,1,-
BRDA:322,0,0,-
BRDA:322,e0,1,-
BRDA:327,0,0,-
BRDA:327,e0,1,-
BRDA:329,0,0,-
BRDA:329,0,1,-
BRDA:331,0,0,-
BRDA:331,e0,1,-
BRDA:331,0,2,-
BRDA:331,0,3,-
BRDA:334,0,0,-
BRDA:334,e0,1,-
BRDA:358,0,0,3
BRDA:358,e0,1,0
BRDA:360,0,0,0
BRDA:360,0,1,3
BRDA:362,0,0,-
BRDA:362,e0,1,-
BRDA:410,0,0,21
BRDA:410,0,1,47
BRDA:413,0,0,0
BRDA:413,0,1,21
BRDA:417,0,0,-
BRDA:417,e0,1,-
BRDA:420,0,0,-
BRDA:420,0,1,-
BRDA:422,0,0,-
BRDA:422,e0,1,-
BRDA:427,0,0,0
BRDA:427,0,1,21
BRDA:431,0,0,-
BRDA:431,e0,1,-
BRDA:434,0,0,-
BRDA:434,0,1,-
BRDA:434,0,2,-
BRDA:434,0,3,-
BRDA:434,0,4,-
BRDA:434,0,5,-
BRDA:437,0,0,-
BRDA:437,e0,1,-
BRDA:438,0,0,-
BRDA:438,0,1,-
BRDA:446,0,0,-
BRDA:446,e0,1,-
BRDA:449,0,0,21
BRDA:449,e0,1,0
BRDA:454,0,0,0
BRDA:454,0,1,0
BRDA:464,0,0,3
BRDA:464,0,1,5
BRDA:472,0,0,-
BRDA:472,0,1,-
BRDA:480,0,0,1
BRDA:480,0,1,0
BRDA:488,0,0,-
BRDA:488,0,1,-
BRF:206
BRH:62
DA:15,2
DA:17,2
DA:19,2
DA:21,2
DA:23,47
DA:24,47
DA:25,47
DA:26,47
DA:27,47
DA:28,47
DA:29,47
DA:30,47
DA:31,141
DA:33,47
DA:35,47
DA:37,0
DA:40,47
DA:41,47
DA:44,0
DA:46,89
DA:48,47
DA:50,47
DA:52,47
DA:54,47
DA:57,47
DA:58,47
DA:60,47
DA:61,89
DA:63,47
DA:65,47
DA:67,0
DA:71,47
DA:72,47
DA:74,47
DA:88,47
DA:90,47
DA:93,47
DA:96,47
DA:98,47
DA:100,47
DA:101,47
DA:102,47
DA:104,47
DA:106,50
DA:108,50
DA:110,2
DA:111,2
DA:114,50
DA:115,50
DA:116,50
DA:117,50
DA:119,3
DA:121,3
DA:126,3
DA:128,0
DA:131,3
DA:134,3
DA:136,0
DA:137,0
DA:142,3
DA:143,3
DA:144,3
DA:145,3
DA:147,3
DA:150,3
DA:152,0
DA:153,0
DA:157,3
DA:159,3
DA:161,1
DA:162,1
DA:163,1
DA:164,1
DA:165,1
DA:168,2
DA:170,2
DA:171,2
DA:172,2
DA:183,2
DA:184,2
DA:186,2
DA:195,0
DA:198,2
DA:200,2
DA:202,0
DA:204,0
DA:205,0
DA:206,0
DA:207,0
DA:208,0
DA:210,0
DA:211,0
DA:212,0
DA:213,0
DA:214,3
DA:216,4
DA:218,4
DA:222,4
DA:224,1
DA:227,3
DA:229,0
DA:233,3
DA:235,3
DA:237,1
DA:242,2
DA:244,0
DA:245,0
DA:246,0
DA:247,0
DA:250,3
DA:252,3
DA:254,3
DA:256,3
DA:258,0
DA:260,0
DA:261,0
DA:262,0
DA:263,0
DA:265,0
DA:266,0
DA:267,0
DA:268,4
DA:270,1
DA:272,1
DA:274,1
DA:276,0
DA:279,1
DA:280,1
DA:281,1
DA:283,1
DA:284,1
DA:286,48
DA:288,48
DA:290,48
DA:292,46
DA:297,2
DA:299,2
DA:302,2
DA:307,2
DA:308,2
DA:309,2
DA:311,2
DA:312,48
DA:314,0
DA:316,0
DA:317,0
DA:319,0
DA:320,0
DA:322,0
DA:323,0
DA:325,0
DA:327,0
DA:329,0
DA:331,0
DA:333,0
DA:334,0
DA:335,0
DA:338,0
DA:339,0
DA:341,7
DA:343,7
DA:346,0
DA:348,0
DA:351,0
DA:353,0
DA:356,3
DA:358,3
DA:359,3
DA:360,3
DA:362,0
DA:364,3
DA:366,4
DA:368,4
DA:371,0
DA:373,0
DA:376,43
DA:378,43
DA:379,43
DA:381,42
DA:383,42
DA:384,42
DA:386,43
DA:388,43
DA:389,43
DA:391,42
DA:393,42
DA:394,42
DA:398,2
DA:403,2
DA:404,2
DA:406,47
DA:410,68
DA:413,21
DA:415,0
DA:416,0
DA:417,0
DA:420,0
DA:422,0
DA:424,0
DA:427,21
DA:431,0
DA:434,0
DA:437,0
DA:438,0
DA:440,0
DA:443,0
DA:446,0
DA:449,21
DA:450,42
DA:454,0
DA:456,0
DA:457,0
DA:459,0
DA:460,47
DA:462,8
DA:464,8
DA:466,3
DA:468,8
DA:470,0
DA:472,0
DA:474,0
DA:476,0
DA:478,1
DA:480,1
DA:482,1
DA:484,1
DA:486,0
DA:488,0
DA:490,0
DA:492,0
LF:230
LH:149
end_of_record
TN:
SF:/home/duong/MediaPlayerApp/src/services/FileScanner.cpp
FN:105,149,_ZN12media_player8services11FileScanner17scanDirectorySyncERKNSt7__cxx1112basic_stringIcSt11char_traitsIcESaIcEEE
FN:151,154,_ZN12media_player8services11FileScanner11setMaxDepthEi
FN:156,159,_ZN12media_player8services11FileScanner17setFileExtensionsERKSt6vectorINSt7__cxx1112basic_stringIcSt11char_traitsIcESaIcEEESaIS8_EE
FN:161,180,_ZN12media_player8services11FileScanner10scanWorkerERKNSt7__cxx1112basic_stringIcSt11char_traitsIcESaIcEEE
FN:182,280,_ZN12media_player8services11FileScanner13scanRecursiveERKNSt7__cxx1112basic_stringIcSt11char_traitsIcESaIcEEEi
FN:21,31,_ZN12media_player8services11FileScannerC2Ev
FN:282,286,_ZNK12media_player8services11FileScanner16isValidMediaFileERKNSt7__cxx1112basic_stringIcSt11char_traitsIcESaIcEEE
FN:288,295,_ZNK12media_player8services11FileScanner17hasValidExtensionERKNSt7__cxx1112basic_stringIcSt11char_traitsIcESaIcEEE
FN:297,307,_ZNK12media_player8services11FileScanner16getFileExtensionERKNSt7__cxx1112basic_stringIcSt11char_traitsIcESaIcEEE
FN:309,314,_ZNK12media_player8services11FileScanner11toLowerCaseERKNSt7__cxx1112basic_stringIcSt11char_traitsIcESaIcEEE
FN:316,326,_ZN12media_player8services11FileScanner14notifyProgressEiRKNSt7__cxx1112basic_stringIcSt11char_traitsIcESaIcEEE
FN:328,334,_ZN12media_player8services11FileScanner14notifyCompleteERKSt6vectorINS_6models14MediaFileModelESaIS4_EE
FN:33,36,_ZN12media_player8services11FileScannerD0Ev
FN:33,36,_ZN12media_player8services11FileScannerD2Ev
FN:38,69,_ZN12media_player8services11FileScanner13scanDirectoryERKNSt7__cxx1112basic_stringIcSt11char_traitsIcESaIcEEE
FN:71,82,_ZN12media_player8services11FileScanner12stopScanningEv
FN:84,87,_ZNK12media_player8services11FileScanner10isScanningEv
FN:89,92,_ZN12media_player8services11FileScanner19setProgressCallbackESt8functionIFviRKNSt7__cxx1112basic_stringIcSt11char_traitsIcESaIcEEEEE
FN:94,97,_ZN12media_player8services11FileScanner19setProgressCallbackESt8functionIFviiRKNSt7__cxx1112basic_stringIcSt11char_traitsIcESaIcEEEEE
FN:99,102,_ZN12media_player8services11FileScanner19setCompleteCallbackESt8functionIFvSt6vectorINS_6models14MediaFileModelESaIS5_EEEE
FNDA:11,_ZN12media_player8services11FileScanner17scanDirectorySyncERKNSt7__cxx1112basic_stringIcSt11char_traitsIcESaIcEEE
FNDA:6,_ZN12media_player8services11FileScanner11setMaxDepthEi
FNDA:0,_ZN12media_player8services11FileScanner17setFileExtensionsERKSt6vectorINSt7__cxx1112basic_stringIcSt11char_traitsIcESaIcEEESaIS8_EE
FNDA:3,_ZN12media_player8services11FileScanner10scanWorkerERKNSt7__cxx1112basic_stringIcSt11char_traitsIcESaIcEEE
FNDA:22,_ZN12media_player8services11FileScanner13scanRecursiveERKNSt7__cxx1112basic_stringIcSt11char_traitsIcESaIcEEEi
FNDA:13,_ZN12media_player8services11FileScannerC2Ev
FNDA:68,_ZNK12media_player8services11FileScanner16isValidMediaFileERKNSt7__cxx1112basic_stringIcSt11char_traitsIcESaIcEEE
FNDA:124,_ZNK12media_player8services11FileScanner17hasValidExtensionERKNSt7__cxx1112basic_stringIcSt11char_traitsIcESaIcEEE
FNDA:68,_ZNK12media_player8services11FileScanner16getFileExtensionERKNSt7__cxx1112basic_stringIcSt11char_traitsIcESaIcEEE
FNDA:124,_ZNK12media_player8services11FileScanner11toLowerCaseERKNSt7__cxx1112basic_stringIcSt11char_traitsIcESaIcEEE
FNDA:0,_ZN12media_player8services11FileScanner14notifyProgressEiRKNSt7__cxx1112basic_stringIcSt11char_traitsIcESaIcEEE
FNDA:2,_ZN12media_player8services11FileScanner14notifyCompleteERKSt6vectorINS_6models14MediaFileModelESaIS4_EE
FNDA:0,_ZN12media_player8services11FileScannerD0Ev
FNDA:13,_ZN12media_player8services11FileScannerD2Ev
FNDA:3,_ZN12media_player8services11FileScanner13scanDirectoryERKNSt7__cxx1112basic_stringIcSt11char_traitsIcESaIcEEE
FNDA:14,_ZN12media_player8services11FileScanner12stopScanningEv
FNDA:2,_ZNK12media_player8services11FileScanner10isScanningEv
FNDA:2,_ZN12media_player8services11FileScanner19setProgressCallbackESt8functionIFviRKNSt7__cxx1112basic_stringIcSt11char_traitsIcESaIcEEEEE
FNDA:0,_ZN12media_player8services11FileScanner19setProgressCallbackESt8functionIFviiRKNSt7__cxx1112basic_stringIcSt11char_traitsIcESaIcEEEEE
FNDA:2,_ZN12media_player8services11FileScanner19setCompleteCallbackESt8functionIFvSt6vectorINS_6models14MediaFileModelESaIS5_EEEE
FNF:20
FNH:16
BRDA:30,0,0,13
BRDA:30,e0,1,0
BRDA:40,0,0,0
BRDA:40,0,1,3
BRDA:45,0,0,3
BRDA:45,e0,1,0
BRDA:45,0,2,3
BRDA:45,e0,3,0
BRDA:45,0,4,0
BRDA:45,0,5,3
BRDA:50,0,0,3
BRDA:50,e0,1,0
BRDA:50,0,2,3
BRDA:50,e0,3,0
BRDA:50,0,4,0
BRDA:50,0,5,3
BRDA:62,0,0,0
BRDA:62,0,1,3
BRDA:62,0,2,0
BRDA:62,0,3,0
BRDA:62,0,4,0
BRDA:62,0,5,3
BRDA:68,0,0,3
BRDA:68,e0,1,0
BRDA:75,0,0,4
BRDA:75,0,1,10
BRDA:75,0,2,3
BRDA:75,0,3,1
BRDA:75,0,4,3
BRDA:75,0,5,11
BRDA:107,0,0,11
BRDA:107,e0,1,0
BRDA:107,0,2,11
BRDA:107,e0,3,0
BRDA:107,0,4,1
BRDA:107,0,5,10
BRDA:112,0,0,10
BRDA:112,e0,1,0
BRDA:112,0,2,10
BRDA:112,e0,3,0
BRDA:112,0,4,1
BRDA:112,0,5,9
BRDA:127,0,0,9
BRDA:127,e0,1,0
BRDA:127,0,2,9
BRDA:127,e0,3,0
BRDA:127,0,4,64
BRDA:127,e0,5,0
BRDA:127,0,6,64
BRDA:127,0,7,9
BRDA:129,0,0,64
BRDA:129,e0,1,0
BRDA:129,0,2,56
BRDA:129,0,3,8
BRDA:131,0,0,56
BRDA:131,e0,1,0
BRDA:131,0,2,56
BRDA:131,e0,3,0
BRDA:133,0,0,56
BRDA:133,e0,1,0
BRDA:133,0,2,48
BRDA:133,0,3,8
BRDA:165,0,0,3
BRDA:165,e0,1,0
BRDA:167,0,0,2
BRDA:167,0,1,1
BRDA:169,0,0,2
BRDA:169,e0,1,0
BRDA:175,0,0,0
BRDA:175,0,1,0
BRDA:184,0,0,1
BRDA:184,0,1,21
BRDA:189,0,0,2
BRDA:189,0,1,19
BRDA:196,0,0,19
BRDA:196,e0,1,0
BRDA:196,0,2,19
BRDA:196,e0,3,0
BRDA:196,0,4,78
BRDA:196,e0,5,0
BRDA:196,0,6,78
BRDA:196,0,7,19
BRDA:198,0,0,0
BRDA:198,0,1,78
BRDA:205,0,0,78
BRDA:205,e0,1,0
BRDA:205,0,2,10
BRDA:205,0,3,68
BRDA:208,0,0,10
BRDA:208,e0,1,0
BRDA:208,0,2,10
BRDA:208,e0,3,0
BRDA:208,0,4,10
BRDA:208,e0,5,0
BRDA:208,0,6,0
BRDA:208,0,7,10
BRDA:213,0,0,10
BRDA:213,e0,1,0
BRDA:213,0,2,10
BRDA:213,e0,3,0
BRDA:215,0,0,68
BRDA:215,e0,1,0
BRDA:215,0,2,68
BRDA:215,0,3,0
BRDA:217,0,0,68
BRDA:217,e0,1,0
BRDA:219,0,0,68
BRDA:219,e0,1,0
BRDA:219,0,2,58
BRDA:219,0,3,10
BRDA:221,0,0,58
BRDA:221,e0,1,0
BRDA:223,0,0,58
BRDA:223,e0,1,0
BRDA:223,0,2,58
BRDA:223,0,3,0
BRDA:228,0,0,58
BRDA:228,e0,1,0
BRDA:229,0,0,58
BRDA:229,e0,1,0
BRDA:229,0,2,40
BRDA:229,0,3,18
BRDA:231,0,0,40
BRDA:231,e0,1,0
BRDA:232,0,0,40
BRDA:232,0,1,0
BRDA:234,0,0,40
BRDA:234,e0,1,0
BRDA:234,0,2,40
BRDA:234,e0,3,0
BRDA:234,0,4,40
BRDA:234,e0,5,0
BRDA:235,0,0,40
BRDA:235,e0,1,0
BRDA:235,0,2,40
BRDA:235,e0,3,0
BRDA:235,0,4,40
BRDA:235,e0,5,0
BRDA:236,0,0,40
BRDA:236,e0,1,0
BRDA:236,0,2,40
BRDA:236,e0,3,0
BRDA:236,0,4,40
BRDA:236,e0,5,0
BRDA:238,0,0,0
BRDA:238,0,1,40
BRDA:238,0,2,0
BRDA:238,e0,3,0
BRDA:239,0,0,0
BRDA:239,0,1,40
BRDA:239,0,2,0
BRDA:239,e0,3,0
BRDA:240,0,0,0
BRDA:240,0,1,40
BRDA:240,0,2,0
BRDA:240,e0,3,0
BRDA:243,0,0,40
BRDA:243,e0,1,0
BRDA:244,0,0,40
BRDA:244,0,1,0
BRDA:246,0,0,40
BRDA:246,e0,1,0
BRDA:253,0,0,0
BRDA:253,e0,1,0
BRDA:255,0,0,58
BRDA:255,e0,1,0
BRDA:259,0,0,0
BRDA:259,0,1,58
BRDA:261,0,0,-
BRDA:261,e0,1,-
BRDA:270,0,0,0
BRDA:270,0,1,0
BRDA:273,0,0,0
BRDA:273,e0,1,0
BRDA:274,0,0,19
BRDA:274,0,1,0
BRDA:274,0,2,19
BRDA:274,0,3,0
BRDA:274,0,4,19
BRDA:274,0,5,0
BRDA:276,0,0,0
BRDA:276,0,1,0
BRDA:284,0,0,68
BRDA:284,e0,1,0
BRDA:285,0,0,68
BRDA:285,e0,1,0
BRDA:290,0,0,124
BRDA:290,e0,1,0
BRDA:292,0,0,124
BRDA:292,e0,1,0
BRDA:301,0,0,0
BRDA:301,0,1,68
BRDA:303,0,0,-
BRDA:303,e0,1,-
BRDA:318,0,0,-
BRDA:318,0,1,-
BRDA:322,0,0,-
BRDA:322,0,1,-
BRDA:330,0,0,2
BRDA:330,0,1,0
BRDA:332,0,0,2
BRDA:332,e0,1,0
BRDA:332,0,2,2
BRDA:332,e0,3,0
BRF:204
BRH:104
DA:21,13
DA:22,13
DA:23,13
DA:24,13
DA:25,13
DA:26,26
DA:30,13
DA:31,13
DA:33,13
DA:35,13
DA:36,13
DA:38,3
DA:40,3
DA:42,0
DA:45,3
DA:47,0
DA:50,3
DA:52,0
DA:56,3
DA:57,3
DA:58,3
DA:59,3
DA:62,3
DA:64,0
DA:68,3
DA:71,14
DA:73,14
DA:75,14
DA:77,3
DA:80,14
DA:82,14
DA:84,2
DA:86,2
DA:89,2
DA:91,2
DA:92,2
DA:94,0
DA:96,0
DA:97,0
DA:99,2
DA:101,2
DA:102,2
DA:105,11
DA:107,11
DA:109,1
DA:112,10
DA:114,1
DA:118,9
DA:119,9
DA:120,9
DA:121,9
DA:124,9
DA:127,73
DA:129,64
DA:131,56
DA:132,56
DA:133,56
DA:135,48
DA:137,56
DA:138,9
DA:140,0
DA:142,9
DA:144,9
DA:146,9
DA:148,9
DA:151,6
DA:153,6
DA:154,6
DA:156,0
DA:158,0
DA:159,0
DA:161,3
DA:165,3
DA:167,3
DA:169,2
DA:175,0
DA:177,0
DA:179,3
DA:180,3
DA:182,22
DA:184,22
DA:186,1
DA:189,21
DA:191,2
DA:196,97
DA:198,78
DA:200,0
DA:205,78
DA:208,10
DA:210,0
DA:213,10
DA:215,68
DA:217,68
DA:219,68
DA:221,58
DA:223,58
DA:228,58
DA:229,58
DA:231,40
DA:232,40
DA:234,40
DA:235,40
DA:236,40
DA:238,40
DA:239,40
DA:240,40
DA:241,40
DA:243,40
DA:244,40
DA:246,40
DA:249,58
DA:250,0
DA:253,0
DA:255,58
DA:256,58
DA:259,58
DA:261,0
DA:264,58
DA:268,68
DA:270,0
DA:272,0
DA:273,0
DA:274,19
DA:276,0
DA:279,0
DA:282,68
DA:284,68
DA:285,136
DA:286,68
DA:288,124
DA:290,124
DA:292,124
DA:294,372
DA:295,124
DA:297,68
DA:299,68
DA:301,68
DA:303,0
DA:306,68
DA:309,124
DA:311,124
DA:312,124
DA:313,124
DA:316,0
DA:318,0
DA:320,0
DA:322,0
DA:324,0
DA:326,0
DA:328,2
DA:330,2
DA:332,2
DA:334,2
LF:153
LH:123
end_of_record
TN:
SF:/home/duong/MediaPlayerApp/src/services/MetadataReader.cpp
FN:109,112,_ZNK12media_player8services14MetadataReader11canReadFileERKNSt7__cxx1112basic_stringIcSt11char_traitsIcESaIcEEE
FN:114,171,_ZN12media_player8services14MetadataReader13writeMetadataERKNSt7__cxx1112basic_stringIcSt11char_traitsIcESaIcEEERKNS_6models13MetadataModelE
FN:173,222,_ZN12media_player8services14MetadataReader15extractCoverArtERKNSt7__cxx1112basic_stringIcSt11char_traitsIcESaIcEEES9_
FN:22,24,_ZN12media_player8services14MetadataReaderC2Ev
FN:224,283,_ZN12media_player8services14MetadataReader13embedCoverArtERKNSt7__cxx1112basic_stringIcSt11char_traitsIcESaIcEEES9_
FN:26,28,_ZN12media_player8services14MetadataReaderD0Ev
FN:26,28,_ZN12media_player8services14MetadataReaderD2Ev
FN:285,295,_ZNK12media_player8services14MetadataReader17isSupportedFormatERKNSt7__cxx1112basic_stringIcSt11char_traitsIcESaIcEEE
FN:297,310,_ZNK12media_player8services14MetadataReader16getFileExtensionERKNSt7__cxx1112basic_stringIcSt11char_traitsIcESaIcEEE
FN:30,107,_ZN12media_player8services14MetadataReader12readMetadataERKNSt7__cxx1112basic_stringIcSt11char_traitsIcESaIcEEE
FN:312,332,_ZNK12media_player8services14MetadataReader13readImageFileERKNSt7__cxx1112basic_stringIcSt11char_traitsIcESaIcEEE
FN:334,347,_ZNK12media_player8services14MetadataReader14writeImageFileERKNSt7__cxx1112basic_stringIcSt11char_traitsIcESaIcEEERKSt6vectorIhSaIhEE
FNDA:26,_ZNK12media_player8services14MetadataReader11canReadFileERKNSt7__cxx1112basic_stringIcSt11char_traitsIcESaIcEEE
FNDA:5,_ZN12media_player8services14MetadataReader13writeMetadataERKNSt7__cxx1112basic_stringIcSt11char_traitsIcESaIcEEERKNS_6models13MetadataModelE
FNDA:3,_ZN12media_player8services14MetadataReader15extractCoverArtERKNSt7__cxx1112basic_stringIcSt11char_traitsIcESaIcEEES9_
FNDA:22,_ZN12media_player8services14MetadataReaderC2Ev
FNDA:3,_ZN12media_player8services14MetadataReader13embedCoverArtERKNSt7__cxx1112basic_stringIcSt11char_traitsIcESaIcEEES9_
FNDA:0,_ZN12media_player8services14MetadataReaderD0Ev
FNDA:22,_ZN12media_player8services14MetadataReaderD2Ev
FNDA:26,_ZNK12media_player8services14MetadataReader17isSupportedFormatERKNSt7__cxx1112basic_stringIcSt11char_traitsIcESaIcEEE
FNDA:34,_ZNK12media_player8services14MetadataReader16getFileExtensionERKNSt7__cxx1112basic_stringIcSt11char_traitsIcESaIcEEE
FNDA:5,_ZN12media_player8services14MetadataReader12readMetadataERKNSt7__cxx1112basic_stringIcSt11char_traitsIcESaIcEEE
FNDA:2,_ZNK12media_player8services14MetadataReader13readImageFileERKNSt7__cxx1112basic_stringIcSt11char_traitsIcESaIcEEE
FNDA:0,_ZNK12media_player8services14MetadataReader14writeImageFileERKNSt7__cxx1112basic_stringIcSt11char_traitsIcESaIcEEERKSt6vectorIhSaIhEE
FNF:12
FNH:10
BRDA:32,0,0,5
BRDA:32,e0,1,0
BRDA:32,0,2,2
BRDA:32,0,3,3
BRDA:37,0,0,3
BRDA:37,e0,1,0
BRDA:41,0,0,3
BRDA:41,e0,1,0
BRDA:43,0,0,3
BRDA:43,e0,1,0
BRDA:43,0,2,1
BRDA:43,0,3,2
BRDA:48,0,0,2
BRDA:48,e0,1,0
BRDA:50,0,0,2
BRDA:50,0,1,0
BRDA:52,0,0,2
BRDA:52,e0,1,0
BRDA:52,0,2,2
BRDA:52,e0,3,0
BRDA:52,0,4,2
BRDA:52,e0,5,0
BRDA:52,0,6,2
BRDA:52,e0,7,0
BRDA:53,0,0,2
BRDA:53,e0,1,0
BRDA:53,0,2,2
BRDA:53,e0,3,0
BRDA:53,0,4,2
BRDA:53,e0,5,0
BRDA:53,0,6,2
BRDA:53,e0,7,0
BRDA:54,0,0,2
BRDA:54,e0,1,0
BRDA:54,0,2,2
BRDA:54,e0,3,0
BRDA:54,0,4,2
BRDA:54,e0,5,0
BRDA:54,0,6,2
BRDA:54,e0,7,0
BRDA:55,0,0,2
BRDA:55,e0,1,0
BRDA:55,0,2,2
BRDA:55,e0,3,0
BRDA:55,0,4,2
BRDA:55,e0,5,0
BRDA:55,0,6,2
BRDA:55,e0,7,0
BRDA:56,0,0,2
BRDA:56,e0,1,0
BRDA:56,0,2,2
BRDA:56,e0,3,0
BRDA:59,0,0,2
BRDA:59,e0,1,0
BRDA:61,0,0,2
BRDA:61,0,1,0
BRDA:64,0,0,2
BRDA:64,e0,1,0
BRDA:65,0,0,2
BRDA:65,e0,1,0
BRDA:65,0,2,2
BRDA:65,e0,3,0
BRDA:68,0,0,2
BRDA:68,e0,1,0
BRDA:69,0,0,2
BRDA:69,e0,1,0
BRDA:69,0,2,2
BRDA:69,e0,3,0
BRDA:73,0,0,2
BRDA:73,e0,1,0
BRDA:75,0,0,2
BRDA:75,e0,1,0
BRDA:75,0,2,1
BRDA:75,0,3,1
BRDA:77,0,0,1
BRDA:77,e0,1,0
BRDA:79,0,0,1
BRDA:79,e0,1,0
BRDA:79,0,2,1
BRDA:79,0,3,0
BRDA:79,0,4,1
BRDA:79,e0,5,0
BRDA:79,0,6,1
BRDA:79,0,7,0
BRDA:79,0,8,1
BRDA:79,0,9,0
BRDA:81,0,0,1
BRDA:81,e0,1,0
BRDA:82,0,0,1
BRDA:82,e0,1,0
BRDA:82,0,2,1
BRDA:82,e0,3,0
BRDA:84,0,0,0
BRDA:84,0,1,1
BRDA:87,0,0,-
BRDA:87,e0,1,-
BRDA:89,0,0,-
BRDA:89,0,1,-
BRDA:91,0,0,-
BRDA:91,e0,1,-
BRDA:92,0,0,-
BRDA:92,e0,1,-
BRDA:92,0,2,-
BRDA:92,e0,3,-
BRDA:92,0,4,-
BRDA:92,e0,5,-
BRDA:94,0,0,-
BRDA:94,e0,1,-
BRDA:94,0,2,-
BRDA:94,e0,3,-
BRDA:94,0,4,-
BRDA:94,e0,5,-
BRDA:95,0,0,-
BRDA:95,e0,1,-
BRDA:95,0,2,-
BRDA:95,e0,3,-
BRDA:95,0,4,-
BRDA:95,e0,5,-
BRDA:103,0,0,0
BRDA:103,0,1,0
BRDA:116,0,0,2
BRDA:116,0,1,3
BRDA:123,0,0,3
BRDA:123,e0,1,0
BRDA:125,0,0,3
BRDA:125,e0,1,0
BRDA:125,0,2,1
BRDA:125,0,3,2
BRDA:130,0,0,2
BRDA:130,e0,1,0
BRDA:132,0,0,0
BRDA:132,0,1,2
BRDA:138,0,0,2
BRDA:138,e0,1,0
BRDA:138,0,2,2
BRDA:138,e0,3,0
BRDA:138,0,4,2
BRDA:138,e0,5,0
BRDA:139,0,0,2
BRDA:139,e0,1,0
BRDA:139,0,2,2
BRDA:139,e0,3,0
BRDA:139,0,4,2
BRDA:139,e0,5,0
BRDA:140,0,0,2
BRDA:140,e0,1,0
BRDA:140,0,2,2
BRDA:140,e0,3,0
BRDA:140,0,4,2
BRDA:140,e0,5,0
BRDA:141,0,0,2
BRDA:141,e0,1,0
BRDA:141,0,2,2
BRDA:141,e0,3,0
BRDA:141,0,4,2
BRDA:141,e0,5,0
BRDA:146,0,0,2
BRDA:146,e0,1,0
BRDA:146,0,2,1
BRDA:146,0,3,1
BRDA:148,0,0,1
BRDA:148,e0,1,0
BRDA:148,0,2,0
BRDA:148,e0,3,1
BRDA:149,0,0,-
BRDA:149,e0,1,-
BRDA:152,0,0,0
BRDA:152,0,1,1
BRDA:156,0,0,2
BRDA:156,e0,1,0
BRDA:167,0,0,0
BRDA:167,0,1,0
BRDA:175,0,0,3
BRDA:175,e0,1,0
BRDA:177,0,0,3
BRDA:177,e0,1,0
BRDA:177,0,2,2
BRDA:177,0,3,1
BRDA:184,0,0,1
BRDA:184,e0,1,0
BRDA:186,0,0,1
BRDA:186,e0,1,0
BRDA:186,0,2,0
BRDA:186,0,3,1
BRDA:186,0,4,0
BRDA:186,e0,5,0
BRDA:186,0,6,0
BRDA:186,0,7,0
BRDA:186,0,8,1
BRDA:186,0,9,0
BRDA:191,0,0,-
BRDA:191,e0,1,-
BRDA:192,0,0,-
BRDA:192,e0,1,-
BRDA:192,0,2,-
BRDA:192,e0,3,-
BRDA:194,0,0,-
BRDA:194,0,1,-
BRDA:200,0,0,-
BRDA:200,e0,1,-
BRDA:202,0,0,-
BRDA:202,0,1,-
BRDA:207,0,0,-
BRDA:207,e0,1,-
BRDA:208,0,0,-
BRDA:208,e0,1,-
BRDA:208,0,2,-
BRDA:208,e0,3,-
BRDA:208,0,4,-
BRDA:208,e0,5,-
BRDA:210,0,0,-
BRDA:210,e0,1,-
BRDA:218,0,0,0
BRDA:218,0,1,0
BRDA:226,0,0,3
BRDA:226,e0,1,0
BRDA:228,0,0,3
BRDA:228,e0,1,0
BRDA:228,0,2,1
BRDA:228,0,3,2
BRDA:235,0,0,2
BRDA:235,e0,1,0
BRDA:237,0,0,1
BRDA:237,0,1,1
BRDA:242,0,0,1
BRDA:242,e0,1,0
BRDA:244,0,0,1
BRDA:244,e0,1,0
BRDA:244,0,2,1
BRDA:244,0,3,0
BRDA:249,0,0,-
BRDA:249,e0,1,-
BRDA:251,0,0,-
BRDA:251,0,1,-
BRDA:257,0,0,-
BRDA:257,e0,1,-
BRDA:257,0,2,-
BRDA:257,e0,3,-
BRDA:260,0,0,-
BRDA:260,e0,1,-
BRDA:260,0,2,-
BRDA:260,e0,3,-
BRDA:260,0,4,-
BRDA:260,0,5,-
BRDA:261,0,0,-
BRDA:261,e0,1,-
BRDA:261,0,2,-
BRDA:261,e0,3,-
BRDA:262,0,0,-
BRDA:262,e0,1,-
BRDA:262,0,2,-
BRDA:262,e0,3,-
BRDA:264,0,0,-
BRDA:264,e0,1,-
BRDA:266,0,0,-
BRDA:266,e0,1,-
BRDA:268,0,0,-
BRDA:268,e0,1,-
BRDA:279,0,0,0
BRDA:279,0,1,0
BRDA:287,0,0,26
BRDA:287,e0,1,0
BRDA:290,0,0,26
BRDA:290,e0,1,0
BRDA:292,0,0,26
BRDA:292,e0,1,0
BRDA:301,0,0,3
BRDA:301,0,1,31
BRDA:303,0,0,3
BRDA:303,e0,1,0
BRDA:306,0,0,31
BRDA:306,e0,1,0
BRDA:314,0,0,2
BRDA:314,e0,1,0
BRDA:316,0,0,1
BRDA:316,0,1,1
BRDA:321,0,0,1
BRDA:321,e0,1,0
BRDA:322,0,0,1
BRDA:322,e0,1,0
BRDA:324,0,0,1
BRDA:324,e0,1,0
BRDA:326,0,0,1
BRDA:326,e0,1,0
BRDA:326,0,2,1
BRDA:326,e0,3,0
BRDA:326,0,4,0
BRDA:326,0,5,1
BRDA:337,0,0,-
BRDA:337,e0,1,-
BRDA:339,0,0,-
BRDA:339,0,1,-
BRDA:344,0,0,-
BRDA:344,e0,1,-
BRDA:346,0,0,-
BRDA:346,e0,1,-
BRF:296
BRH:111
DA:22,22
DA:24,22
DA:26,22
DA:28,22
DA:30,5
DA:32,5
DA:34,2
DA:37,3
DA:41,3
DA:43,3
DA:45,1
DA:48,2
DA:50,2
DA:52,4
DA:53,4
DA:54,4
DA:55,4
DA:56,2
DA:59,2
DA:61,2
DA:64,2
DA:65,6
DA:68,2
DA:69,6
DA:73,2
DA:75,2
DA:77,1
DA:79,1
DA:81,1
DA:82,1
DA:84,1
DA:87,0
DA:89,0
DA:91,0
DA:92,0
DA:94,0
DA:95,0
DA:96,0
DA:98,1
DA:99,1
DA:101,2
DA:102,3
DA:103,0
DA:105,0
DA:106,0
DA:107,3
DA:109,26
DA:111,26
DA:114,5
DA:116,5
DA:118,2
DA:123,3
DA:125,3
DA:127,1
DA:130,2
DA:132,2
DA:134,0
DA:138,2
DA:139,2
DA:140,2
DA:141,2
DA:146,2
DA:148,2
DA:149,0
DA:152,1
DA:154,1
DA:156,2
DA:165,2
DA:166,3
DA:167,0
DA:169,0
DA:170,0
DA:173,3
DA:175,3
DA:177,3
DA:179,2
DA:184,1
DA:186,1
DA:188,1
DA:191,0
DA:192,0
DA:194,0
DA:196,0
DA:200,0
DA:202,0
DA:204,0
DA:207,0
DA:208,0
DA:210,0
DA:216,0
DA:217,0
DA:218,0
DA:220,0
DA:221,0
DA:222,3
DA:224,3
DA:226,3
DA:228,3
DA:230,1
DA:235,2
DA:237,2
DA:239,1
DA:242,1
DA:244,1
DA:246,1
DA:249,0
DA:251,0
DA:253,0
DA:257,0
DA:260,0
DA:261,0
DA:262,0
DA:263,0
DA:264,0
DA:266,0
DA:268,0
DA:277,0
DA:278,2
DA:279,0
DA:281,0
DA:282,0
DA:283,3
DA:285,26
DA:287,26
DA:290,52
DA:292,26
DA:294,78
DA:295,26
DA:297,34
DA:299,34
DA:301,34
DA:303,6
DA:306,31
DA:307,31
DA:309,31
DA:310,31
DA:312,2
DA:314,2
DA:316,2
DA:318,1
DA:321,1
DA:322,1
DA:324,1
DA:326,1
DA:328,0
DA:331,1
DA:332,2
DA:334,0
DA:337,0
DA:339,0
DA:341,0
DA:344,0
DA:346,0
DA:347,0
LF:154
LH:101
end_of_record
TN:
SF:/home/duong/MediaPlayerApp/src/services/SerialCommunication.cpp
FN:141,165,_ZN12media_player8services19SerialCommunication5closeEv
FN:167,170,_ZNK12media_player8services19SerialCommunication6isOpenEv
FN:17,22,_ZN12media_player8services19SerialCommunicationC2Ev
FN:172,191,_ZN12media_player8services19SerialCommunication8sendDataERKNSt7__cxx1112basic_stringIcSt11char_traitsIcESaIcEEE
FN:193,212,_ZN12media_player8services19SerialCommunication8readDataB5cxx11Ev
FN:214,217,_ZN12media_player8services19SerialCommunication15setDataCallbackESt8functionIFvRKNSt7__cxx1112basic_stringIcSt11char_traitsIcESaIcEEEEE
FN:219,222,_ZN12media_player8services19SerialCommunication16setErrorCallbackESt8functionIFvRKNSt7__cxx1112basic_stringIcSt11char_traitsIcESaIcEEEEE
FN:224,283,_ZN12media_player8services19SerialCommunication10readThreadEv
FN:24,27,_ZN12media_player8services19SerialCommunicationD0Ev
FN:24,27,_ZN12media_player8services19SerialCommunicationD2Ev
FN:285,291,_ZN12media_player8services19SerialCommunication10notifyDataERKNSt7__cxx1112basic_stringIcSt11char_traitsIcESaIcEEE
FN:29,139,_ZN12media_player8services19SerialCommunication4openERKNSt7__cxx1112basic_stringIcSt11char_traitsIcESaIcEEEi
FN:293,299,_ZN12media_player8services19SerialCommunication11notifyErrorERKNSt7__cxx1112basic_stringIcSt11char_traitsIcESaIcEEE
FNDA:7,_ZN12media_player8services19SerialCommunication5closeEv
FNDA:4,_ZNK12media_player8services19SerialCommunication6isOpenEv
FNDA:5,_ZN12media_player8services19SerialCommunicationC2Ev
FNDA:1,_ZN12media_player8services19SerialCommunication8sendDataERKNSt7__cxx1112basic_stringIcSt11char_traitsIcESaIcEEE
FNDA:0,_ZN12media_player8services19SerialCommunication8readDataB5cxx11Ev
FNDA:1,_ZN12media_player8services19SerialCommunication15setDataCallbackESt8functionIFvRKNSt7__cxx1112basic_stringIcSt11char_traitsIcESaIcEEEEE
FNDA:2,_ZN12media_player8services19SerialCommunication16setErrorCallbackESt8functionIFvRKNSt7__cxx1112basic_stringIcSt11char_traitsIcESaIcEEEEE
FNDA:4,_ZN12media_player8services19SerialCommunication10readThreadEv
FNDA:0,_ZN12media_player8services19SerialCommunicationD0Ev
FNDA:5,_ZN12media_player8services19SerialCommunicationD2Ev
FNDA:1,_ZN12media_player8services19SerialCommunication10notifyDataERKNSt7__cxx1112basic_stringIcSt11char_traitsIcESaIcEEE
FNDA:7,_ZN12media_player8services19SerialCommunication4openERKNSt7__cxx1112basic_stringIcSt11char_traitsIcESaIcEEEi
FNDA:2,_ZN12media_player8services19SerialCommunication11notifyErrorERKNSt7__cxx1112basic_stringIcSt11char_traitsIcESaIcEEE
FNF:13
FNH:11
BRDA:31,0,0,7
BRDA:31,e0,1,0
BRDA:33,0,0,1
BRDA:33,0,1,6
BRDA:41,0,0,6
BRDA:41,e0,1,0
BRDA:41,0,2,1
BRDA:41,0,3,5
BRDA:43,0,0,1
BRDA:43,e0,1,0
BRDA:44,0,0,0
BRDA:44,0,1,1
BRDA:46,0,0,-
BRDA:46,e0,1,-
BRDA:46,0,2,-
BRDA:46,e0,3,-
BRDA:46,0,4,-
BRDA:46,e0,5,-
BRDA:46,0,6,-
BRDA:46,e0,7,-
BRDA:48,0,0,1
BRDA:48,e0,1,0
BRDA:48,0,2,1
BRDA:48,e0,3,0
BRDA:56,0,0,5
BRDA:56,e0,1,0
BRDA:57,0,0,5
BRDA:57,0,1,0
BRDA:57,0,2,1
BRDA:57,0,3,4
BRDA:61,0,0,0
BRDA:61,0,1,5
BRDA:64,0,0,-
BRDA:64,e0,1,-
BRDA:64,0,2,-
BRDA:64,e0,3,-
BRDA:69,0,0,5
BRDA:69,e0,1,0
BRDA:71,0,0,1
BRDA:71,0,1,4
BRDA:77,0,0,1
BRDA:77,e0,1,0
BRDA:77,0,2,1
BRDA:77,e0,3,0
BRDA:77,0,4,1
BRDA:77,e0,5,0
BRDA:84,0,0,0
BRDA:84,0,1,4
BRDA:86,0,0,-
BRDA:86,e0,1,-
BRDA:94,0,0,0
BRDA:94,0,1,0
BRDA:94,0,2,0
BRDA:94,0,3,0
BRDA:94,0,4,4
BRDA:94,0,5,0
BRDA:124,0,0,0
BRDA:124,0,1,4
BRDA:126,0,0,-
BRDA:126,e0,1,-
BRDA:135,0,0,4
BRDA:135,e0,1,0
BRDA:143,0,0,3
BRDA:143,0,1,4
BRDA:151,0,0,4
BRDA:151,0,1,0
BRDA:151,0,2,4
BRDA:151,0,3,0
BRDA:151,0,4,4
BRDA:151,0,5,0
BRDA:153,0,0,4
BRDA:153,e0,1,0
BRDA:156,0,0,4
BRDA:156,e0,1,0
BRDA:158,0,0,4
BRDA:158,0,1,0
BRDA:160,0,0,4
BRDA:160,e0,1,0
BRDA:174,0,0,1
BRDA:174,e0,1,0
BRDA:176,0,0,1
BRDA:176,0,1,0
BRDA:176,0,2,0
BRDA:176,0,3,1
BRDA:176,0,4,0
BRDA:176,0,5,1
BRDA:181,0,0,1
BRDA:181,e0,1,0
BRDA:183,0,0,0
BRDA:183,0,1,1
BRDA:185,0,0,-
BRDA:185,e0,1,-
BRDA:185,0,2,-
BRDA:185,e0,3,-
BRDA:195,0,0,-
BRDA:195,e0,1,-
BRDA:197,0,0,-
BRDA:197,0,1,-
BRDA:197,0,2,-
BRDA:197,0,3,-
BRDA:197,0,4,-
BRDA:197,0,5,-
BRDA:199,0,0,-
BRDA:199,e0,1,-
BRDA:203,0,0,-
BRDA:203,e0,1,-
BRDA:205,0,0,-
BRDA:205,0,1,-
BRDA:208,0,0,-
BRDA:208,e0,1,-
BRDA:211,0,0,-
BRDA:211,e0,1,-
BRDA:228,0,0,10
BRDA:228,0,1,4
BRDA:235,0,0,10
BRDA:235,e0,1,0
BRDA:237,0,0,10
BRDA:237,0,1,0
BRDA:237,0,2,0
BRDA:237,0,3,10
BRDA:237,0,4,0
BRDA:237,0,5,10
BRDA:240,0,0,-
BRDA:240,0,1,-
BRDA:250,0,0,10
BRDA:250,e0,1,0
BRDA:252,0,0,10
BRDA:252,0,1,0
BRDA:255,0,0,10
BRDA:255,0,1,0
BRDA:257,0,0,1
BRDA:257,0,1,9
BRDA:260,0,0,1
BRDA:260,e0,1,0
BRDA:262,0,0,1
BRDA:262,e0,1,0
BRDA:264,0,0,9
BRDA:264,0,1,0
BRDA:266,0,0,0
BRDA:266,0,1,9
BRDA:266,0,2,0
BRDA:266,0,3,0
BRDA:268,0,0,-
BRDA:268,e0,1,-
BRDA:268,0,2,-
BRDA:268,e0,3,-
BRDA:270,0,0,-
BRDA:270,e0,1,-
BRDA:277,0,0,-
BRDA:277,e0,1,-
BRDA:281,0,0,10
BRDA:281,e0,1,0
BRDA:287,0,0,1
BRDA:287,0,1,0
BRDA:295,0,0,1
BRDA:295,0,1,1
BRF:156
BRH:59
DA:17,5
DA:18,5
DA:19,5
DA:20,5
DA:22,5
DA:24,5
DA:26,5
DA:27,5
DA:29,7
DA:31,7
DA:33,7
DA:35,1
DA:40,6
DA:41,6
DA:43,1
DA:44,1
DA:46,0
DA:48,1
DA:49,1
DA:50,1
DA:52,5
DA:56,5
DA:57,5
DA:61,5
DA:63,0
DA:64,0
DA:65,0
DA:69,5
DA:71,5
DA:73,1
DA:77,1
DA:78,1
DA:84,4
DA:86,0
DA:87,0
DA:88,0
DA:92,4
DA:94,4
DA:96,0
DA:97,0
DA:98,0
DA:99,0
DA:100,4
DA:101,0
DA:102,0
DA:105,4
DA:106,4
DA:109,4
DA:110,4
DA:111,4
DA:112,4
DA:115,4
DA:118,4
DA:121,4
DA:124,4
DA:126,0
DA:127,0
DA:128,0
DA:131,4
DA:132,4
DA:135,4
DA:138,4
DA:139,7
DA:141,7
DA:143,7
DA:145,3
DA:149,4
DA:151,4
DA:153,4
DA:156,4
DA:158,4
DA:160,4
DA:161,4
DA:164,4
DA:165,4
DA:167,4
DA:169,4
DA:172,1
DA:174,1
DA:176,1
DA:178,0
DA:181,1
DA:183,1
DA:185,0
DA:186,0
DA:190,1
DA:191,1
DA:193,0
DA:195,0
DA:197,0
DA:199,0
DA:203,0
DA:205,0
DA:207,0
DA:208,0
DA:211,0
DA:212,0
DA:214,1
DA:216,1
DA:217,1
DA:219,2
DA:221,2
DA:222,2
DA:224,4
DA:228,14
DA:230,10
DA:231,10
DA:235,10
DA:237,10
DA:240,0
DA:247,10
DA:250,10
DA:252,10
DA:255,10
DA:257,10
DA:259,1
DA:260,1
DA:262,1
DA:263,1
DA:264,9
DA:266,9
DA:268,0
DA:270,0
DA:277,0
DA:281,10
DA:283,4
DA:285,1
DA:287,1
DA:289,1
DA:291,1
DA:293,2
DA:295,2
DA:297,1
DA:299,2
LF:134
LH:101
end_of_record
TN:
SF:/usr/include/c++/13/atomic
FN:233,239,_ZNSt6atomicIN12media_player8services13PlaybackStateEEC2ES2_
FN:241,242,_ZNKSt6atomicIN12media_player8services13PlaybackStateEEcvS2_Ev
FN:248,249,_ZNSt6atomicIN12media_player8services13PlaybackStateEEaSES2_
FN:277,282,_ZNSt6atomicIN12media_player8services13PlaybackStateEE5storeES2_St12memory_order
FN:293,299,_ZNKSt6atomicIN12media_player8services13PlaybackStateEE4loadESt12memory_order
FN:76,76,_ZNSt6atomicIbEC2Eb
FN:79,80,_ZNSt6atomicIbEaSEb
FN:833,833,_ZNSt6atomicIiEC2Ei
FN:86,87,_ZNKSt6atomicIbEcvbEv
FNDA:47,_ZNSt6atomicIN12media_player8services13PlaybackStateEEC2ES2_
FNDA:86,_ZNKSt6atomicIN12media_player8services13PlaybackStateEEcvS2_Ev
FNDA:8,_ZNSt6atomicIN12media_player8services13PlaybackStateEEaSES2_
FNDA:8,_ZNSt6atomicIN12media_player8services13PlaybackStateEE5storeES2_St12memory_order
FNDA:86,_ZNKSt6atomicIN12media_player8services13PlaybackStateEE4loadESt12memory_order
FNDA:0,_ZNSt6atomicIbEC2Eb
FNDA:0,_ZNSt6atomicIbEaSEb
FNDA:141,_ZNSt6atomicIiEC2Ei
FNDA:0,_ZNKSt6atomicIbEcvbEv
FNF:9
FNH:6
DA:76,0
DA:79,0
DA:80,0
DA:86,0
DA:87,0
DA:233,47
DA:239,47
DA:241,86
DA:242,86
DA:248,8
DA:249,8
DA:277,8
DA:279,8
DA:280,8
DA:282,8
DA:293,86
DA:296,86
DA:297,86
DA:298,86
DA:833,141
LF:20
LH:15
end_of_record
TN:
SF:/usr/include/c++/13/bits/alloc_traits.h
FNF:0
FNH:0
BRDA:948,0,0,0
BRDA:948,e0,1,0
BRF:2
BRH:0
DA:482,0
DA:517,0
DA:538,0
DA:542,0
DA:562,0
DA:574,0
DA:588,0
DA:722,0
DA:948,13
DA:949,0
LF:10
LH:1
end_of_record
TN:
SF:/usr/include/c++/13/bits/allocated_ptr.h
FN:53,55,_ZNSt15__allocated_ptrISaISt10_List_nodeIPN6TagLib5ID3v25FrameEEEEC2ERS6_PS5_
FN:71,75,_ZNSt15__allocated_ptrISaISt10_List_nodeIPN6TagLib5ID3v25FrameEEEED2Ev
FN:79,83,_ZNSt15__allocated_ptrISaISt10_List_nodeIPN6TagLib5ID3v25FrameEEEEaSEDn
FNDA:0,_ZNSt15__allocated_ptrISaISt10_List_nodeIPN6TagLib5ID3v25FrameEEEEC2ERS6_PS5_
FNDA:0,_ZNSt15__allocated_ptrISaISt10_List_nodeIPN6TagLib5ID3v25FrameEEEED2Ev
FNDA:0,_ZNSt15__allocated_ptrISaISt10_List_nodeIPN6TagLib5ID3v25FrameEEEEaSEDn
FNF:3
FNH:0
BRDA:73,0,0,-
BRDA:73,0,1,-
BRF:2
BRH:0
DA:53,0
DA:54,0
DA:55,0
DA:71,0
DA:73,0
DA:74,0
DA:75,0
DA:79,0
DA:81,0
DA:82,0
LF:10
LH:0
end_of_record
TN:
SF:/usr/include/c++/13/bits/allocator.h
FNF:0
FNH:0
DA:163,0
DA:168,0
DA:184,0
DA:223,0
LF:4
LH:0
end_of_record
TN:
SF:/usr/include/c++/13/bits/atomic_base.h
FN:107,110,_ZStanSt12memory_orderSt23__memory_order_modifier
FN:362,362,_ZNSt13__atomic_baseIbEC2Eb
FN:362,362,_ZNSt13__atomic_baseIiEC2Ei
FN:364,365,_ZNKSt13__atomic_baseIiEcviEv
FN:371,375,_ZNSt13__atomic_baseIbEaSEb
FN:371,375,_ZNSt13__atomic_baseIiEaSEi
FNDA:0,_ZStanSt12memory_orderSt23__memory_order_modifier
FNDA:0,_ZNSt13__atomic_baseIbEC2Eb
FNDA:141,_ZNSt13__atomic_baseIiEC2Ei
FNDA:0,_ZNKSt13__atomic_baseIiEcviEv
FNDA:0,_ZNSt13__atomic_baseIbEaSEb
FNDA:0,_ZNSt13__atomic_baseIiEaSEi
FNF:6
FNH:1
BRDA:477,0,0,-
BRDA:477,0,1,-
BRDA:477,0,2,-
BRDA:477,0,3,-
BRDA:477,0,4,-
BRDA:477,0,5,-
BRDA:477,0,6,-
BRDA:477,0,7,-
BRDA:477,0,8,-
BRDA:477,0,9,-
BRDA:477,0,10,-
BRDA:477,0,11,-
BRDA:478,0,0,-
BRDA:478,0,1,-
BRDA:478,0,2,-
BRDA:478,0,3,-
BRDA:478,0,4,-
BRDA:478,0,5,-
BRDA:478,0,6,-
BRDA:478,0,7,-
BRDA:478,0,8,-
BRDA:478,0,9,-
BRDA:478,0,10,-
BRDA:478,0,11,-
BRDA:479,0,0,-
BRDA:479,0,1,-
BRDA:479,0,2,-
BRDA:479,0,3,-
BRDA:479,0,4,-
BRDA:479,0,5,-
BRDA:479,0,6,-
BRDA:479,0,7,-
BRDA:479,0,8,-
BRDA:479,0,9,-
BRDA:479,0,10,-
BRDA:479,0,11,-
BRDA:502,0,0,-
BRDA:502,0,1,-
BRDA:502,0,2,-
BRDA:502,0,3,-
BRDA:502,0,4,-
BRDA:502,0,5,-
BRDA:502,0,6,-
BRDA:502,0,7,-
BRDA:502,0,8,-
BRDA:502,0,9,-
BRDA:502,0,10,-
BRDA:502,0,11,-
BRDA:503,0,0,-
BRDA:503,0,1,-
BRDA:503,0,2,-
BRDA:503,0,3,-
BRDA:503,0,4,-
BRDA:503,0,5,-
BRDA:503,0,6,-
BRDA:503,0,7,-
BRDA:503,0,8,-
BRDA:503,0,9,-
BRDA:503,0,10,-
BRDA:503,0,11,-
BRF:60
BRH:0
DA:107,0
DA:109,0
DA:362,141
DA:364,0
DA:365,0
DA:371,0
DA:373,0
DA:374,0
DA:476,0
DA:477,0
DA:478,0
DA:479,0
DA:481,0
DA:482,0
DA:501,0
DA:502,0
DA:503,0
DA:505,0
DA:978,8
DA:983,8
LF:20
LH:3
end_of_record
TN:
SF:/usr/include/c++/13/bits/basic_string.h
FN:3528,3541,_ZSt12__str_concatINSt7__cxx1112basic_stringIcSt11char_traitsIcESaIcEEEET_PKNS6_10value_typeENS6_9size_typeES9_SA_RKNS6_14allocator_typeE
FN:3571,3579,_ZStplIcSt11char_traitsIcESaIcEENSt7__cxx1112basic_stringIT_T0_T1_EEPKS5_RKS8_
FN:3674,3676,_ZStplIcSt11char_traitsIcESaIcEENSt7__cxx1112basic_stringIT_T0_T1_EEPKS5_OS8_
FN:3688,3690,_ZStplIcSt11char_traitsIcESaIcEENSt7__cxx1112basic_stringIT_T0_T1_EEOS8_PKS5_
FN:3710,3716,_ZSteqIcSt11char_traitsIcESaIcEEbRKNSt7__cxx1112basic_stringIT_T0_T1_EESA_
FN:3727,3732,_ZSteqIcSt11char_traitsIcESaIcEEbRKNSt7__cxx1112basic_stringIT_T0_T1_EEPKS5_
FN:3815,3817,_ZStneIcSt11char_traitsIcESaIcEEbRKNSt7__cxx1112basic_stringIT_T0_T1_EEPKS5_
FN:4130,4132,_ZNSt7__cxx115stoulERKNS_12basic_stringIcSt11char_traitsIcESaIcEEEPmi
FN:4162,4173,_ZNSt7__cxx119to_stringEi
FN:4177,4185,_ZNSt7__cxx119to_stringEj
FN:4204,4212,_ZNSt7__cxx119to_stringEm
FN:641,650,_ZNSt7__cxx1112basic_stringIcSt11char_traitsIcESaIcEEC2IS3_EEPKcRKS3_
FN:664,666,_ZNSt7__cxx1112basic_stringIcSt11char_traitsIcESaIcEEC2IS3_EEmcRKS3_
FN:795,796,_ZNSt7__cxx1112basic_stringIcSt11char_traitsIcESaIcEEC2ISt17basic_string_viewIcS2_EvEERKT_RKS3_
FNDA:0,_ZSt12__str_concatINSt7__cxx1112basic_stringIcSt11char_traitsIcESaIcEEEET_PKNS6_10value_typeENS6_9size_typeES9_SA_RKNS6_14allocator_typeE
FNDA:0,_ZStplIcSt11char_traitsIcESaIcEENSt7__cxx1112basic_stringIT_T0_T1_EEPKS5_RKS8_
FNDA:0,_ZStplIcSt11char_traitsIcESaIcEENSt7__cxx1112basic_stringIT_T0_T1_EEPKS5_OS8_
FNDA:0,_ZStplIcSt11char_traitsIcESaIcEENSt7__cxx1112basic_stringIT_T0_T1_EEOS8_PKS5_
FNDA:0,_ZSteqIcSt11char_traitsIcESaIcEEbRKNSt7__cxx1112basic_stringIT_T0_T1_EESA_
FNDA:0,_ZSteqIcSt11char_traitsIcESaIcEEbRKNSt7__cxx1112basic_stringIT_T0_T1_EEPKS5_
FNDA:6,_ZStneIcSt11char_traitsIcESaIcEEbRKNSt7__cxx1112basic_stringIT_T0_T1_EEPKS5_
FNDA:1,_ZNSt7__cxx115stoulERKNS_12basic_stringIcSt11char_traitsIcESaIcEEEPmi
FNDA:0,_ZNSt7__cxx119to_stringEi
FNDA:2,_ZNSt7__cxx119to_stringEj
FNDA:0,_ZNSt7__cxx119to_stringEm
FNDA:0,_ZNSt7__cxx1112basic_stringIcSt11char_traitsIcESaIcEEC2IS3_EEPKcRKS3_
FNDA:0,_ZNSt7__cxx1112basic_stringIcSt11char_traitsIcESaIcEEC2IS3_EEmcRKS3_
FNDA:0,_ZNSt7__cxx1112basic_stringIcSt11char_traitsIcESaIcEEC2ISt17basic_string_viewIcS2_EvEERKT_RKS3_
FNF:14
FNH:3
BRDA:645,0,0,-
BRDA:645,0,1,-
BRDA:648,0,0,-
BRDA:648,e0,1,-
BRDA:649,0,0,-
BRDA:649,e0,1,-
BRDA:666,0,0,-
BRDA:666,e0,1,-
BRDA:796,0,0,-
BRDA:796,e0,1,-
BRDA:3537,0,0,-
BRDA:3537,e0,1,-
BRDA:3538,0,0,-
BRDA:3538,e0,1,-
BRDA:3539,0,0,-
BRDA:3539,e0,1,-
BRDA:3578,0,0,-
BRDA:3578,e0,1,-
BRDA:3578,0,2,-
BRDA:3578,e0,3,-
BRDA:3715,0,0,-
BRDA:3715,0,1,-
BRDA:3715,0,2,-
BRDA:3715,0,3,-
BRDA:3731,0,0,-
BRDA:3731,0,1,-
BRDA:3731,0,2,-
BRDA:3731,0,3,-
BRDA:4168,0,0,-
BRDA:4168,0,1,-
BRDA:4209,0,0,-
BRDA:4209,e0,1,-
BRDA:4210,0,0,-
BRDA:4210,e0,1,-
BRF:34
BRH:0
DA:355,0
DA:641,0
DA:642,0
DA:645,0
DA:646,0
DA:648,0
DA:649,0
DA:650,0
DA:664,0
DA:665,0
DA:666,0
DA:795,0
DA:796,0
DA:3528,0
DA:3536,0
DA:3537,0
DA:3538,0
DA:3539,0
DA:3540,0
DA:3541,0
DA:3571,0
DA:3578,0
DA:3674,0
DA:3676,0
DA:3688,0
DA:3690,0
DA:3710,0
DA:3714,0
DA:3715,0
DA:3727,0
DA:3730,0
DA:3731,0
DA:3815,6
DA:3817,6
DA:4130,1
DA:4131,0
DA:4132,0
DA:4162,0
DA:4167,0
DA:4168,0
DA:4169,0
DA:4170,0
DA:4171,0
DA:4172,0
DA:4177,2
DA:4182,2
DA:4183,2
DA:4184,2
DA:4204,0
DA:4209,0
DA:4210,0
DA:4211,0
DA:4212,0
LF:53
LH:7
end_of_record
TN:
SF:/usr/include/c++/13/bits/basic_string.tcc
FN:221,252,_ZNSt7__cxx1112basic_stringIcSt11char_traitsIcESaIcEE12_M_constructIPKcEEvT_S8_St20forward_iterator_tag
FN:221,252,_ZNSt7__cxx1112basic_stringIcSt11char_traitsIcESaIcEE12_M_constructIPcEEvT_S7_St20forward_iterator_tag
FN:239,239,_ZZNSt7__cxx1112basic_stringIcSt11char_traitsIcESaIcEE12_M_constructIPKcEEvT_S8_St20forward_iterator_tagEN6_GuardC2EPS4_
FN:239,239,_ZZNSt7__cxx1112basic_stringIcSt11char_traitsIcESaIcEE12_M_constructIPcEEvT_S7_St20forward_iterator_tagEN6_GuardC2EPS4_
FN:242,242,_ZZNSt7__cxx1112basic_stringIcSt11char_traitsIcESaIcEE12_M_constructIPKcEEvT_S8_St20forward_iterator_tagEN6_GuardD2Ev
FN:242,242,_ZZNSt7__cxx1112basic_stringIcSt11char_traitsIcESaIcEE12_M_constructIPcEEvT_S7_St20forward_iterator_tagEN6_GuardD2Ev
FNDA:0,_ZNSt7__cxx1112basic_stringIcSt11char_traitsIcESaIcEE12_M_constructIPKcEEvT_S8_St20forward_iterator_tag
FNDA:0,_ZNSt7__cxx1112basic_stringIcSt11char_traitsIcESaIcEE12_M_constructIPcEEvT_S7_St20forward_iterator_tag
FNDA:0,_ZZNSt7__cxx1112basic_stringIcSt11char_traitsIcESaIcEE12_M_constructIPKcEEvT_S8_St20forward_iterator_tagEN6_GuardC2EPS4_
FNDA:0,_ZZNSt7__cxx1112basic_stringIcSt11char_traitsIcESaIcEE12_M_constructIPcEEvT_S7_St20forward_iterator_tagEN6_GuardC2EPS4_
FNDA:0,_ZZNSt7__cxx1112basic_stringIcSt11char_traitsIcESaIcEE12_M_constructIPKcEEvT_S8_St20forward_iterator_tagEN6_GuardD2Ev
FNDA:0,_ZZNSt7__cxx1112basic_stringIcSt11char_traitsIcESaIcEE12_M_constructIPcEEvT_S7_St20forward_iterator_tagEN6_GuardD2Ev
FNF:6
FNH:0
BRDA:227,0,0,-
BRDA:227,0,1,-
BRDA:229,0,0,-
BRDA:229,e0,1,-
BRDA:242,0,0,-
BRDA:242,0,1,-
BRF:6
BRH:0
DA:221,0
DA:225,0
DA:227,0
DA:229,0
DA:230,0
DA:239,0
DA:242,0
DA:245,0
DA:247,0
DA:249,0
DA:251,0
DA:252,0
LF:12
LH:0
end_of_record
TN:
SF:/usr/include/c++/13/bits/char_traits.h
FN:136,137,_ZN9__gnu_cxx11char_traitsIcE2eqERKcS3_
FN:199,206,_ZN9__gnu_cxx11char_traitsIcE6lengthEPKc
FN:366,371,_ZNSt11char_traitsIcE2ltERKcS2_
FN:374,390,_ZNSt11char_traitsIcE7compareEPKcS2_m
FN:393,400,_ZNSt11char_traitsIcE6lengthEPKc
FN:427,436,_ZNSt11char_traitsIcE4copyEPcPKcm
FNDA:0,_ZN9__gnu_cxx11char_traitsIcE2eqERKcS3_
FNDA:0,_ZN9__gnu_cxx11char_traitsIcE6lengthEPKc
FNDA:0,_ZNSt11char_traitsIcE2ltERKcS2_
FNDA:0,_ZNSt11char_traitsIcE7compareEPKcS2_m
FNDA:0,_ZNSt11char_traitsIcE6lengthEPKc
FNDA:0,_ZNSt11char_traitsIcE4copyEPcPKcm
FNF:6
FNH:0
BRDA:203,0,0,-
BRDA:203,0,1,-
BRDA:376,0,0,-
BRDA:376,0,1,-
BRDA:379,0,0,-
BRDA:379,0,1,-
BRDA:381,0,0,-
BRDA:381,0,1,-
BRDA:382,0,0,-
BRDA:382,0,1,-
BRDA:384,0,0,-
BRDA:384,0,1,-
BRDA:396,0,0,-
BRDA:396,0,1,-
BRDA:429,0,0,-
BRDA:429,0,1,-
BRF:16
BRH:0
DA:136,0
DA:137,0
DA:199,0
DA:202,0
DA:203,0
DA:204,0
DA:205,0
DA:366,0
DA:369,0
DA:370,0
DA:374,0
DA:376,0
DA:377,0
DA:379,0
DA:381,0
DA:382,0
DA:383,0
DA:384,0
DA:385,0
DA:386,0
DA:389,0
DA:393,0
DA:396,0
DA:397,0
DA:399,0
DA:427,0
DA:429,0
DA:430,0
DA:435,0
LF:29
LH:0
end_of_record
TN:
SF:/usr/include/c++/13/bits/charconv.h
FN:55,74,_ZNSt8__detail14__to_chars_lenIjEEjT_i
FN:55,74,_ZNSt8__detail14__to_chars_lenImEEjT_i
FN:81,110,_ZNSt8__detail18__to_chars_10_implIjEEvPcjT_
FN:81,110,_ZNSt8__detail18__to_chars_10_implImEEvPcjT_
FNDA:0,_ZNSt8__detail14__to_chars_lenIjEEjT_i
FNDA:0,_ZNSt8__detail14__to_chars_lenImEEjT_i
FNDA:0,_ZNSt8__detail18__to_chars_10_implIjEEvPcjT_
FNDA:0,_ZNSt8__detail18__to_chars_10_implImEEvPcjT_
FNF:4
FNH:0
BRDA:67,0,0,-
BRDA:67,0,1,-
BRDA:68,0,0,-
BRDA:68,0,1,-
BRDA:69,0,0,-
BRDA:69,0,1,-
BRDA:70,0,0,-
BRDA:70,0,1,-
BRDA:94,0,0,-
BRDA:94,0,1,-
BRDA:102,0,0,-
BRDA:102,0,1,-
BRF:12
BRH:0
DA:55,0
DA:61,0
DA:62,0
DA:63,0
DA:64,0
DA:67,0
DA:68,0
DA:69,0
DA:70,0
DA:71,0
DA:72,0
DA:81,0
DA:87,0
DA:93,0
DA:94,0
DA:96,0
DA:97,0
DA:98,0
DA:99,0
DA:100,0
DA:102,0
DA:104,0
DA:105,0
DA:106,0
DA:109,0
DA:110,0
LF:26
LH:0
end_of_record
TN:
SF:/usr/include/c++/13/bits/chrono.h
FN:208,213,_ZNSt6chrono20__duration_cast_implINS_8durationIlSt5ratioILl1ELl1EEEES2_ILl1ELl1000EElLb1ELb0EE6__castIlS5_EES4_RKNS1_IT_T0_EE
FN:221,226,_ZNSt6chrono20__duration_cast_implINS_8durationIlSt5ratioILl1ELl1000000000EEEES2_ILl1000000ELl1EElLb0ELb1EE6__castIlS2_ILl1ELl1000EEEES4_RKNS1_IT_T0_EE
FN:221,226,_ZNSt6chrono20__duration_cast_implINS_8durationIlSt5ratioILl1ELl1000EEEES2_ILl1000ELl1EElLb0ELb1EE6__castIlS2_ILl1ELl1EEEES4_RKNS1_IT_T0_EE
FN:273,291,_ZNSt6chrono13duration_castINS_8durationIlSt5ratioILl1ELl1000000000EEEElS2_ILl1ELl1000EEEENSt9enable_ifIXsrNS_13__is_durationIT_EE5valueES8_E4typeERKNS1_IT0_T1_EE
FN:273,291,_ZNSt6chrono13duration_castINS_8durationIlSt5ratioILl1ELl1000EEEElS2_ILl1ELl1EEEENSt9enable_ifIXsrNS_13__is_durationIT_EE5valueES8_E4typeERKNS1_IT0_T1_EE
FN:273,291,_ZNSt6chrono13duration_castINS_8durationIlSt5ratioILl1ELl1EEEElS2_ILl1ELl1000EEEENSt9enable_ifIXsrNS_13__is_durationIT_EE5valueES8_E4typeERKNS1_IT0_T1_EE
FN:498,499,_ZNSt6chrono15duration_valuesIlE4zeroEv
FN:573,574,_ZNSt6chrono8durationIlSt5ratioILl1ELl1000000000EEEC1IlvEERKT_
FN:573,574,_ZNSt6chrono8durationIlSt5ratioILl1ELl1000EEEC2IivEERKT_
FN:573,574,_ZNSt6chrono8durationIlSt5ratioILl1ELl1000EEEC2IlvEERKT_
FN:573,574,_ZNSt6chrono8durationIlSt5ratioILl1ELl1EEEC1IlvEERKT_
FN:581,582,_ZNSt6chrono8durationIlSt5ratioILl1ELl1000EEEC2IlS1_ILl1ELl1EEvEERKNS0_IT_T0_EE
FN:589,590,_ZNKSt6chrono8durationIlSt5ratioILl1ELl1000000000EEE5countEv
FN:589,590,_ZNKSt6chrono8durationIlSt5ratioILl1ELl1000EEE5countEv
FN:589,590,_ZNKSt6chrono8durationIlSt5ratioILl1ELl1EEE5countEv
FN:673,674,_ZNSt6chrono8durationIlSt5ratioILl1ELl1000EEE4zeroEv
FN:710,717,_ZNSt6chronomiIlSt5ratioILl1ELl1000EElS1_ILl1ELl1EEEENSt11common_typeIJNS_8durationIT_T0_EENS5_IT1_T2_EEEE4typeERKS8_RKSB_
FN:822,829,_ZNSt6chronoltIlSt5ratioILl1ELl1000EElS2_EEbRKNS_8durationIT_T0_EERKNS3_IT1_T2_EE
FN:855,857,_ZNSt6chronoleIlSt5ratioILl1ELl1000EElS2_EEbRKNS_8durationIT_T0_EERKNS3_IT1_T2_EE
FNDA:0,_ZNSt6chrono20__duration_cast_implINS_8durationIlSt5ratioILl1ELl1EEEES2_ILl1ELl1000EElLb1ELb0EE6__castIlS5_EES4_RKNS1_IT_T0_EE
FNDA:0,_ZNSt6chrono20__duration_cast_implINS_8durationIlSt5ratioILl1ELl1000000000EEEES2_ILl1000000ELl1EElLb0ELb1EE6__castIlS2_ILl1ELl1000EEEES4_RKNS1_IT_T0_EE
FNDA:0,_ZNSt6chrono20__duration_cast_implINS_8durationIlSt5ratioILl1ELl1000EEEES2_ILl1000ELl1EElLb0ELb1EE6__castIlS2_ILl1ELl1EEEES4_RKNS1_IT_T0_EE
FNDA:0,_ZNSt6chrono13duration_castINS_8durationIlSt5ratioILl1ELl1000000000EEEElS2_ILl1ELl1000EEEENSt9enable_ifIXsrNS_13__is_durationIT_EE5valueES8_E4typeERKNS1_IT0_T1_EE
FNDA:0,_ZNSt6chrono13duration_castINS_8durationIlSt5ratioILl1ELl1000EEEElS2_ILl1ELl1EEEENSt9enable_ifIXsrNS_13__is_durationIT_EE5valueES8_E4typeERKNS1_IT0_T1_EE
FNDA:0,_ZNSt6chrono13duration_castINS_8durationIlSt5ratioILl1ELl1EEEElS2_ILl1ELl1000EEEENSt9enable_ifIXsrNS_13__is_durationIT_EE5valueES8_E4typeERKNS1_IT0_T1_EE
FNDA:0,_ZNSt6chrono15duration_valuesIlE4zeroEv
FNDA:0,_ZNSt6chrono8durationIlSt5ratioILl1ELl1000000000EEEC1IlvEERKT_
FNDA:0,_ZNSt6chrono8durationIlSt5ratioILl1ELl1000EEEC2IivEERKT_
FNDA:0,_ZNSt6chrono8durationIlSt5ratioILl1ELl1000EEEC2IlvEERKT_
FNDA:0,_ZNSt6chrono8durationIlSt5ratioILl1ELl1EEEC1IlvEERKT_
FNDA:0,_ZNSt6chrono8durationIlSt5ratioILl1ELl1000EEEC2IlS1_ILl1ELl1EEvEERKNS0_IT_T0_EE
FNDA:0,_ZNKSt6chrono8durationIlSt5ratioILl1ELl1000000000EEE5countEv
FNDA:0,_ZNKSt6chrono8durationIlSt5ratioILl1ELl1000EEE5countEv
FNDA:0,_ZNKSt6chrono8durationIlSt5ratioILl1ELl1EEE5countEv
FNDA:0,_ZNSt6chrono8durationIlSt5ratioILl1ELl1000EEE4zeroEv
FNDA:0,_ZNSt6chronomiIlSt5ratioILl1ELl1000EElS1_ILl1ELl1EEEENSt11common_typeIJNS_8durationIT_T0_EENS5_IT1_T2_EEEE4typeERKS8_RKSB_
FNDA:0,_ZNSt6chronoltIlSt5ratioILl1ELl1000EElS2_EEbRKNS_8durationIT_T0_EERKNS3_IT1_T2_EE
FNDA:0,_ZNSt6chronoleIlSt5ratioILl1ELl1000EElS2_EEbRKNS_8durationIT_T0_EERKNS3_IT1_T2_EE
FNF:19
FNH:0
BRDA:582,0,0,-
BRDA:582,e0,1,-
BRDA:716,0,0,-
BRDA:716,e0,1,-
BRF:4
BRH:0
DA:208,0
DA:211,0
DA:212,0
DA:221,0
DA:224,0
DA:225,0
DA:273,0
DA:287,0
DA:498,0
DA:499,0
DA:573,0
DA:574,0
DA:581,0
DA:582,0
DA:589,0
DA:590,0
DA:673,0
DA:674,0
DA:710,0
DA:716,0
DA:822,0
DA:828,0
DA:855,0
DA:857,0
LF:24
LH:0
end_of_record
TN:
SF:/usr/include/c++/13/bits/cpp_type_traits.h
FN:607,608,_ZSt12__miter_baseIN9__gnu_cxx17__normal_iteratorIPKNSt7__cxx1112basic_stringIcSt11char_traitsIcESaIcEEESt6vectorIS7_SaIS7_EEEEET_SE_
FN:607,608,_ZSt12__miter_baseIN9__gnu_cxx17__normal_iteratorIPcSt6vectorIcSaIcEEEEET_S7_
FN:607,608,_ZSt12__miter_baseIPNSt7__cxx1112basic_stringIcSt11char_traitsIcESaIcEEEET_S7_
FNDA:0,_ZSt12__miter_baseIN9__gnu_cxx17__normal_iteratorIPKNSt7__cxx1112basic_stringIcSt11char_traitsIcESaIcEEESt6vectorIS7_SaIS7_EEEEET_SE_
FNDA:0,_ZSt12__miter_baseIN9__gnu_cxx17__normal_iteratorIPcSt6vectorIcSaIcEEEEET_S7_
FNDA:0,_ZSt12__miter_baseIPNSt7__cxx1112basic_stringIcSt11char_traitsIcESaIcEEEET_S7_
FNF:3
FNH:0
DA:607,0
DA:608,0
LF:2
LH:0
end_of_record
TN:
SF:/usr/include/c++/13/bits/fs_dir.h
FN:169,169,_ZNKSt10filesystem7__cxx1115directory_entry4pathEv
FN:197,198,_ZNKSt10filesystem7__cxx1115directory_entry12is_directoryEv
FN:221,222,_ZNKSt10filesystem7__cxx1115directory_entry15is_regular_fileEv
FN:278,279,_ZNKSt10filesystem7__cxx1115directory_entry6statusEv
FN:342,347,_ZNKSt10filesystem7__cxx1115directory_entry12_M_file_typeEv
FN:403,403,_ZNSt10filesystem7__cxx1118directory_iteratorC2Ev
FN:406,407,_ZNSt10filesystem7__cxx1118directory_iteratorC2ERKNS0_4pathE
FN:419,419,_ZNSt10filesystem7__cxx1118directory_iteratorC2ERKS1_
FN:421,421,_ZNSt10filesystem7__cxx1118directory_iteratorC2EOS1_
FN:423,423,_ZNSt10filesystem7__cxx1118directory_iteratorD2Ev
FN:444,449,_ZNSt10filesystem7__cxx11eqERKNS0_18directory_iteratorES3_
FN:460,462,_ZNSt10filesystem7__cxx11neERKNS0_18directory_iteratorES3_
FN:484,485,_ZNSt10filesystem7__cxx115beginENS0_18directory_iteratorE
FN:489,490,_ZNSt10filesystem7__cxx113endENS0_18directory_iteratorE
FN:507,507,_ZNSt10filesystem7__cxx1128recursive_directory_iteratorC2Ev
FN:513,514,_ZNSt10filesystem7__cxx1128recursive_directory_iteratorC2ERKNS0_4pathENS_17directory_optionsE
FN:523,523,_ZNSt10filesystem7__cxx1128recursive_directory_iteratorC2ERKS1_
FN:526,526,_ZNSt10filesystem7__cxx1128recursive_directory_iteratorC2EOS1_
FN:560,565,_ZNSt10filesystem7__cxx11eqERKNS0_28recursive_directory_iteratorES3_
FN:576,578,_ZNSt10filesystem7__cxx11neERKNS0_28recursive_directory_iteratorES3_
FN:607,608,_ZNSt10filesystem7__cxx115beginENS0_28recursive_directory_iteratorE
FN:612,613,_ZNSt10filesystem7__cxx113endENS0_28recursive_directory_iteratorE
FN:77,77,_ZNKSt10filesystem11file_status4typeEv
FNDA:0,_ZNKSt10filesystem7__cxx1115directory_entry4pathEv
FNDA:0,_ZNKSt10filesystem7__cxx1115directory_entry12is_directoryEv
FNDA:0,_ZNKSt10filesystem7__cxx1115directory_entry15is_regular_fileEv
FNDA:0,_ZNKSt10filesystem7__cxx1115directory_entry6statusEv
FNDA:0,_ZNKSt10filesystem7__cxx1115directory_entry12_M_file_typeEv
FNDA:0,_ZNSt10filesystem7__cxx1118directory_iteratorC2Ev
FNDA:0,_ZNSt10filesystem7__cxx1118directory_iteratorC2ERKNS0_4pathE
FNDA:0,_ZNSt10filesystem7__cxx1118directory_iteratorC2ERKS1_
FNDA:0,_ZNSt10filesystem7__cxx1118directory_iteratorC2EOS1_
FNDA:0,_ZNSt10filesystem7__cxx1118directory_iteratorD2Ev
FNDA:0,_ZNSt10filesystem7__cxx11eqERKNS0_18directory_iteratorES3_
FNDA:0,_ZNSt10filesystem7__cxx11neERKNS0_18directory_iteratorES3_
FNDA:0,_ZNSt10filesystem7__cxx115beginENS0_18directory_iteratorE
FNDA:0,_ZNSt10filesystem7__cxx113endENS0_18directory_iteratorE
FNDA:9,_ZNSt10filesystem7__cxx1128recursive_directory_iteratorC2Ev
FNDA:9,_ZNSt10filesystem7__cxx1128recursive_directory_iteratorC2ERKNS0_4pathENS_17directory_optionsE
FNDA:18,_ZNSt10filesystem7__cxx1128recursive_directory_iteratorC2ERKS1_
FNDA:9,_ZNSt10filesystem7__cxx1128recursive_directory_iteratorC2EOS1_
FNDA:73,_ZNSt10filesystem7__cxx11eqERKNS0_28recursive_directory_iteratorES3_
FNDA:73,_ZNSt10filesystem7__cxx11neERKNS0_28recursive_directory_iteratorES3_
FNDA:9,_ZNSt10filesystem7__cxx115beginENS0_28recursive_directory_iteratorE
FNDA:9,_ZNSt10filesystem7__cxx113endENS0_28recursive_directory_iteratorE
FNDA:0,_ZNKSt10filesystem11file_status4typeEv
FNF:23
FNH:8
BRDA:344,0,0,-
BRDA:344,0,1,-
BRDA:344,0,2,-
BRDA:344,0,3,-
BRDA:346,0,0,-
BRDA:346,e0,1,-
BRDA:448,0,0,-
BRDA:448,0,1,-
BRDA:448,0,2,-
BRDA:448,0,3,-
BRDA:564,0,0,9
BRDA:564,0,1,64
BRDA:564,0,2,9
BRDA:564,0,3,0
BRF:14
BRH:3
DA:77,0
DA:169,0
DA:197,0
DA:198,0
DA:221,0
DA:222,0
DA:278,0
DA:279,0
DA:342,0
DA:344,0
DA:345,0
DA:346,0
DA:403,0
DA:406,0
DA:407,0
DA:419,0
DA:421,0
DA:423,0
DA:444,0
DA:447,0
DA:448,0
DA:460,0
DA:462,0
DA:484,0
DA:485,0
DA:489,0
DA:490,0
DA:507,9
DA:513,9
DA:514,9
DA:523,18
DA:526,9
DA:560,73
DA:563,73
DA:564,73
DA:576,73
DA:578,73
DA:607,9
DA:608,9
DA:612,9
DA:613,9
LF:41
LH:14
end_of_record
TN:
SF:/usr/include/c++/13/bits/fs_ops.h
FN:128,129,_ZNSt10filesystem6existsENS_11file_statusE
FN:133,134,_ZNSt10filesystem6existsERKNS_7__cxx114pathE
FN:138,147,_ZNSt10filesystem6existsERKNS_7__cxx114pathERSt10error_code
FN:178,179,_ZNSt10filesystem17is_character_fileENS_11file_statusE
FN:193,194,_ZNSt10filesystem12is_directoryENS_11file_statusE
FN:198,199,_ZNSt10filesystem12is_directoryERKNS_7__cxx114pathE
FN:363,364,_ZNSt10filesystem12status_knownENS_11file_statusE
FNDA:0,_ZNSt10filesystem6existsENS_11file_statusE
FNDA:0,_ZNSt10filesystem6existsERKNS_7__cxx114pathE
FNDA:6,_ZNSt10filesystem6existsERKNS_7__cxx114pathERSt10error_code
FNDA:5,_ZNSt10filesystem17is_character_fileENS_11file_statusE
FNDA:0,_ZNSt10filesystem12is_directoryENS_11file_statusE
FNDA:0,_ZNSt10filesystem12is_directoryERKNS_7__cxx114pathE
FNDA:0,_ZNSt10filesystem12status_knownENS_11file_statusE
FNF:7
FNH:2
BRDA:129,0,0,-
BRDA:129,0,1,-
BRDA:129,0,2,-
BRDA:129,0,3,-
BRDA:141,0,0,6
BRDA:141,0,1,0
BRF:6
BRH:1
DA:128,0
DA:129,0
DA:133,0
DA:134,0
DA:138,6
DA:140,6
DA:141,6
DA:143,6
DA:144,6
DA:146,0
DA:178,5
DA:179,5
DA:193,0
DA:194,0
DA:198,0
DA:199,0
DA:363,0
DA:364,0
LF:18
LH:7
end_of_record
TN:
SF:/usr/include/c++/13/bits/fs_path.h
FN:1014,1016,_ZNSt10filesystem7__cxx114path8iteratorC2EPKS1_PKNS1_5_CmptE
FN:1018,1020,_ZNSt10filesystem7__cxx114path8iteratorC2EPKS1_b
FN:1161,1167,_ZNKSt10filesystem7__cxx114path6stringIcSt11char_traitsIcESaIcEEENSt7__cxx1112basic_stringIT_T0_T1_EERKSA_
FN:1170,1170,_ZNKSt10filesystem7__cxx114path6stringEv
FN:1283,1298,_ZNKSt10filesystem7__cxx114path8filenameEv
FN:1310,1316,_ZNKSt10filesystem7__cxx114path9extensionEv
FN:1351,1356,_ZNKSt10filesystem7__cxx114path3endEv
FN:1376,1390,_ZNSt10filesystem7__cxx114path8iteratormmEv
FN:1393,1402,_ZNKSt10filesystem7__cxx114path8iteratordeEv
FN:183,185,_ZNSt10filesystem7__cxx118__detail17__effective_rangeIcSt11char_traitsIcESaIcEEESt17basic_string_viewIT_S3_IS7_EERKNSt7__cxx1112basic_stringIS7_T0_T1_EE
FN:315,315,_ZNSt10filesystem7__cxx114pathC2Ev
FN:317,317,_ZNSt10filesystem7__cxx114pathC2ERKS1_
FN:324,326,_ZNSt10filesystem7__cxx114pathC2EONSt7__cxx1112basic_stringIcSt11char_traitsIcESaIcEEENS1_6formatE
FN:330,332,_ZNSt10filesystem7__cxx114pathC2INSt7__cxx1112basic_stringIcSt11char_traitsIcESaIcEEES1_EERKT_NS1_6formatE
FN:355,355,_ZNSt10filesystem7__cxx114pathD2Ev
FN:513,513,_ZNKSt10filesystem7__cxx114path5emptyEv
FN:618,633,_ZNSt10filesystem7__cxx114path10_S_convertISt17basic_string_viewIcSt11char_traitsIcEEEEDaT_
FN:672,672,_ZNKSt10filesystem7__cxx114path7_M_typeEv
FN:689,689,_ZNSt10filesystem7__cxx114path5_ListD2Ev
FN:691,692,_ZNKSt10filesystem7__cxx114path5_List4typeEv
FN:957,957,_ZNKSt10filesystem7__cxx114path8iteratorptEv
FN:981,982,_ZNKSt10filesystem7__cxx114path8iterator11_M_is_multiEv
FNDA:0,_ZNSt10filesystem7__cxx114path8iteratorC2EPKS1_PKNS1_5_CmptE
FNDA:0,_ZNSt10filesystem7__cxx114path8iteratorC2EPKS1_b
FNDA:0,_ZNKSt10filesystem7__cxx114path6stringIcSt11char_traitsIcESaIcEEENSt7__cxx1112basic_stringIT_T0_T1_EERKSA_
FNDA:0,_ZNKSt10filesystem7__cxx114path6stringEv
FNDA:0,_ZNKSt10filesystem7__cxx114path8filenameEv
FNDA:0,_ZNKSt10filesystem7__cxx114path9extensionEv
FNDA:0,_ZNKSt10filesystem7__cxx114path3endEv
FNDA:0,_ZNSt10filesystem7__cxx114path8iteratormmEv
FNDA:0,_ZNKSt10filesystem7__cxx114path8iteratordeEv
FNDA:0,_ZNSt10filesystem7__cxx118__detail17__effective_rangeIcSt11char_traitsIcESaIcEEESt17basic_string_viewIT_S3_IS7_EERKNSt7__cxx1112basic_stringIS7_T0_T1_EE
FNDA:0,_ZNSt10filesystem7__cxx114pathC2Ev
FNDA:0,_ZNSt10filesystem7__cxx114pathC2ERKS1_
FNDA:0,_ZNSt10filesystem7__cxx114pathC2EONSt7__cxx1112basic_stringIcSt11char_traitsIcESaIcEEENS1_6formatE
FNDA:0,_ZNSt10filesystem7__cxx114pathC2INSt7__cxx1112basic_stringIcSt11char_traitsIcESaIcEEES1_EERKT_NS1_6formatE
FNDA:0,_ZNSt10filesystem7__cxx114pathD2Ev
FNDA:0,_ZNKSt10filesystem7__cxx114path5emptyEv
FNDA:0,_ZNSt10filesystem7__cxx114path10_S_convertISt17basic_string_viewIcSt11char_traitsIcEEEEDaT_
FNDA:0,_ZNKSt10filesystem7__cxx114path7_M_typeEv
FNDA:0,_ZNSt10filesystem7__cxx114path5_ListD2Ev
FNDA:0,_ZNKSt10filesystem7__cxx114path5_List4typeEv
FNDA:0,_ZNKSt10filesystem7__cxx114path8iteratorptEv
FNDA:0,_ZNKSt10filesystem7__cxx114path8iterator11_M_is_multiEv
FNF:22
FNH:0
BRDA:317,0,0,-
BRDA:317,e0,1,-
BRDA:325,0,0,-
BRDA:325,e0,1,-
BRDA:326,0,0,-
BRDA:326,e0,1,-
BRDA:331,0,0,-
BRDA:331,e0,1,-
BRDA:331,0,2,-
BRDA:331,e0,3,-
BRDA:332,0,0,-
BRDA:332,e0,1,-
BRDA:1170,0,0,-
BRDA:1170,e0,1,-
BRDA:1285,0,0,-
BRDA:1285,0,1,-
BRDA:1287,0,0,-
BRDA:1287,0,1,-
BRDA:1289,0,0,-
BRDA:1289,0,1,-
BRDA:1291,0,0,-
BRDA:1291,0,1,-
BRDA:1294,0,0,-
BRDA:1294,0,1,-
BRDA:1295,0,0,-
BRDA:1295,e0,1,-
BRDA:1313,0,0,-
BRDA:1313,0,1,-
BRDA:1313,0,2,-
BRDA:1313,0,3,-
BRDA:1314,0,0,-
BRDA:1314,e0,1,-
BRDA:1314,0,2,-
BRDA:1314,e0,3,-
BRDA:1353,0,0,-
BRDA:1353,0,1,-
BRDA:1378,0,0,-
BRDA:1378,0,1,-
BRDA:1378,0,2,-
BRDA:1378,0,3,-
BRDA:1378,0,4,-
BRDA:1378,0,5,-
BRDA:1379,0,0,-
BRDA:1379,0,1,-
BRDA:1381,0,0,-
BRDA:1381,0,1,-
BRDA:1381,0,2,-
BRDA:1381,0,3,-
BRDA:1381,0,4,-
BRDA:1381,0,5,-
BRDA:1386,0,0,-
BRDA:1386,0,1,-
BRDA:1386,0,2,-
BRDA:1386,0,3,-
BRDA:1386,0,4,-
BRDA:1386,0,5,-
BRDA:1395,0,0,-
BRDA:1395,0,1,-
BRDA:1395,0,2,-
BRDA:1395,0,3,-
BRDA:1395,0,4,-
BRDA:1395,0,5,-
BRDA:1396,0,0,-
BRDA:1396,0,1,-
BRDA:1398,0,0,-
BRDA:1398,0,1,-
BRDA:1398,0,2,-
BRDA:1398,0,3,-
BRDA:1398,0,4,-
BRDA:1398,0,5,-
BRF:70
BRH:0
DA:183,0
DA:185,0
DA:315,0
DA:317,0
DA:324,0
DA:325,0
DA:326,0
DA:330,0
DA:331,0
DA:332,0
DA:355,0
DA:513,0
DA:618,0
DA:622,0
DA:672,0
DA:689,0
DA:691,0
DA:692,0
DA:957,0
DA:981,0
DA:982,0
DA:1014,0
DA:1015,0
DA:1016,0
DA:1018,0
DA:1019,0
DA:1020,0
DA:1161,0
DA:1164,0
DA:1170,0
DA:1283,0
DA:1285,0
DA:1286,0
DA:1287,0
DA:1288,0
DA:1289,0
DA:1291,0
DA:1292,0
DA:1293,0
DA:1294,0
DA:1295,0
DA:1297,0
DA:1310,0
DA:1312,0
DA:1313,0
DA:1314,0
DA:1315,0
DA:1351,0
DA:1353,0
DA:1354,0
DA:1355,0
DA:1376,0
DA:1378,0
DA:1379,0
DA:1381,0
DA:1382,0
DA:1386,0
DA:1387,0
DA:1389,0
DA:1393,0
DA:1395,0
DA:1396,0
DA:1398,0
DA:1399,0
DA:1401,0
LF:65
LH:0
end_of_record
TN:
SF:/usr/include/c++/13/bits/invoke.h
FN:71,75,_ZSt13__invoke_implIvMN12media_player8services11FileScannerEFvRKNSt7__cxx1112basic_stringIcSt11char_traitsIcESaIcEEEEPS2_JS8_EET_St21__invoke_memfun_derefOT0_OT1_DpOT2_
FN:71,75,_ZSt13__invoke_implIvMN12media_player8services19AudioPlaybackEngineEFvvEPS2_JEET_St21__invoke_memfun_derefOT0_OT1_DpOT2_
FN:71,75,_ZSt13__invoke_implIvMN12media_player8services19SerialCommunicationEFvvEPS2_JEET_St21__invoke_memfun_derefOT0_OT1_DpOT2_
FN:90,98,_ZSt8__invokeIMN12media_player8services11FileScannerEFvRKNSt7__cxx1112basic_stringIcSt11char_traitsIcESaIcEEEEJPS2_S8_EENSt15__invoke_resultIT_JDpT0_EE4typeEOSF_DpOSG_
FN:90,98,_ZSt8__invokeIMN12media_player8services19AudioPlaybackEngineEFvvEJPS2_EENSt15__invoke_resultIT_JDpT0_EE4typeEOS7_DpOS8_
FN:90,98,_ZSt8__invokeIMN12media_player8services19SerialCommunicationEFvvEJPS2_EENSt15__invoke_resultIT_JDpT0_EE4typeEOS7_DpOS8_
FNDA:3,_ZSt13__invoke_implIvMN12media_player8services11FileScannerEFvRKNSt7__cxx1112basic_stringIcSt11char_traitsIcESaIcEEEEPS2_JS8_EET_St21__invoke_memfun_derefOT0_OT1_DpOT2_
FNDA:47,_ZSt13__invoke_implIvMN12media_player8services19AudioPlaybackEngineEFvvEPS2_JEET_St21__invoke_memfun_derefOT0_OT1_DpOT2_
FNDA:4,_ZSt13__invoke_implIvMN12media_player8services19SerialCommunicationEFvvEPS2_JEET_St21__invoke_memfun_derefOT0_OT1_DpOT2_
FNDA:3,_ZSt8__invokeIMN12media_player8services11FileScannerEFvRKNSt7__cxx1112basic_stringIcSt11char_traitsIcESaIcEEEEJPS2_S8_EENSt15__invoke_resultIT_JDpT0_EE4typeEOSF_DpOSG_
FNDA:47,_ZSt8__invokeIMN12media_player8services19AudioPlaybackEngineEFvvEJPS2_EENSt15__invoke_resultIT_JDpT0_EE4typeEOS7_DpOS8_
FNDA:4,_ZSt8__invokeIMN12media_player8services19SerialCommunicationEFvvEJPS2_EENSt15__invoke_resultIT_JDpT0_EE4typeEOS7_DpOS8_
FNF:6
FNH:6
BRDA:74,0,0,0
BRDA:74,0,1,54
BRF:2
BRH:1
DA:71,54
DA:74,54
DA:90,54
DA:96,54
DA:97,54
LF:5
LH:5
end_of_record
TN:
SF:/usr/include/c++/13/bits/ios_base.h
FN:130,131,_ZStorSt13_Ios_OpenmodeS_
FNDA:0,_ZStorSt13_Ios_OpenmodeS_
FNF:1
FNH:0
DA:130,0
DA:131,0
LF:2
LH:0
end_of_record
TN:
SF:/usr/include/c++/13/bits/list.tcc
FN:66,83,_ZNSt7__cxx1110_List_baseIPN6TagLib5ID3v25FrameESaIS4_EE8_M_clearEv
FNDA:0,_ZNSt7__cxx1110_List_baseIPN6TagLib5ID3v25FrameESaIS4_EE8_M_clearEv
FNF:1
FNH:0
BRDA:71,0,0,-
BRDA:71,0,1,-
BRF:2
BRH:0
DA:66,0
DA:70,0
DA:71,0
DA:73,0
DA:74,0
DA:75,0
DA:77,0
DA:81,0
DA:83,0
LF:9
LH:0
end_of_record
TN:
SF:/usr/include/c++/13/bits/move.h
FN:189,200,_ZSt4swapIPFbRSt9_Any_dataRKS0_St18_Manager_operationEENSt9enable_ifIXsrSt6__and_IJSt6__not_ISt15__is_tuple_likeIT_EESt21is_move_constructibleISB_ESt18is_move_assignableISB_EEE5valueEvE4typeERSB_SL_
FN:189,200,_ZSt4swapIPFvRKSt9_Any_dataEENSt9enable_ifIXsrSt6__and_IJSt6__not_ISt15__is_tuple_likeIT_EESt21is_move_constructibleIS9_ESt18is_move_assignableIS9_EEE5valueEvE4typeERS9_SJ_
FN:189,200,_ZSt4swapIPFvRKSt9_Any_dataON12media_player8services13PlaybackStateEEENSt9enable_ifIXsrSt6__and_IJSt6__not_ISt15__is_tuple_likeIT_EESt21is_move_constructibleISD_ESt18is_move_assignableISD_EEE5valueEvE4typeERSD_SN_
FN:189,200,_ZSt4swapIPFvRKSt9_Any_dataOSt6vectorIN12media_player6models14MediaFileModelESaIS6_EEEENSt9enable_ifIXsrSt6__and_IJSt6__not_ISt15__is_tuple_likeIT_EESt21is_move_constructibleISG_ESt18is_move_assignableISG_EEE5valueEvE4typeERSG_SQ_
FN:189,200,_ZSt4swapIPFvRKSt9_Any_dataOiRKNSt7__cxx1112basic_stringIcSt11char_traitsIcESaIcEEEEENSt9enable_ifIXsrSt6__and_IJSt6__not_ISt15__is_tuple_likeIT_EESt21is_move_constructibleISI_ESt18is_move_assignableISI_EEE5valueEvE4typeERSI_SS_
FN:189,200,_ZSt4swapIPFvRKSt9_Any_dataOiS3_EENSt9enable_ifIXsrSt6__and_IJSt6__not_ISt15__is_tuple_likeIT_EESt21is_move_constructibleISA_ESt18is_move_assignableISA_EEE5valueEvE4typeERSA_SK_
FN:189,200,_ZSt4swapIPFvRKSt9_Any_dataOiS3_RKNSt7__cxx1112basic_stringIcSt11char_traitsIcESaIcEEEEENSt9enable_ifIXsrSt6__and_IJSt6__not_ISt15__is_tuple_likeIT_EESt21is_move_constructibleISI_ESt18is_move_assignableISI_EEE5valueEvE4typeERSI_SS_
FN:189,200,_ZSt4swapIPFvRKSt9_Any_dataRKNSt7__cxx1112basic_stringIcSt11char_traitsIcESaIcEEEEENSt9enable_ifIXsrSt6__and_IJSt6__not_ISt15__is_tuple_likeIT_EESt21is_move_constructibleISH_ESt18is_move_assignableISH_EEE5valueEvE4typeERSH_SR_
FN:189,200,_ZSt4swapISt9_Any_dataENSt9enable_ifIXsrSt6__and_IJSt6__not_ISt15__is_tuple_likeIT_EESt21is_move_constructibleIS5_ESt18is_move_assignableIS5_EEE5valueEvE4typeERS5_SF_
FN:51,52,_ZSt11__addressofIKN12media_player8services13PlaybackStateEEPT_RS4_
FN:51,52,_ZSt11__addressofIKNSt10filesystem7__cxx114pathEEPT_RS4_
FN:51,52,_ZSt11__addressofIKSt6vectorINSt7__cxx1112basic_stringIcSt11char_traitsIcESaIcEEESaIS6_EEEPT_RSA_
FN:51,52,_ZSt11__addressofIN12media_player6models14MediaFileModelEEPT_RS3_
FN:51,52,_ZSt11__addressofIN12media_player8services13PlaybackStateEEPT_RS3_
FN:51,52,_ZSt11__addressofINSt7__cxx1112basic_stringIcSt11char_traitsIcESaIcEEEEPT_RS6_
FN:51,52,_ZSt11__addressofISaISt10_List_nodeIPN6TagLib5ID3v25FrameEEEEPT_RS7_
FN:51,52,_ZSt11__addressofIhEPT_RS0_
FN:70,71,_ZSt7forwardIMN12media_player8services11FileScannerEFvRKNSt7__cxx1112basic_stringIcSt11char_traitsIcESaIcEEEEEOT_RNSt16remove_referenceISD_E4typeE
FN:70,71,_ZSt7forwardIMN12media_player8services19AudioPlaybackEngineEFvvEEOT_RNSt16remove_referenceIS5_E4typeE
FN:70,71,_ZSt7forwardIMN12media_player8services19SerialCommunicationEFvvEEOT_RNSt16remove_referenceIS5_E4typeE
FN:70,71,_ZSt7forwardIN12media_player6models14MediaFileModelEEOT_RNSt16remove_referenceIS3_E4typeE
FN:70,71,_ZSt7forwardIN12media_player8services13PlaybackStateEEOT_RNSt16remove_referenceIS3_E4typeE
FN:70,71,_ZSt7forwardINSt7__cxx1112basic_stringIcSt11char_traitsIcESaIcEEEEOT_RNSt16remove_referenceIS6_E4typeE
FN:70,71,_ZSt7forwardIPN12media_player8services11FileScannerEEOT_RNSt16remove_referenceIS4_E4typeE
FN:70,71,_ZSt7forwardIPN12media_player8services19AudioPlaybackEngineEEOT_RNSt16remove_referenceIS4_E4typeE
FN:70,71,_ZSt7forwardIPN12media_player8services19SerialCommunicationEEOT_RNSt16remove_referenceIS4_E4typeE
FN:70,71,_ZSt7forwardIRKN12media_player6models14MediaFileModelEEOT_RNSt16remove_referenceIS5_E4typeE
FN:70,71,_ZSt7forwardIRKNSt7__cxx1112basic_stringIcSt11char_traitsIcESaIcEEEEOT_RNSt16remove_referenceIS8_E4typeE
FN:70,71,_ZSt7forwardIRKPKcEOT_RNSt16remove_referenceIS4_E4typeE
FN:70,71,_ZSt7forwardIRKPN6TagLib5ID3v25FrameEEOT_RNSt16remove_referenceIS6_E4typeE
FN:70,71,_ZSt7forwardIRNSt7__cxx1112basic_stringIcSt11char_traitsIcESaIcEEEEOT_RNSt16remove_referenceIS7_E4typeE
FN:70,71,_ZSt7forwardISt14default_deleteISt6threadEEOT_RNSt16remove_referenceIS3_E4typeE
FN:70,71,_ZSt7forwardISt6vectorIN12media_player6models14MediaFileModelESaIS3_EEEOT_RNSt16remove_referenceIS6_E4typeE
FN:70,71,_ZSt7forwardIiEOT_RNSt16remove_referenceIS0_E4typeE
FN:97,98,_ZSt4moveIRN12media_player6models14MediaFileModelEEONSt16remove_referenceIT_E4typeEOS5_
FN:97,98,_ZSt4moveIRNSt12_Vector_baseIhSaIhEE12_Vector_implEEONSt16remove_referenceIT_E4typeEOS6_
FN:97,98,_ZSt4moveIRNSt7__cxx1112basic_stringIcSt11char_traitsIcESaIcEEEEONSt16remove_referenceIT_E4typeEOS8_
FN:97,98,_ZSt4moveIRPFbRSt9_Any_dataRKS0_St18_Manager_operationEEONSt16remove_referenceIT_E4typeEOS9_
FN:97,98,_ZSt4moveIRPFvRKSt9_Any_dataEEONSt16remove_referenceIT_E4typeEOS7_
FN:97,98,_ZSt4moveIRPFvRKSt9_Any_dataON12media_player8services13PlaybackStateEEEONSt16remove_referenceIT_E4typeEOSB_
FN:97,98,_ZSt4moveIRPFvRKSt9_Any_dataOSt6vectorIN12media_player6models14MediaFileModelESaIS6_EEEEONSt16remove_referenceIT_E4typeEOSE_
FN:97,98,_ZSt4moveIRPFvRKSt9_Any_dataOiRKNSt7__cxx1112basic_stringIcSt11char_traitsIcESaIcEEEEEONSt16remove_referenceIT_E4typeEOSG_
FN:97,98,_ZSt4moveIRPFvRKSt9_Any_dataOiS3_EEONSt16remove_referenceIT_E4typeEOS8_
FN:97,98,_ZSt4moveIRPFvRKSt9_Any_dataOiS3_RKNSt7__cxx1112basic_stringIcSt11char_traitsIcESaIcEEEEEONSt16remove_referenceIT_E4typeEOSG_
FN:97,98,_ZSt4moveIRPFvRKSt9_Any_dataRKNSt7__cxx1112basic_stringIcSt11char_traitsIcESaIcEEEEEONSt16remove_referenceIT_E4typeEOSF_
FN:97,98,_ZSt4moveIRPN12media_player6models13MetadataModelEEONSt16remove_referenceIT_E4typeEOS6_
FN:97,98,_ZSt4moveIRPNSt10filesystem7__cxx114path5_List5_ImplEEONSt16remove_referenceIT_E4typeEOS8_
FN:97,98,_ZSt4moveIRPNSt6thread6_StateEEONSt16remove_referenceIT_E4typeEOS5_
FN:97,98,_ZSt4moveIRPSt6threadEONSt16remove_referenceIT_E4typeEOS4_
FN:97,98,_ZSt4moveIRSaISt10_List_nodeIPN6TagLib5ID3v25FrameEEEEONSt16remove_referenceIT_E4typeEOS9_
FN:97,98,_ZSt4moveIRSaIcEEONSt16remove_referenceIT_E4typeEOS3_
FN:97,98,_ZSt4moveIRSt5tupleIJMN12media_player8services11FileScannerEFvRKNSt7__cxx1112basic_stringIcSt11char_traitsIcESaIcEEEEPS3_S9_EEEONSt16remove_referenceIT_E4typeEOSI_
FN:97,98,_ZSt4moveIRSt5tupleIJMN12media_player8services19AudioPlaybackEngineEFvvEPS3_EEEONSt16remove_referenceIT_E4typeEOSA_
FN:97,98,_ZSt4moveIRSt5tupleIJMN12media_player8services19SerialCommunicationEFvvEPS3_EEEONSt16remove_referenceIT_E4typeEOSA_
FN:97,98,_ZSt4moveIRSt5tupleIJPN12media_player6models13MetadataModelESt14default_deleteIS3_EEEEONSt16remove_referenceIT_E4typeEOSA_
FN:97,98,_ZSt4moveIRSt9_Any_dataEONSt16remove_referenceIT_E4typeEOS3_
FNDA:0,_ZSt4swapIPFbRSt9_Any_dataRKS0_St18_Manager_operationEENSt9enable_ifIXsrSt6__and_IJSt6__not_ISt15__is_tuple_likeIT_EESt21is_move_constructibleISB_ESt18is_move_assignableISB_EEE5valueEvE4typeERSB_SL_
FNDA:0,_ZSt4swapIPFvRKSt9_Any_dataEENSt9enable_ifIXsrSt6__and_IJSt6__not_ISt15__is_tuple_likeIT_EESt21is_move_constructibleIS9_ESt18is_move_assignableIS9_EEE5valueEvE4typeERS9_SJ_
FNDA:0,_ZSt4swapIPFvRKSt9_Any_dataON12media_player8services13PlaybackStateEEENSt9enable_ifIXsrSt6__and_IJSt6__not_ISt15__is_tuple_likeIT_EESt21is_move_constructibleISD_ESt18is_move_assignableISD_EEE5valueEvE4typeERSD_SN_
FNDA:0,_ZSt4swapIPFvRKSt9_Any_dataOSt6vectorIN12media_player6models14MediaFileModelESaIS6_EEEENSt9enable_ifIXsrSt6__and_IJSt6__not_ISt15__is_tuple_likeIT_EESt21is_move_constructibleISG_ESt18is_move_assignableISG_EEE5valueEvE4typeERSG_SQ_
FNDA:0,_ZSt4swapIPFvRKSt9_Any_dataOiRKNSt7__cxx1112basic_stringIcSt11char_traitsIcESaIcEEEEENSt9enable_ifIXsrSt6__and_IJSt6__not_ISt15__is_tuple_likeIT_EESt21is_move_constructibleISI_ESt18is_move_assignableISI_EEE5valueEvE4typeERSI_SS_
FNDA:0,_ZSt4swapIPFvRKSt9_Any_dataOiS3_EENSt9enable_ifIXsrSt6__and_IJSt6__not_ISt15__is_tuple_likeIT_EESt21is_move_constructibleISA_ESt18is_move_assignableISA_EEE5valueEvE4typeERSA_SK_
FNDA:0,_ZSt4swapIPFvRKSt9_Any_dataOiS3_RKNSt7__cxx1112basic_stringIcSt11char_traitsIcESaIcEEEEENSt9enable_ifIXsrSt6__and_IJSt6__not_ISt15__is_tuple_likeIT_EESt21is_move_constructibleISI_ESt18is_move_assignableISI_EEE5valueEvE4typeERSI_SS_
FNDA:0,_ZSt4swapIPFvRKSt9_Any_dataRKNSt7__cxx1112basic_stringIcSt11char_traitsIcESaIcEEEEENSt9enable_ifIXsrSt6__and_IJSt6__not_ISt15__is_tuple_likeIT_EESt21is_move_constructibleISH_ESt18is_move_assignableISH_EEE5valueEvE4typeERSH_SR_
FNDA:0,_ZSt4swapISt9_Any_dataENSt9enable_ifIXsrSt6__and_IJSt6__not_ISt15__is_tuple_likeIT_EESt21is_move_constructibleIS5_ESt18is_move_assignableIS5_EEE5valueEvE4typeERS5_SF_
FNDA:0,_ZSt11__addressofIKN12media_player8services13PlaybackStateEEPT_RS4_
FNDA:0,_ZSt11__addressofIKNSt10filesystem7__cxx114pathEEPT_RS4_
FNDA:13,_ZSt11__addressofIKSt6vectorINSt7__cxx1112basic_stringIcSt11char_traitsIcESaIcEEESaIS6_EEEPT_RSA_
FNDA:0,_ZSt11__addressofIN12media_player6models14MediaFileModelEEPT_RS3_
FNDA:16,_ZSt11__addressofIN12media_player8services13PlaybackStateEEPT_RS3_
FNDA:0,_ZSt11__addressofINSt7__cxx1112basic_stringIcSt11char_traitsIcESaIcEEEEPT_RS6_
FNDA:0,_ZSt11__addressofISaISt10_List_nodeIPN6TagLib5ID3v25FrameEEEEPT_RS7_
FNDA:1,_ZSt11__addressofIhEPT_RS0_
FNDA:27,_ZSt7forwardIMN12media_player8services11FileScannerEFvRKNSt7__cxx1112basic_stringIcSt11char_traitsIcESaIcEEEEEOT_RNSt16remove_referenceISD_E4typeE
FNDA:423,_ZSt7forwardIMN12media_player8services19AudioPlaybackEngineEFvvEEOT_RNSt16remove_referenceIS5_E4typeE
FNDA:36,_ZSt7forwardIMN12media_player8services19SerialCommunicationEFvvEEOT_RNSt16remove_referenceIS5_E4typeE
FNDA:0,_ZSt7forwardIN12media_player6models14MediaFileModelEEOT_RNSt16remove_referenceIS3_E4typeE
FNDA:0,_ZSt7forwardIN12media_player8services13PlaybackStateEEOT_RNSt16remove_referenceIS3_E4typeE
FNDA:0,_ZSt7forwardINSt7__cxx1112basic_stringIcSt11char_traitsIcESaIcEEEEOT_RNSt16remove_referenceIS6_E4typeE
FNDA:33,_ZSt7forwardIPN12media_player8services11FileScannerEEOT_RNSt16remove_referenceIS4_E4typeE
FNDA:517,_ZSt7forwardIPN12media_player8services19AudioPlaybackEngineEEOT_RNSt16remove_referenceIS4_E4typeE
FNDA:44,_ZSt7forwardIPN12media_player8services19SerialCommunicationEEOT_RNSt16remove_referenceIS4_E4typeE
FNDA:0,_ZSt7forwardIRKN12media_player6models14MediaFileModelEEOT_RNSt16remove_referenceIS5_E4typeE
FNDA:0,_ZSt7forwardIRKNSt7__cxx1112basic_stringIcSt11char_traitsIcESaIcEEEEOT_RNSt16remove_referenceIS8_E4typeE
FNDA:0,_ZSt7forwardIRKPKcEOT_RNSt16remove_referenceIS4_E4typeE
FNDA:0,_ZSt7forwardIRKPN6TagLib5ID3v25FrameEEOT_RNSt16remove_referenceIS6_E4typeE
FNDA:0,_ZSt7forwardIRNSt7__cxx1112basic_stringIcSt11char_traitsIcESaIcEEEEOT_RNSt16remove_referenceIS7_E4typeE
FNDA:54,_ZSt7forwardISt14default_deleteISt6threadEEOT_RNSt16remove_referenceIS3_E4typeE
FNDA:0,_ZSt7forwardISt6vectorIN12media_player6models14MediaFileModelESaIS3_EEEOT_RNSt16remove_referenceIS6_E4typeE
FNDA:0,_ZSt7forwardIiEOT_RNSt16remove_referenceIS0_E4typeE
FNDA:0,_ZSt4moveIRN12media_player6models14MediaFileModelEEONSt16remove_referenceIT_E4typeEOS5_
FNDA:0,_ZSt4moveIRNSt12_Vector_baseIhSaIhEE12_Vector_implEEONSt16remove_referenceIT_E4typeEOS6_
FNDA:0,_ZSt4moveIRNSt7__cxx1112basic_stringIcSt11char_traitsIcESaIcEEEEONSt16remove_referenceIT_E4typeEOS8_
FNDA:0,_ZSt4moveIRPFbRSt9_Any_dataRKS0_St18_Manager_operationEEONSt16remove_referenceIT_E4typeEOS9_
FNDA:0,_ZSt4moveIRPFvRKSt9_Any_dataEEONSt16remove_referenceIT_E4typeEOS7_
FNDA:0,_ZSt4moveIRPFvRKSt9_Any_dataON12media_player8services13PlaybackStateEEEONSt16remove_referenceIT_E4typeEOSB_
FNDA:0,_ZSt4moveIRPFvRKSt9_Any_dataOSt6vectorIN12media_player6models14MediaFileModelESaIS6_EEEEONSt16remove_referenceIT_E4typeEOSE_
FNDA:0,_ZSt4moveIRPFvRKSt9_Any_dataOiRKNSt7__cxx1112basic_stringIcSt11char_traitsIcESaIcEEEEEONSt16remove_referenceIT_E4typeEOSG_
FNDA:0,_ZSt4moveIRPFvRKSt9_Any_dataOiS3_EEONSt16remove_referenceIT_E4typeEOS8_
FNDA:0,_ZSt4moveIRPFvRKSt9_Any_dataOiS3_RKNSt7__cxx1112basic_stringIcSt11char_traitsIcESaIcEEEEEONSt16remove_referenceIT_E4typeEOSG_
FNDA:0,_ZSt4moveIRPFvRKSt9_Any_dataRKNSt7__cxx1112basic_stringIcSt11char_traitsIcESaIcEEEEEONSt16remove_referenceIT_E4typeEOSF_
FNDA:0,_ZSt4moveIRPN12media_player6models13MetadataModelEEONSt16remove_referenceIT_E4typeEOS6_
FNDA:0,_ZSt4moveIRPNSt10filesystem7__cxx114path5_List5_ImplEEONSt16remove_referenceIT_E4typeEOS8_
FNDA:0,_ZSt4moveIRPNSt6thread6_StateEEONSt16remove_referenceIT_E4typeEOS5_
FNDA:54,_ZSt4moveIRPSt6threadEONSt16remove_referenceIT_E4typeEOS4_
FNDA:0,_ZSt4moveIRSaISt10_List_nodeIPN6TagLib5ID3v25FrameEEEEONSt16remove_referenceIT_E4typeEOS9_
FNDA:0,_ZSt4moveIRSaIcEEONSt16remove_referenceIT_E4typeEOS3_
FNDA:9,_ZSt4moveIRSt5tupleIJMN12media_player8services11FileScannerEFvRKNSt7__cxx1112basic_stringIcSt11char_traitsIcESaIcEEEEPS3_S9_EEEONSt16remove_referenceIT_E4typeEOSI_
FNDA:94,_ZSt4moveIRSt5tupleIJMN12media_player8services19AudioPlaybackEngineEFvvEPS3_EEEONSt16remove_referenceIT_E4typeEOSA_
FNDA:8,_ZSt4moveIRSt5tupleIJMN12media_player8services19SerialCommunicationEFvvEPS3_EEEONSt16remove_referenceIT_E4typeEOSA_
FNDA:0,_ZSt4moveIRSt5tupleIJPN12media_player6models13MetadataModelESt14default_deleteIS3_EEEEONSt16remove_referenceIT_E4typeEOSA_
FNDA:0,_ZSt4moveIRSt9_Any_dataEONSt16remove_referenceIT_E4typeEOS3_
FNF:56
FNH:14
DA:51,30
DA:52,30
DA:70,1134
DA:71,1134
DA:97,165
DA:98,165
DA:189,0
DA:197,0
DA:198,0
DA:199,0
DA:200,0
LF:11
LH:6
end_of_record
TN:
SF:/usr/include/c++/13/bits/new_allocator.h
FN:104,104,_ZNSt15__new_allocatorIN12media_player6models14MediaFileModelEED2Ev
FN:104,104,_ZNSt15__new_allocatorINSt7__cxx1112basic_stringIcSt11char_traitsIcESaIcEEEED2Ev
FN:104,104,_ZNSt15__new_allocatorISt10_List_nodeIPN6TagLib5ID3v25FrameEEED2Ev
FN:104,104,_ZNSt15__new_allocatorISt13_Rb_tree_nodeISt4pairIKNSt7__cxx1112basic_stringIcSt11char_traitsIcESaIcEEES7_EEED2Ev
FN:104,104,_ZNSt15__new_allocatorIcED2Ev
FN:104,104,_ZNSt15__new_allocatorIhED2Ev
FN:126,152,_ZNSt15__new_allocatorIN12media_player6models14MediaFileModelEE8allocateEmPKv
FN:126,152,_ZNSt15__new_allocatorINSt7__cxx1112basic_stringIcSt11char_traitsIcESaIcEEEE8allocateEmPKv
FN:126,152,_ZNSt15__new_allocatorISt10_List_nodeIPN6TagLib5ID3v25FrameEEE8allocateEmPKv
FN:126,152,_ZNSt15__new_allocatorIhE8allocateEmPKv
FN:156,173,_ZNSt15__new_allocatorIN12media_player6models14MediaFileModelEE10deallocateEPS2_m
FN:156,173,_ZNSt15__new_allocatorINSt7__cxx1112basic_stringIcSt11char_traitsIcESaIcEEEE10deallocateEPS5_m
FN:156,173,_ZNSt15__new_allocatorISt10_List_nodeIPN6TagLib5ID3v25FrameEEE10deallocateEPS5_m
FN:156,173,_ZNSt15__new_allocatorISt13_Rb_tree_nodeISt4pairIKNSt7__cxx1112basic_stringIcSt11char_traitsIcESaIcEEES7_EEE10deallocateEPSA_m
FN:156,173,_ZNSt15__new_allocatorIhE10deallocateEPhm
FNDA:0,_ZNSt15__new_allocatorIN12media_player6models14MediaFileModelEED2Ev
FNDA:0,_ZNSt15__new_allocatorINSt7__cxx1112basic_stringIcSt11char_traitsIcESaIcEEEED2Ev
FNDA:0,_ZNSt15__new_allocatorISt10_List_nodeIPN6TagLib5ID3v25FrameEEED2Ev
FNDA:0,_ZNSt15__new_allocatorISt13_Rb_tree_nodeISt4pairIKNSt7__cxx1112basic_stringIcSt11char_traitsIcESaIcEEES7_EEED2Ev
FNDA:0,_ZNSt15__new_allocatorIcED2Ev
FNDA:0,_ZNSt15__new_allocatorIhED2Ev
FNDA:0,_ZNSt15__new_allocatorIN12media_player6models14MediaFileModelEE8allocateEmPKv
FNDA:0,_ZNSt15__new_allocatorINSt7__cxx1112basic_stringIcSt11char_traitsIcESaIcEEEE8allocateEmPKv
FNDA:0,_ZNSt15__new_allocatorISt10_List_nodeIPN6TagLib5ID3v25FrameEEE8allocateEmPKv
FNDA:0,_ZNSt15__new_allocatorIhE8allocateEmPKv
FNDA:0,_ZNSt15__new_allocatorIN12media_player6models14MediaFileModelEE10deallocateEPS2_m
FNDA:0,_ZNSt15__new_allocatorINSt7__cxx1112basic_stringIcSt11char_traitsIcESaIcEEEE10deallocateEPS5_m
FNDA:0,_ZNSt15__new_allocatorISt10_List_nodeIPN6TagLib5ID3v25FrameEEE10deallocateEPS5_m
FNDA:0,_ZNSt15__new_allocatorISt13_Rb_tree_nodeISt4pairIKNSt7__cxx1112basic_stringIcSt11char_traitsIcESaIcEEES7_EEE10deallocateEPSA_m
FNDA:0,_ZNSt15__new_allocatorIhE10deallocateEPhm
FNF:15
FNH:0
BRDA:134,0,0,-
BRDA:134,0,1,-
BRDA:138,0,0,-
BRDA:138,0,1,-
BRDA:191,0,0,-
BRDA:191,e0,1,-
BRDA:191,0,2,-
BRDA:191,0,3,-
BRDA:191,0,4,-
BRDA:191,e0,5,-
BRDA:191,0,6,-
BRDA:191,0,7,-
BRF:12
BRH:0
DA:88,0
DA:92,0
DA:104,0
DA:126,0
DA:134,0
DA:138,0
DA:139,0
DA:140,0
DA:151,0
DA:156,0
DA:172,0
DA:183,0
DA:191,0
DA:198,0
DA:233,0
LF:15
LH:0
end_of_record
TN:
SF:/usr/include/c++/13/bits/postypes.h
FN:113,113,_ZNKSt4fposI11__mbstate_tEcvlEv
FNDA:1,_ZNKSt4fposI11__mbstate_tEcvlEv
FNF:1
FNH:1
DA:113,1
LF:1
LH:1
end_of_record
TN:
SF:/usr/include/c++/13/bits/predefined_ops.h
FN:262,264,_ZN9__gnu_cxx5__ops16_Iter_equals_valIKNSt7__cxx1112basic_stringIcSt11char_traitsIcESaIcEEEEC2ERS8_
FN:269,270,_ZN9__gnu_cxx5__ops16_Iter_equals_valIKNSt7__cxx1112basic_stringIcSt11char_traitsIcESaIcEEEEclINS_17__normal_iteratorIPS7_St6vectorIS7_SaIS7_EEEEEEbT_
FN:269,270,_ZN9__gnu_cxx5__ops16_Iter_equals_valIKNSt7__cxx1112basic_stringIcSt11char_traitsIcESaIcEEEEclINS_17__normal_iteratorIPS8_St6vectorIS7_SaIS7_EEEEEEbT_
FN:276,277,_ZN9__gnu_cxx5__ops17__iter_equals_valIKNSt7__cxx1112basic_stringIcSt11char_traitsIcESaIcEEEEENS0_16_Iter_equals_valIT_EERSA_
FNDA:0,_ZN9__gnu_cxx5__ops16_Iter_equals_valIKNSt7__cxx1112basic_stringIcSt11char_traitsIcESaIcEEEEC2ERS8_
FNDA:67,_ZN9__gnu_cxx5__ops16_Iter_equals_valIKNSt7__cxx1112basic_stringIcSt11char_traitsIcESaIcEEEEclINS_17__normal_iteratorIPS7_St6vectorIS7_SaIS7_EEEEEEbT_
FNDA:0,_ZN9__gnu_cxx5__ops16_Iter_equals_valIKNSt7__cxx1112basic_stringIcSt11char_traitsIcESaIcEEEEclINS_17__normal_iteratorIPS8_St6vectorIS7_SaIS7_EEEEEEbT_
FNDA:0,_ZN9__gnu_cxx5__ops17__iter_equals_valIKNSt7__cxx1112basic_stringIcSt11char_traitsIcESaIcEEEEENS0_16_Iter_equals_valIT_EERSA_
FNF:4
FNH:1
DA:262,0
DA:263,0
DA:264,0
DA:269,67
DA:270,67
DA:276,0
DA:277,0
LF:7
LH:2
end_of_record
TN:
SF:/usr/include/c++/13/bits/shared_ptr_base.h
FN:1068,1072,_ZNSt14__shared_countILN9__gnu_cxx12_Lock_policyE2EED2Ev
FN:1074,1079,_ZNSt14__shared_countILN9__gnu_cxx12_Lock_policyE2EEC2ERKS2_
FN:1097,1102,_ZNSt14__shared_countILN9__gnu_cxx12_Lock_policyE2EE7_M_swapERS2_
FN:1117,1118,_ZNKSt14__shared_countILN9__gnu_cxx12_Lock_policyE2EE7_M_lessERKS2_
FN:151,152,_ZNSt16_Sp_counted_baseILN9__gnu_cxx12_Lock_policyE2EE15_M_add_ref_copyEv
FN:1522,1522,_ZNSt12__shared_ptrINSt10filesystem7__cxx1128recursive_directory_iterator10_Dir_stackELN9__gnu_cxx12_Lock_policyE2EEC2ERKS6_
FN:1522,1522,_ZNSt12__shared_ptrINSt10filesystem7__cxx114_DirELN9__gnu_cxx12_Lock_policyE2EEC2ERKS5_
FN:1524,1524,_ZNSt12__shared_ptrINSt10filesystem7__cxx114_DirELN9__gnu_cxx12_Lock_policyE2EED2Ev
FN:1699,1700,_ZNKSt12__shared_ptrINSt10filesystem7__cxx1128recursive_directory_iterator10_Dir_stackELN9__gnu_cxx12_Lock_policyE2EE12owner_beforeIS3_EEbRKS_IT_LS5_2EE
FN:1699,1700,_ZNKSt12__shared_ptrINSt10filesystem7__cxx114_DirELN9__gnu_cxx12_Lock_policyE2EE12owner_beforeIS2_EEbRKS_IT_LS4_2EE
FN:172,193,_ZNSt16_Sp_counted_baseILN9__gnu_cxx12_Lock_policyE2EE19_M_release_last_useEv
FN:198,199,_ZNSt16_Sp_counted_baseILN9__gnu_cxx12_Lock_policyE2EE24_M_release_last_use_coldEv
FN:317,363,_ZNSt16_Sp_counted_baseILN9__gnu_cxx12_Lock_policyE2EE10_M_releaseEv
FN:908,909,_ZNSt14__shared_countILN9__gnu_cxx12_Lock_policyE2EEC2Ev
FNDA:0,_ZNSt14__shared_countILN9__gnu_cxx12_Lock_policyE2EED2Ev
FNDA:0,_ZNSt14__shared_countILN9__gnu_cxx12_Lock_policyE2EEC2ERKS2_
FNDA:0,_ZNSt14__shared_countILN9__gnu_cxx12_Lock_policyE2EE7_M_swapERS2_
FNDA:0,_ZNKSt14__shared_countILN9__gnu_cxx12_Lock_policyE2EE7_M_lessERKS2_
FNDA:0,_ZNSt16_Sp_counted_baseILN9__gnu_cxx12_Lock_policyE2EE15_M_add_ref_copyEv
FNDA:18,_ZNSt12__shared_ptrINSt10filesystem7__cxx1128recursive_directory_iterator10_Dir_stackELN9__gnu_cxx12_Lock_policyE2EEC2ERKS6_
FNDA:0,_ZNSt12__shared_ptrINSt10filesystem7__cxx114_DirELN9__gnu_cxx12_Lock_policyE2EEC2ERKS5_
FNDA:0,_ZNSt12__shared_ptrINSt10filesystem7__cxx114_DirELN9__gnu_cxx12_Lock_policyE2EED2Ev
FNDA:82,_ZNKSt12__shared_ptrINSt10filesystem7__cxx1128recursive_directory_iterator10_Dir_stackELN9__gnu_cxx12_Lock_policyE2EE12owner_beforeIS3_EEbRKS_IT_LS5_2EE
FNDA:0,_ZNKSt12__shared_ptrINSt10filesystem7__cxx114_DirELN9__gnu_cxx12_Lock_policyE2EE12owner_beforeIS2_EEbRKS_IT_LS4_2EE
FNDA:0,_ZNSt16_Sp_counted_baseILN9__gnu_cxx12_Lock_policyE2EE19_M_release_last_useEv
FNDA:0,_ZNSt16_Sp_counted_baseILN9__gnu_cxx12_Lock_policyE2EE24_M_release_last_use_coldEv
FNDA:0,_ZNSt16_Sp_counted_baseILN9__gnu_cxx12_Lock_policyE2EE10_M_releaseEv
FNDA:0,_ZNSt14__shared_countILN9__gnu_cxx12_Lock_policyE2EEC2Ev
FNF:14
FNH:2
BRDA:188,0,0,-
BRDA:188,0,1,-
BRDA:337,0,0,-
BRDA:337,0,1,-
BRDA:350,0,0,-
BRDA:350,0,1,-
BRDA:1070,0,0,-
BRDA:1070,0,1,-
BRDA:1077,0,0,-
BRDA:1077,0,1,-
BRF:10
BRH:0
DA:151,0
DA:152,0
DA:172,0
DA:175,0
DA:187,0
DA:188,0
DA:191,0
DA:193,0
DA:198,0
DA:199,0
DA:317,0
DA:321,0
DA:324,0
DA:328,0
DA:331,0
DA:332,0
DA:333,0
DA:334,0
DA:337,0
DA:343,0
DA:346,0
DA:347,0
DA:348,0
DA:350,0
DA:351,0
DA:353,0
DA:354,0
DA:908,0
DA:909,0
DA:1068,0
DA:1070,0
DA:1071,0
DA:1072,0
DA:1074,0
DA:1075,0
DA:1077,0
DA:1078,0
DA:1079,0
DA:1097,0
DA:1099,0
DA:1100,0
DA:1101,0
DA:1102,0
DA:1117,0
DA:1118,0
DA:1522,18
DA:1524,0
DA:1699,82
DA:1700,82
LF:49
LH:3
end_of_record
TN:
SF:/usr/include/c++/13/bits/std_function.h
FN:239,239,_ZNSt14_Function_baseC2Ev
FN:241,245,_ZNSt14_Function_baseD2Ev
FN:247,247,_ZNKSt14_Function_base8_M_emptyEv
FN:368,369,_ZNSt8functionIFvN12media_player8services13PlaybackStateEEEC2Ev
FN:368,369,_ZNSt8functionIFvRKNSt7__cxx1112basic_stringIcSt11char_traitsIcESaIcEEEEEC2Ev
FN:368,369,_ZNSt8functionIFvSt6vectorIN12media_player6models14MediaFileModelESaIS3_EEEEC2Ev
FN:368,369,_ZNSt8functionIFviRKNSt7__cxx1112basic_stringIcSt11char_traitsIcESaIcEEEEEC2Ev
FN:368,369,_ZNSt8functionIFviiEEC2Ev
FN:368,369,_ZNSt8functionIFviiRKNSt7__cxx1112basic_stringIcSt11char_traitsIcESaIcEEEEEC2Ev
FN:368,369,_ZNSt8functionIFvvEEC2Ev
FN:386,395,_ZNSt8functionIFvN12media_player8services13PlaybackStateEEEC2ERKS4_
FN:386,395,_ZNSt8functionIFvRKNSt7__cxx1112basic_stringIcSt11char_traitsIcESaIcEEEEEC2ERKS9_
FN:386,395,_ZNSt8functionIFvSt6vectorIN12media_player6models14MediaFileModelESaIS3_EEEEC2ERKS7_
FN:386,395,_ZNSt8functionIFviRKNSt7__cxx1112basic_stringIcSt11char_traitsIcESaIcEEEEEC2ERKS9_
FN:386,395,_ZNSt8functionIFviiEEC2ERKS1_
FN:386,395,_ZNSt8functionIFviiRKNSt7__cxx1112basic_stringIcSt11char_traitsIcESaIcEEEEEC2ERKS9_
FN:386,395,_ZNSt8functionIFvvEEC2ERKS1_
FN:469,473,_ZNSt8functionIFvN12media_player8services13PlaybackStateEEEaSERKS4_
FN:469,473,_ZNSt8functionIFvRKNSt7__cxx1112basic_stringIcSt11char_traitsIcESaIcEEEEEaSERKS9_
FN:469,473,_ZNSt8functionIFvSt6vectorIN12media_player6models14MediaFileModelESaIS3_EEEEaSERKS7_
FN:469,473,_ZNSt8functionIFviRKNSt7__cxx1112basic_stringIcSt11char_traitsIcESaIcEEEEEaSERKS9_
FN:469,473,_ZNSt8functionIFviiEEaSERKS1_
FN:469,473,_ZNSt8functionIFviiRKNSt7__cxx1112basic_stringIcSt11char_traitsIcESaIcEEEEEaSERKS9_
FN:469,473,_ZNSt8functionIFvvEEaSERKS1_
FN:556,561,_ZNSt8functionIFvN12media_player8services13PlaybackStateEEE4swapERS4_
FN:556,561,_ZNSt8functionIFvRKNSt7__cxx1112basic_stringIcSt11char_traitsIcESaIcEEEEE4swapERS9_
FN:556,561,_ZNSt8functionIFvSt6vectorIN12media_player6models14MediaFileModelESaIS3_EEEE4swapERS7_
FN:556,561,_ZNSt8functionIFviRKNSt7__cxx1112basic_stringIcSt11char_traitsIcESaIcEEEEE4swapERS9_
FN:556,561,_ZNSt8functionIFviiEE4swapERS1_
FN:556,561,_ZNSt8functionIFviiRKNSt7__cxx1112basic_stringIcSt11char_traitsIcESaIcEEEEE4swapERS9_
FN:556,561,_ZNSt8functionIFvvEE4swapERS1_
FN:573,574,_ZNKSt8functionIFvN12media_player8services13PlaybackStateEEEcvbEv
FN:573,574,_ZNKSt8functionIFvRKNSt7__cxx1112basic_stringIcSt11char_traitsIcESaIcEEEEEcvbEv
FN:573,574,_ZNKSt8functionIFvSt6vectorIN12media_player6models14MediaFileModelESaIS3_EEEEcvbEv
FN:573,574,_ZNKSt8functionIFviRKNSt7__cxx1112basic_stringIcSt11char_traitsIcESaIcEEEEEcvbEv
FN:573,574,_ZNKSt8functionIFviiEEcvbEv
FN:573,574,_ZNKSt8functionIFviiRKNSt7__cxx1112basic_stringIcSt11char_traitsIcESaIcEEEEEcvbEv
FN:573,574,_ZNKSt8functionIFvvEEcvbEv
FN:587,592,_ZNKSt8functionIFvN12media_player8services13PlaybackStateEEEclES2_
FN:587,592,_ZNKSt8functionIFvRKNSt7__cxx1112basic_stringIcSt11char_traitsIcESaIcEEEEEclES7_
FN:587,592,_ZNKSt8functionIFvSt6vectorIN12media_player6models14MediaFileModelESaIS3_EEEEclES5_
FN:587,592,_ZNKSt8functionIFviRKNSt7__cxx1112basic_stringIcSt11char_traitsIcESaIcEEEEEclEiS7_
FN:587,592,_ZNKSt8functionIFviiEEclEii
FN:587,592,_ZNKSt8functionIFviiRKNSt7__cxx1112basic_stringIcSt11char_traitsIcESaIcEEEEEclEiiS7_
FN:587,592,_ZNKSt8functionIFvvEEclEv
FNDA:0,_ZNSt14_Function_baseC2Ev
FNDA:0,_ZNSt14_Function_baseD2Ev
FNDA:0,_ZNKSt14_Function_base8_M_emptyEv
FNDA:0,_ZNSt8functionIFvN12media_player8services13PlaybackStateEEEC2Ev
FNDA:0,_ZNSt8functionIFvRKNSt7__cxx1112basic_stringIcSt11char_traitsIcESaIcEEEEEC2Ev
FNDA:0,_ZNSt8functionIFvSt6vectorIN12media_player6models14MediaFileModelESaIS3_EEEEC2Ev
FNDA:0,_ZNSt8functionIFviRKNSt7__cxx1112basic_stringIcSt11char_traitsIcESaIcEEEEEC2Ev
FNDA:0,_ZNSt8functionIFviiEEC2Ev
FNDA:13,_ZNSt8functionIFviiRKNSt7__cxx1112basic_stringIcSt11char_traitsIcESaIcEEEEEC2Ev
FNDA:0,_ZNSt8functionIFvvEEC2Ev
FNDA:0,_ZNSt8functionIFvN12media_player8services13PlaybackStateEEEC2ERKS4_
FNDA:0,_ZNSt8functionIFvRKNSt7__cxx1112basic_stringIcSt11char_traitsIcESaIcEEEEEC2ERKS9_
FNDA:0,_ZNSt8functionIFvSt6vectorIN12media_player6models14MediaFileModelESaIS3_EEEEC2ERKS7_
FNDA:0,_ZNSt8functionIFviRKNSt7__cxx1112basic_stringIcSt11char_traitsIcESaIcEEEEEC2ERKS9_
FNDA:0,_ZNSt8functionIFviiEEC2ERKS1_
FNDA:0,_ZNSt8functionIFviiRKNSt7__cxx1112basic_stringIcSt11char_traitsIcESaIcEEEEEC2ERKS9_
FNDA:0,_ZNSt8functionIFvvEEC2ERKS1_
FNDA:0,_ZNSt8functionIFvN12media_player8services13PlaybackStateEEEaSERKS4_
FNDA:0,_ZNSt8functionIFvRKNSt7__cxx1112basic_stringIcSt11char_traitsIcESaIcEEEEEaSERKS9_
FNDA:0,_ZNSt8functionIFvSt6vectorIN12media_player6models14MediaFileModelESaIS3_EEEEaSERKS7_
FNDA:0,_ZNSt8functionIFviRKNSt7__cxx1112basic_stringIcSt11char_traitsIcESaIcEEEEEaSERKS9_
FNDA:0,_ZNSt8functionIFviiEEaSERKS1_
FNDA:0,_ZNSt8functionIFviiRKNSt7__cxx1112basic_stringIcSt11char_traitsIcESaIcEEEEEaSERKS9_
FNDA:0,_ZNSt8functionIFvvEEaSERKS1_
FNDA:0,_ZNSt8functionIFvN12media_player8services13PlaybackStateEEE4swapERS4_
FNDA:0,_ZNSt8functionIFvRKNSt7__cxx1112basic_stringIcSt11char_traitsIcESaIcEEEEE4swapERS9_
FNDA:0,_ZNSt8functionIFvSt6vectorIN12media_player6models14MediaFileModelESaIS3_EEEE4swapERS7_
FNDA:0,_ZNSt8functionIFviRKNSt7__cxx1112basic_stringIcSt11char_traitsIcESaIcEEEEE4swapERS9_
FNDA:0,_ZNSt8functionIFviiEE4swapERS1_
FNDA:0,_ZNSt8functionIFviiRKNSt7__cxx1112basic_stringIcSt11char_traitsIcESaIcEEEEE4swapERS9_
FNDA:0,_ZNSt8functionIFvvEE4swapERS1_
FNDA:0,_ZNKSt8functionIFvN12media_player8services13PlaybackStateEEEcvbEv
FNDA:0,_ZNKSt8functionIFvRKNSt7__cxx1112basic_stringIcSt11char_traitsIcESaIcEEEEEcvbEv
FNDA:0,_ZNKSt8functionIFvSt6vectorIN12media_player6models14MediaFileModelESaIS3_EEEEcvbEv
FNDA:0,_ZNKSt8functionIFviRKNSt7__cxx1112basic_stringIcSt11char_traitsIcESaIcEEEEEcvbEv
FNDA:0,_ZNKSt8functionIFviiEEcvbEv
FNDA:0,_ZNKSt8functionIFviiRKNSt7__cxx1112basic_stringIcSt11char_traitsIcESaIcEEEEEcvbEv
FNDA:0,_ZNKSt8functionIFvvEEcvbEv
FNDA:0,_ZNKSt8functionIFvN12media_player8services13PlaybackStateEEEclES2_
FNDA:0,_ZNKSt8functionIFvRKNSt7__cxx1112basic_stringIcSt11char_traitsIcESaIcEEEEEclES7_
FNDA:0,_ZNKSt8functionIFvSt6vectorIN12media_player6models14MediaFileModelESaIS3_EEEEclES5_
FNDA:0,_ZNKSt8functionIFviRKNSt7__cxx1112basic_stringIcSt11char_traitsIcESaIcEEEEEclEiS7_
FNDA:0,_ZNKSt8functionIFviiEEclEii
FNDA:0,_ZNKSt8functionIFviiRKNSt7__cxx1112basic_stringIcSt11char_traitsIcESaIcEEEEEclEiiS7_
FNDA:0,_ZNKSt8functionIFvvEEclEv
FNF:45
FNH:1
BRDA:243,0,0,-
BRDA:243,0,1,-
BRDA:389,0,0,-
BRDA:389,0,1,-
BRDA:391,0,0,-
BRDA:391,e0,1,-
BRDA:471,0,0,-
BRDA:471,e0,1,-
BRDA:589,0,0,-
BRDA:589,0,1,-
BRF:10
BRH:0
DA:239,0
DA:241,0
DA:243,0
DA:244,0
DA:245,0
DA:247,0
DA:368,13
DA:369,13
DA:386,0
DA:387,0
DA:389,0
DA:391,0
DA:392,0
DA:393,0
DA:395,0
DA:469,0
DA:471,0
DA:472,0
DA:556,0
DA:558,0
DA:559,0
DA:560,0
DA:561,0
DA:573,0
DA:574,0
DA:587,0
DA:589,0
DA:590,0
DA:591,0
LF:29
LH:2
end_of_record
TN:
SF:/usr/include/c++/13/bits/std_mutex.h
FN:104,104,_ZNSt5mutexC2Ev
FN:111,118,_ZNSt5mutex4lockEv
FN:129,133,_ZNSt5mutex6unlockEv
FN:248,249,_ZNSt10lock_guardISt5mutexEC2ERS0_
FN:254,255,_ZNSt10lock_guardISt5mutexED2Ev
FN:67,67,_ZNSt12__mutex_baseC2Ev
FNDA:0,_ZNSt5mutexC2Ev
FNDA:0,_ZNSt5mutex4lockEv
FNDA:0,_ZNSt5mutex6unlockEv
FNDA:0,_ZNSt10lock_guardISt5mutexEC2ERS0_
FNDA:0,_ZNSt10lock_guardISt5mutexED2Ev
FNDA:0,_ZNSt12__mutex_baseC2Ev
FNF:6
FNH:0
BRDA:116,0,0,-
BRDA:116,0,1,-
BRF:2
BRH:0
DA:67,0
DA:104,0
DA:111,0
DA:113,0
DA:116,0
DA:117,0
DA:118,0
DA:129,0
DA:132,0
DA:133,0
DA:248,0
DA:249,0
DA:254,0
DA:255,0
LF:14
LH:0
end_of_record
TN:
SF:/usr/include/c++/13/bits/std_thread.h
FN:143,148,_ZNSt6thread24_M_thread_deps_never_runEv
FN:154,167,_ZNSt6threadC2IMN12media_player8services11FileScannerEFvRKNSt7__cxx1112basic_stringIcSt11char_traitsIcESaIcEEEEJPS3_SB_EvEEOT_DpOT0_
FN:154,167,_ZNSt6threadC2IMN12media_player8services19AudioPlaybackEngineEFvvEJPS3_EvEEOT_DpOT0_
FN:154,167,_ZNSt6threadC2IMN12media_player8services19SerialCommunicationEFvvEJPS3_EvEEOT_DpOT0_
FN:170,174,_ZNSt6threadD2Ev
FN:196,197,_ZNKSt6thread8joinableEv
FN:239,241,_ZNSt6thread11_State_implINS_8_InvokerISt5tupleIJMN12media_player8services11FileScannerEFvRKNSt7__cxx1112basic_stringIcSt11char_traitsIcESaIcEEEEPS5_SB_EEEEEC2IJSF_SG_SD_EEEDpOT_
FN:239,241,_ZNSt6thread11_State_implINS_8_InvokerISt5tupleIJMN12media_player8services19AudioPlaybackEngineEFvvEPS5_EEEEEC2IJS7_S8_EEEDpOT_
FN:239,241,_ZNSt6thread11_State_implINS_8_InvokerISt5tupleIJMN12media_player8services19SerialCommunicationEFvvEPS5_EEEEEC2IJS7_S8_EEEDpOT_
FN:244,244,_ZNSt6thread11_State_implINS_8_InvokerISt5tupleIJMN12media_player8services11FileScannerEFvRKNSt7__cxx1112basic_stringIcSt11char_traitsIcESaIcEEEEPS5_SB_EEEEE6_M_runEv
FN:244,244,_ZNSt6thread11_State_implINS_8_InvokerISt5tupleIJMN12media_player8services19AudioPlaybackEngineEFvvEPS5_EEEEE6_M_runEv
FN:244,244,_ZNSt6thread11_State_implINS_8_InvokerISt5tupleIJMN12media_player8services19SerialCommunicationEFvvEPS5_EEEEE6_M_runEv
FN:276,278,_ZNSt6thread8_InvokerISt5tupleIJMN12media_player8services11FileScannerEFvRKNSt7__cxx1112basic_stringIcSt11char_traitsIcESaIcEEEEPS4_SA_EEEC2IJSE_SF_SC_EEEDpOT_
FN:276,278,_ZNSt6thread8_InvokerISt5tupleIJMN12media_player8services19AudioPlaybackEngineEFvvEPS4_EEEC2IJS6_S7_EEEDpOT_
FN:276,278,_ZNSt6thread8_InvokerISt5tupleIJMN12media_player8services19SerialCommunicationEFvvEPS4_EEEC2IJS6_S7_EEEDpOT_
FN:291,292,_ZNSt6thread8_InvokerISt5tupleIJMN12media_player8services11FileScannerEFvRKNSt7__cxx1112basic_stringIcSt11char_traitsIcESaIcEEEEPS4_SA_EEE9_M_invokeIJLm0ELm1ELm2EEEEvSt12_Index_tupleIJXspT_EEE
FN:291,292,_ZNSt6thread8_InvokerISt5tupleIJMN12media_player8services19AudioPlaybackEngineEFvvEPS4_EEE9_M_invokeIJLm0ELm1EEEEvSt12_Index_tupleIJXspT_EEE
FN:291,292,_ZNSt6thread8_InvokerISt5tupleIJMN12media_player8services19SerialCommunicationEFvvEPS4_EEE9_M_invokeIJLm0ELm1EEEEvSt12_Index_tupleIJXspT_EEE
FN:295,300,_ZNSt6thread8_InvokerISt5tupleIJMN12media_player8services11FileScannerEFvRKNSt7__cxx1112basic_stringIcSt11char_traitsIcESaIcEEEEPS4_SA_EEEclEv
FN:295,300,_ZNSt6thread8_InvokerISt5tupleIJMN12media_player8services19AudioPlaybackEngineEFvvEPS4_EEEclEv
FN:295,300,_ZNSt6thread8_InvokerISt5tupleIJMN12media_player8services19SerialCommunicationEFvvEPS4_EEEclEv
FN:324,331,_ZSteqNSt6thread2idES0_
FN:97,97,_ZNSt6thread2idC2Ev
FNDA:0,_ZNSt6thread24_M_thread_deps_never_runEv
FNDA:3,_ZNSt6threadC2IMN12media_player8services11FileScannerEFvRKNSt7__cxx1112basic_stringIcSt11char_traitsIcESaIcEEEEJPS3_SB_EvEEOT_DpOT0_
FNDA:47,_ZNSt6threadC2IMN12media_player8services19AudioPlaybackEngineEFvvEJPS3_EvEEOT_DpOT0_
FNDA:4,_ZNSt6threadC2IMN12media_player8services19SerialCommunicationEFvvEJPS3_EvEEOT_DpOT0_
FNDA:0,_ZNSt6threadD2Ev
FNDA:0,_ZNKSt6thread8joinableEv
FNDA:3,_ZNSt6thread11_State_implINS_8_InvokerISt5tupleIJMN12media_player8services11FileScannerEFvRKNSt7__cxx1112basic_stringIcSt11char_traitsIcESaIcEEEEPS5_SB_EEEEEC2IJSF_SG_SD_EEEDpOT_
FNDA:47,_ZNSt6thread11_State_implINS_8_InvokerISt5tupleIJMN12media_player8services19AudioPlaybackEngineEFvvEPS5_EEEEEC2IJS7_S8_EEEDpOT_
FNDA:4,_ZNSt6thread11_State_implINS_8_InvokerISt5tupleIJMN12media_player8services19SerialCommunicationEFvvEPS5_EEEEEC2IJS7_S8_EEEDpOT_
FNDA:3,_ZNSt6thread11_State_implINS_8_InvokerISt5tupleIJMN12media_player8services11FileScannerEFvRKNSt7__cxx1112basic_stringIcSt11char_traitsIcESaIcEEEEPS5_SB_EEEEE6_M_runEv
FNDA:47,_ZNSt6thread11_State_implINS_8_InvokerISt5tupleIJMN12media_player8services19AudioPlaybackEngineEFvvEPS5_EEEEE6_M_runEv
FNDA:4,_ZNSt6thread11_State_implINS_8_InvokerISt5tupleIJMN12media_player8services19SerialCommunicationEFvvEPS5_EEEEE6_M_runEv
FNDA:3,_ZNSt6thread8_InvokerISt5tupleIJMN12media_player8services11FileScannerEFvRKNSt7__cxx1112basic_stringIcSt11char_traitsIcESaIcEEEEPS4_SA_EEEC2IJSE_SF_SC_EEEDpOT_
FNDA:47,_ZNSt6thread8_InvokerISt5tupleIJMN12media_player8services19AudioPlaybackEngineEFvvEPS4_EEEC2IJS6_S7_EEEDpOT_
FNDA:4,_ZNSt6thread8_InvokerISt5tupleIJMN12media_player8services19SerialCommunicationEFvvEPS4_EEEC2IJS6_S7_EEEDpOT_
FNDA:3,_ZNSt6thread8_InvokerISt5tupleIJMN12media_player8services11FileScannerEFvRKNSt7__cxx1112basic_stringIcSt11char_traitsIcESaIcEEEEPS4_SA_EEE9_M_invokeIJLm0ELm1ELm2EEEEvSt12_Index_tupleIJXspT_EEE
FNDA:47,_ZNSt6thread8_InvokerISt5tupleIJMN12media_player8services19AudioPlaybackEngineEFvvEPS4_EEE9_M_invokeIJLm0ELm1EEEEvSt12_Index_tupleIJXspT_EEE
FNDA:4,_ZNSt6thread8_InvokerISt5tupleIJMN12media_player8services19SerialCommunicationEFvvEPS4_EEE9_M_invokeIJLm0ELm1EEEEvSt12_Index_tupleIJXspT_EEE
FNDA:3,_ZNSt6thread8_InvokerISt5tupleIJMN12media_player8services11FileScannerEFvRKNSt7__cxx1112basic_stringIcSt11char_traitsIcESaIcEEEEPS4_SA_EEEclEv
FNDA:47,_ZNSt6thread8_InvokerISt5tupleIJMN12media_player8services19AudioPlaybackEngineEFvvEPS4_EEEclEv
FNDA:4,_ZNSt6thread8_InvokerISt5tupleIJMN12media_player8services19SerialCommunicationEFvvEPS4_EEEclEv
FNDA:0,_ZSteqNSt6thread2idES0_
FNDA:0,_ZNSt6thread2idC2Ev
FNF:23
FNH:18
BRDA:164,0,0,54
BRDA:164,e0,1,0
BRDA:164,0,2,54
BRDA:164,e0,3,0
BRDA:164,0,4,54
BRDA:164,e0,5,0
BRDA:164,0,6,0
BRDA:164,0,7,0
BRDA:172,0,0,-
BRDA:172,0,1,-
BRDA:240,0,0,54
BRDA:240,e0,1,0
BRF:12
BRH:4
DA:97,0
DA:143,0
DA:148,0
DA:154,54
DA:155,54
DA:164,54
DA:167,54
DA:170,0
DA:172,0
DA:174,0
DA:196,0
DA:197,0
DA:239,54
DA:240,54
DA:241,54
DA:244,54
DA:276,54
DA:277,54
DA:278,54
DA:291,54
DA:292,54
DA:295,54
DA:299,54
DA:324,0
DA:330,0
LF:25
LH:15
end_of_record
TN:
SF:/usr/include/c++/13/bits/stl_algo.h
FN:3889,3899,_ZSt4findIN9__gnu_cxx17__normal_iteratorIPKNSt7__cxx1112basic_stringIcSt11char_traitsIcESaIcEEESt6vectorIS7_SaIS7_EEEES7_ET_SE_SE_RKT0_
FN:3889,3899,_ZSt4findIN9__gnu_cxx17__normal_iteratorIPNSt7__cxx1112basic_stringIcSt11char_traitsIcESaIcEEESt6vectorIS7_SaIS7_EEEES7_ET_SD_SD_RKT0_
FN:4298,4311,_ZSt9transformIN9__gnu_cxx17__normal_iteratorIPcNSt7__cxx1112basic_stringIcSt11char_traitsIcESaIcEEEEES9_PDoFiiEET0_T_SD_SC_T1_
FNDA:0,_ZSt4findIN9__gnu_cxx17__normal_iteratorIPKNSt7__cxx1112basic_stringIcSt11char_traitsIcESaIcEEESt6vectorIS7_SaIS7_EEEES7_ET_SE_SE_RKT0_
FNDA:26,_ZSt4findIN9__gnu_cxx17__normal_iteratorIPNSt7__cxx1112basic_stringIcSt11char_traitsIcESaIcEEESt6vectorIS7_SaIS7_EEEES7_ET_SD_SD_RKT0_
FNDA:0,_ZSt9transformIN9__gnu_cxx17__normal_iteratorIPcNSt7__cxx1112basic_stringIcSt11char_traitsIcESaIcEEEEES9_PDoFiiEET0_T_SD_SC_T1_
FNF:3
FNH:1
BRDA:4308,0,0,-
BRDA:4308,0,1,-
BRF:2
BRH:0
DA:3889,26
DA:3897,26
DA:3898,26
DA:4298,0
DA:4308,0
DA:4309,0
DA:4310,0
LF:7
LH:3
end_of_record
TN:
SF:/usr/include/c++/13/bits/stl_algobase.h
FN:1018,1018,_ZSt17__size_to_integerm
FN:1117,1130,_ZSt10__fill_n_aIPhmhET_S1_T0_RKT1_St26random_access_iterator_tag
FN:1152,1159,_ZSt6fill_nIPhmhET_S1_T0_RKT1_
FN:2064,2110,_ZSt9__find_ifIN9__gnu_cxx17__normal_iteratorIPKNSt7__cxx1112basic_stringIcSt11char_traitsIcESaIcEEESt6vectorIS7_SaIS7_EEEENS0_5__ops16_Iter_equals_valIS8_EEET_SH_SH_T0_St26random_access_iterator_tag
FN:2064,2110,_ZSt9__find_ifIN9__gnu_cxx17__normal_iteratorIPNSt7__cxx1112basic_stringIcSt11char_traitsIcESaIcEEESt6vectorIS7_SaIS7_EEEENS0_5__ops16_Iter_equals_valIKS7_EEET_SH_SH_T0_St26random_access_iterator_tag
FN:2115,2119,_ZSt9__find_ifIN9__gnu_cxx17__normal_iteratorIPKNSt7__cxx1112basic_stringIcSt11char_traitsIcESaIcEEESt6vectorIS7_SaIS7_EEEENS0_5__ops16_Iter_equals_valIS8_EEET_SH_SH_T0_
FN:2115,2119,_ZSt9__find_ifIN9__gnu_cxx17__normal_iteratorIPNSt7__cxx1112basic_stringIcSt11char_traitsIcESaIcEEESt6vectorIS7_SaIS7_EEEENS0_5__ops16_Iter_equals_valIKS7_EEET_SH_SH_T0_
FN:233,241,_ZSt3minImERKT_S2_S2_
FN:257,265,_ZSt3maxImERKT_S2_S2_
FN:316,318,_ZSt12__niter_baseIPN12media_player6models14MediaFileModelEET_S4_
FN:316,318,_ZSt12__niter_baseIPNSt7__cxx1112basic_stringIcSt11char_traitsIcESaIcEEEET_S7_
FN:316,318,_ZSt12__niter_baseIPhET_S1_
FN:331,332,_ZSt12__niter_wrapIN9__gnu_cxx17__normal_iteratorIPNSt7__cxx1112basic_stringIcSt11char_traitsIcESaIcEEESt6vectorIS7_SaIS7_EEEES8_ET_SD_T0_
FN:338,339,_ZSt12__niter_wrapIPNSt7__cxx1112basic_stringIcSt11char_traitsIcESaIcEEEET_RKS7_S7_
FN:338,339,_ZSt12__niter_wrapIPhET_RKS1_S1_
FN:383,393,_ZNSt11__copy_moveILb0ELb0ESt26random_access_iterator_tagE8__copy_mIPKNSt7__cxx1112basic_stringIcSt11char_traitsIcESaIcEEEPS8_EET0_T_SD_SC_
FN:383,393,_ZNSt11__copy_moveILb0ELb0ESt26random_access_iterator_tagE8__copy_mIPNSt7__cxx1112basic_stringIcSt11char_traitsIcESaIcEEES9_EET0_T_SB_SA_
FN:383,393,_ZNSt11__copy_moveILb0ELb0ESt26random_access_iterator_tagE8__copy_mIPcPhEET0_T_S6_S5_
FN:497,507,_ZSt14__copy_move_a2ILb0EPKNSt7__cxx1112basic_stringIcSt11char_traitsIcESaIcEEEPS5_ET1_T0_SA_S9_
FN:497,507,_ZSt14__copy_move_a2ILb0EPNSt7__cxx1112basic_stringIcSt11char_traitsIcESaIcEEES6_ET1_T0_S8_S7_
FN:497,507,_ZSt14__copy_move_a2ILb0EPcPhET1_T0_S3_S2_
FN:532,533,_ZSt14__copy_move_a1ILb0EPKNSt7__cxx1112basic_stringIcSt11char_traitsIcESaIcEEEPS5_ET1_T0_SA_S9_
FN:532,533,_ZSt14__copy_move_a1ILb0EPNSt7__cxx1112basic_stringIcSt11char_traitsIcESaIcEEES6_ET1_T0_S8_S7_
FN:532,533,_ZSt14__copy_move_a1ILb0EPcPhET1_T0_S3_S2_
FN:538,544,_ZSt13__copy_move_aILb0EN9__gnu_cxx17__normal_iteratorIPKNSt7__cxx1112basic_stringIcSt11char_traitsIcESaIcEEESt6vectorIS7_SaIS7_EEEENS1_IPS7_SC_EEET1_T0_SH_SG_
FN:538,544,_ZSt13__copy_move_aILb0EN9__gnu_cxx17__normal_iteratorIPcSt6vectorIcSaIcEEEEPhET1_T0_S9_S8_
FN:538,544,_ZSt13__copy_move_aILb0EPNSt7__cxx1112basic_stringIcSt11char_traitsIcESaIcEEES6_ET1_T0_S8_S7_
FN:624,634,_ZSt4copyIN9__gnu_cxx17__normal_iteratorIPKNSt7__cxx1112basic_stringIcSt11char_traitsIcESaIcEEESt6vectorIS7_SaIS7_EEEENS1_IPS7_SC_EEET0_T_SH_SG_
FN:624,634,_ZSt4copyIN9__gnu_cxx17__normal_iteratorIPcSt6vectorIcSaIcEEEEPhET0_T_S9_S8_
FN:624,634,_ZSt4copyIPNSt7__cxx1112basic_stringIcSt11char_traitsIcESaIcEEES6_ET0_T_S8_S7_
FN:939,952,_ZSt9__fill_a1IhEN9__gnu_cxx11__enable_ifIXsrSt9__is_byteIT_E7__valueEvE6__typeEPS3_S7_RKS3_
FN:976,977,_ZSt8__fill_aIPhhEvT_S1_RKT0_
FNDA:0,_ZSt17__size_to_integerm
FNDA:1,_ZSt10__fill_n_aIPhmhET_S1_T0_RKT1_St26random_access_iterator_tag
FNDA:1,_ZSt6fill_nIPhmhET_S1_T0_RKT1_
FNDA:0,_ZSt9__find_ifIN9__gnu_cxx17__normal_iteratorIPKNSt7__cxx1112basic_stringIcSt11char_traitsIcESaIcEEESt6vectorIS7_SaIS7_EEEENS0_5__ops16_Iter_equals_valIS8_EEET_SH_SH_T0_St26random_access_iterator_tag
FNDA:26,_ZSt9__find_ifIN9__gnu_cxx17__normal_iteratorIPNSt7__cxx1112basic_stringIcSt11char_traitsIcESaIcEEESt6vectorIS7_SaIS7_EEEENS0_5__ops16_Iter_equals_valIKS7_EEET_SH_SH_T0_St26random_access_iterator_tag
FNDA:0,_ZSt9__find_ifIN9__gnu_cxx17__normal_iteratorIPKNSt7__cxx1112basic_stringIcSt11char_traitsIcESaIcEEESt6vectorIS7_SaIS7_EEEENS0_5__ops16_Iter_equals_valIS8_EEET_SH_SH_T0_
FNDA:26,_ZSt9__find_ifIN9__gnu_cxx17__normal_iteratorIPNSt7__cxx1112basic_stringIcSt11char_traitsIcESaIcEEESt6vectorIS7_SaIS7_EEEENS0_5__ops16_Iter_equals_valIKS7_EEET_SH_SH_T0_
FNDA:0,_ZSt3minImERKT_S2_S2_
FNDA:0,_ZSt3maxImERKT_S2_S2_
FNDA:0,_ZSt12__niter_baseIPN12media_player6models14MediaFileModelEET_S4_
FNDA:0,_ZSt12__niter_baseIPNSt7__cxx1112basic_stringIcSt11char_traitsIcESaIcEEEET_S7_
FNDA:0,_ZSt12__niter_baseIPhET_S1_
FNDA:0,_ZSt12__niter_wrapIN9__gnu_cxx17__normal_iteratorIPNSt7__cxx1112basic_stringIcSt11char_traitsIcESaIcEEESt6vectorIS7_SaIS7_EEEES8_ET_SD_T0_
FNDA:0,_ZSt12__niter_wrapIPNSt7__cxx1112basic_stringIcSt11char_traitsIcESaIcEEEET_RKS7_S7_
FNDA:0,_ZSt12__niter_wrapIPhET_RKS1_S1_
FNDA:0,_ZNSt11__copy_moveILb0ELb0ESt26random_access_iterator_tagE8__copy_mIPKNSt7__cxx1112basic_stringIcSt11char_traitsIcESaIcEEEPS8_EET0_T_SD_SC_
FNDA:0,_ZNSt11__copy_moveILb0ELb0ESt26random_access_iterator_tagE8__copy_mIPNSt7__cxx1112basic_stringIcSt11char_traitsIcESaIcEEES9_EET0_T_SB_SA_
FNDA:0,_ZNSt11__copy_moveILb0ELb0ESt26random_access_iterator_tagE8__copy_mIPcPhEET0_T_S6_S5_
FNDA:0,_ZSt14__copy_move_a2ILb0EPKNSt7__cxx1112basic_stringIcSt11char_traitsIcESaIcEEEPS5_ET1_T0_SA_S9_
FNDA:0,_ZSt14__copy_move_a2ILb0EPNSt7__cxx1112basic_stringIcSt11char_traitsIcESaIcEEES6_ET1_T0_S8_S7_
FNDA:0,_ZSt14__copy_move_a2ILb0EPcPhET1_T0_S3_S2_
FNDA:0,_ZSt14__copy_move_a1ILb0EPKNSt7__cxx1112basic_stringIcSt11char_traitsIcESaIcEEEPS5_ET1_T0_SA_S9_
FNDA:0,_ZSt14__copy_move_a1ILb0EPNSt7__cxx1112basic_stringIcSt11char_traitsIcESaIcEEES6_ET1_T0_S8_S7_
FNDA:0,_ZSt14__copy_move_a1ILb0EPcPhET1_T0_S3_S2_
FNDA:0,_ZSt13__copy_move_aILb0EN9__gnu_cxx17__normal_iteratorIPKNSt7__cxx1112basic_stringIcSt11char_traitsIcESaIcEEESt6vectorIS7_SaIS7_EEEENS1_IPS7_SC_EEET1_T0_SH_SG_
FNDA:0,_ZSt13__copy_move_aILb0EN9__gnu_cxx17__normal_iteratorIPcSt6vectorIcSaIcEEEEPhET1_T0_S9_S8_
FNDA:0,_ZSt13__copy_move_aILb0EPNSt7__cxx1112basic_stringIcSt11char_traitsIcESaIcEEES6_ET1_T0_S8_S7_
FNDA:0,_ZSt4copyIN9__gnu_cxx17__normal_iteratorIPKNSt7__cxx1112basic_stringIcSt11char_traitsIcESaIcEEESt6vectorIS7_SaIS7_EEEENS1_IPS7_SC_EEET0_T_SH_SG_
FNDA:0,_ZSt4copyIN9__gnu_cxx17__normal_iteratorIPcSt6vectorIcSaIcEEEEPhET0_T_S9_S8_
FNDA:0,_ZSt4copyIPNSt7__cxx1112basic_stringIcSt11char_traitsIcESaIcEEES6_ET0_T_S8_S7_
FNDA:1,_ZSt9__fill_a1IhEN9__gnu_cxx11__enable_ifIXsrSt9__is_byteIT_E7__valueEvE6__typeEPS3_S7_RKS3_
FNDA:1,_ZSt8__fill_aIPhhEvT_S1_RKT0_
FNF:32
FNH:6
BRDA:238,0,0,-
BRDA:238,0,1,-
BRDA:262,0,0,-
BRDA:262,0,1,-
BRDA:386,0,0,-
BRDA:386,0,1,-
BRDA:950,0,0,1
BRDA:950,0,1,0
BRDA:1123,0,0,0
BRDA:1123,0,1,1
BRDA:2070,0,0,26
BRDA:2070,0,1,9
BRDA:2072,0,0,9
BRDA:2072,0,1,17
BRDA:2076,0,0,4
BRDA:2076,0,1,13
BRDA:2080,0,0,2
BRDA:2080,0,1,11
BRDA:2084,0,0,2
BRDA:2084,0,1,9
BRDA:2089,0,0,0
BRDA:2089,0,1,0
BRDA:2089,0,2,0
BRDA:2089,0,3,9
BRDA:2092,0,0,-
BRDA:2092,0,1,-
BRDA:2097,0,0,-
BRDA:2097,0,1,-
BRDA:2102,0,0,-
BRDA:2102,0,1,-
BRF:30
BRH:13
DA:233,0
DA:238,0
DA:239,0
DA:240,0
DA:257,0
DA:262,0
DA:263,0
DA:264,0
DA:316,0
DA:318,0
DA:331,0
DA:332,0
DA:338,0
DA:339,0
DA:383,0
DA:386,0
DA:388,0
DA:389,0
DA:390,0
DA:392,0
DA:497,0
DA:506,0
DA:532,0
DA:533,0
DA:538,0
DA:540,0
DA:543,0
DA:624,0
DA:633,0
DA:939,1
DA:941,1
DA:950,1
DA:951,1
DA:952,1
DA:976,1
DA:977,1
DA:1018,0
DA:1117,1
DA:1123,1
DA:1124,0
DA:1128,1
DA:1129,1
DA:1152,1
DA:1157,1
DA:1158,2
DA:2064,26
DA:2068,26
DA:2070,35
DA:2072,26
DA:2073,9
DA:2074,17
DA:2076,17
DA:2077,4
DA:2078,13
DA:2080,13
DA:2081,2
DA:2082,11
DA:2084,11
DA:2085,2
DA:2086,9
DA:2089,9
DA:2091,0
DA:2092,0
DA:2093,0
DA:2094,0
DA:2096,0
DA:2097,0
DA:2098,0
DA:2099,0
DA:2101,0
DA:2102,0
DA:2103,0
DA:2104,0
DA:2106,9
DA:2108,9
DA:2115,26
DA:2117,26
DA:2118,26
LF:78
LH:35
end_of_record
TN:
SF:/usr/include/c++/13/bits/stl_construct.h
FN:109,120,_ZSt10_ConstructIN12media_player6models14MediaFileModelEJRKS2_EEvPT_DpOT0_
FN:109,120,_ZSt10_ConstructINSt7__cxx1112basic_stringIcSt11char_traitsIcESaIcEEEJRKPKcEEvPT_DpOT0_
FN:109,120,_ZSt10_ConstructINSt7__cxx1112basic_stringIcSt11char_traitsIcESaIcEEEJRKS5_EEvPT_DpOT0_
FN:109,120,_ZSt10_ConstructINSt7__cxx1112basic_stringIcSt11char_traitsIcESaIcEEEJRS5_EEvPT_DpOT0_
FN:109,120,_ZSt10_ConstructIhJEEvPT_DpOT0_
FN:146,153,_ZSt8_DestroyIN12media_player6models14MediaFileModelEEvPT_
FN:146,153,_ZSt8_DestroyINSt7__cxx1112basic_stringIcSt11char_traitsIcESaIcEEEEvPT_
FN:160,164,_ZNSt12_Destroy_auxILb0EE9__destroyIN9__gnu_cxx17__normal_iteratorIPNSt7__cxx1112basic_stringIcSt11char_traitsIcESaIcEEESt6vectorIS9_SaIS9_EEEEEEvT_SF_
FN:160,164,_ZNSt12_Destroy_auxILb0EE9__destroyIPN12media_player6models14MediaFileModelEEEvT_S6_
FN:160,164,_ZNSt12_Destroy_auxILb0EE9__destroyIPNSt7__cxx1112basic_stringIcSt11char_traitsIcESaIcEEEEEvT_S9_
FN:172,172,_ZNSt12_Destroy_auxILb1EE9__destroyIPhEEvT_S3_
FN:182,197,_ZSt8_DestroyIN9__gnu_cxx17__normal_iteratorIPNSt7__cxx1112basic_stringIcSt11char_traitsIcESaIcEEESt6vectorIS7_SaIS7_EEEEEvT_SD_
FN:182,197,_ZSt8_DestroyIPN12media_player6models14MediaFileModelEEvT_S4_
FN:182,197,_ZSt8_DestroyIPNSt7__cxx1112basic_stringIcSt11char_traitsIcESaIcEEEEvT_S7_
FN:182,197,_ZSt8_DestroyIPhEvT_S1_
FNDA:0,_ZSt10_ConstructIN12media_player6models14MediaFileModelEJRKS2_EEvPT_DpOT0_
FNDA:0,_ZSt10_ConstructINSt7__cxx1112basic_stringIcSt11char_traitsIcESaIcEEEJRKPKcEEvPT_DpOT0_
FNDA:0,_ZSt10_ConstructINSt7__cxx1112basic_stringIcSt11char_traitsIcESaIcEEEJRKS5_EEvPT_DpOT0_
FNDA:0,_ZSt10_ConstructINSt7__cxx1112basic_stringIcSt11char_traitsIcESaIcEEEJRS5_EEvPT_DpOT0_
FNDA:1,_ZSt10_ConstructIhJEEvPT_DpOT0_
FNDA:0,_ZSt8_DestroyIN12media_player6models14MediaFileModelEEvPT_
FNDA:0,_ZSt8_DestroyINSt7__cxx1112basic_stringIcSt11char_traitsIcESaIcEEEEvPT_
FNDA:0,_ZNSt12_Destroy_auxILb0EE9__destroyIN9__gnu_cxx17__normal_iteratorIPNSt7__cxx1112basic_stringIcSt11char_traitsIcESaIcEEESt6vectorIS9_SaIS9_EEEEEEvT_SF_
FNDA:0,_ZNSt12_Destroy_auxILb0EE9__destroyIPN12media_player6models14MediaFileModelEEEvT_S6_
FNDA:0,_ZNSt12_Destroy_auxILb0EE9__destroyIPNSt7__cxx1112basic_stringIcSt11char_traitsIcESaIcEEEEEvT_S9_
FNDA:0,_ZNSt12_Destroy_auxILb1EE9__destroyIPhEEvT_S3_
FNDA:0,_ZSt8_DestroyIN9__gnu_cxx17__normal_iteratorIPNSt7__cxx1112basic_stringIcSt11char_traitsIcESaIcEEESt6vectorIS7_SaIS7_EEEEEvT_SD_
FNDA:0,_ZSt8_DestroyIPN12media_player6models14MediaFileModelEEvT_S4_
FNDA:0,_ZSt8_DestroyIPNSt7__cxx1112basic_stringIcSt11char_traitsIcESaIcEEEEvT_S7_
FNDA:0,_ZSt8_DestroyIPhEvT_S1_
FNF:15
FNH:1
BRDA:119,0,0,-
BRDA:119,e0,1,-
BRDA:119,0,2,-
BRDA:119,0,3,-
BRDA:162,0,0,-
BRDA:162,0,1,-
BRF:6
BRH:0
DA:109,1
DA:119,1
DA:120,1
DA:146,0
DA:151,0
DA:153,0
DA:160,0
DA:162,0
DA:163,0
DA:164,0
DA:172,0
DA:182,0
DA:196,0
DA:197,0
LF:14
LH:3
end_of_record
TN:
SF:/usr/include/c++/13/bits/stl_function.h
FN:451,458,_ZNKSt4lessIPSt16_Sp_counted_baseILN9__gnu_cxx12_Lock_policyE2EEEclES4_S4_
FNDA:0,_ZNKSt4lessIPSt16_Sp_counted_baseILN9__gnu_cxx12_Lock_policyE2EEEclES4_S4_
FNF:1
FNH:0
BRDA:454,0,0,-
BRDA:454,0,1,-
BRF:2
BRH:0
DA:451,0
DA:454,0
DA:455,0
DA:457,0
LF:4
LH:0
end_of_record
TN:
SF:/usr/include/c++/13/bits/stl_iterator.h
FN:1076,1077,_ZN9__gnu_cxx17__normal_iteratorIPKN12media_player6models14MediaFileModelESt6vectorIS3_SaIS3_EEEC2ERKS5_
FN:1076,1077,_ZN9__gnu_cxx17__normal_iteratorIPKNSt7__cxx1112basic_stringIcSt11char_traitsIcESaIcEEESt6vectorIS6_SaIS6_EEEC2ERKS8_
FN:1076,1077,_ZN9__gnu_cxx17__normal_iteratorIPKhSt6vectorIhSaIhEEEC2ERKS2_
FN:1076,1077,_ZN9__gnu_cxx17__normal_iteratorIPN12media_player6models14MediaFileModelESt6vectorIS3_SaIS3_EEEC2ERKS4_
FN:1076,1077,_ZN9__gnu_cxx17__normal_iteratorIPNSt7__cxx1112basic_stringIcSt11char_traitsIcESaIcEEESt6vectorIS6_SaIS6_EEEC2ERKS7_
FN:1099,1100,_ZNK9__gnu_cxx17__normal_iteratorIPKN12media_player6models14MediaFileModelESt6vectorIS3_SaIS3_EEEdeEv
FN:1099,1100,_ZNK9__gnu_cxx17__normal_iteratorIPKNSt7__cxx1112basic_stringIcSt11char_traitsIcESaIcEEESt6vectorIS6_SaIS6_EEEdeEv
FN:1099,1100,_ZNK9__gnu_cxx17__normal_iteratorIPNSt7__cxx1112basic_stringIcSt11char_traitsIcESaIcEEESt6vectorIS6_SaIS6_EEEdeEv
FN:1099,1100,_ZNK9__gnu_cxx17__normal_iteratorIPcNSt7__cxx1112basic_stringIcSt11char_traitsIcESaIcEEEEdeEv
FN:1109,1113,_ZN9__gnu_cxx17__normal_iteratorIPKN12media_player6models14MediaFileModelESt6vectorIS3_SaIS3_EEEppEv
FN:1109,1113,_ZN9__gnu_cxx17__normal_iteratorIPKNSt7__cxx1112basic_stringIcSt11char_traitsIcESaIcEEESt6vectorIS6_SaIS6_EEEppEv
FN:1109,1113,_ZN9__gnu_cxx17__normal_iteratorIPNSt7__cxx1112basic_stringIcSt11char_traitsIcESaIcEEESt6vectorIS6_SaIS6_EEEppEv
FN:1109,1113,_ZN9__gnu_cxx17__normal_iteratorIPcNSt7__cxx1112basic_stringIcSt11char_traitsIcESaIcEEEEppEv
FN:1147,1148,_ZNK9__gnu_cxx17__normal_iteratorIPNSt7__cxx1112basic_stringIcSt11char_traitsIcESaIcEEESt6vectorIS6_SaIS6_EEEplEl
FN:1162,1163,_ZNK9__gnu_cxx17__normal_iteratorIPKN12media_player6models14MediaFileModelESt6vectorIS3_SaIS3_EEE4baseEv
FN:1162,1163,_ZNK9__gnu_cxx17__normal_iteratorIPKNSt7__cxx1112basic_stringIcSt11char_traitsIcESaIcEEESt6vectorIS6_SaIS6_EEE4baseEv
FN:1162,1163,_ZNK9__gnu_cxx17__normal_iteratorIPKhSt6vectorIhSaIhEEE4baseEv
FN:1162,1163,_ZNK9__gnu_cxx17__normal_iteratorIPN12media_player6models14MediaFileModelESt6vectorIS3_SaIS3_EEE4baseEv
FN:1162,1163,_ZNK9__gnu_cxx17__normal_iteratorIPNSt7__cxx1112basic_stringIcSt11char_traitsIcESaIcEEESt6vectorIS6_SaIS6_EEE4baseEv
FN:1162,1163,_ZNK9__gnu_cxx17__normal_iteratorIPcNSt7__cxx1112basic_stringIcSt11char_traitsIcESaIcEEEE4baseEv
FN:1162,1163,_ZNK9__gnu_cxx17__normal_iteratorIPcSt6vectorIcSaIcEEE4baseEv
FN:1225,1228,_ZN9__gnu_cxxeqIPKhSt6vectorIhSaIhEEEEbRKNS_17__normal_iteratorIT_T0_EESB_
FN:1241,1244,_ZN9__gnu_cxxneIPKN12media_player6models14MediaFileModelESt6vectorIS3_SaIS3_EEEEbRKNS_17__normal_iteratorIT_T0_EESE_
FN:1241,1244,_ZN9__gnu_cxxneIPKNSt7__cxx1112basic_stringIcSt11char_traitsIcESaIcEEESt6vectorIS6_SaIS6_EEEEbRKNS_17__normal_iteratorIT_T0_EESH_
FN:1241,1244,_ZN9__gnu_cxxneIPNSt7__cxx1112basic_stringIcSt11char_traitsIcESaIcEEESt6vectorIS6_SaIS6_EEEEbRKNS_17__normal_iteratorIT_T0_EESG_
FN:1241,1244,_ZN9__gnu_cxxneIPcNSt7__cxx1112basic_stringIcSt11char_traitsIcESaIcEEEEEbRKNS_17__normal_iteratorIT_T0_EESD_
FN:1334,1337,_ZN9__gnu_cxxmiIPKNSt7__cxx1112basic_stringIcSt11char_traitsIcESaIcEEESt6vectorIS6_SaIS6_EEEENS_17__normal_iteratorIT_T0_E15difference_typeERKSF_SI_
FN:1334,1337,_ZN9__gnu_cxxmiIPN12media_player6models14MediaFileModelESt6vectorIS3_SaIS3_EEEENS_17__normal_iteratorIT_T0_E15difference_typeERKSB_SE_
FN:1334,1337,_ZN9__gnu_cxxmiIPNSt7__cxx1112basic_stringIcSt11char_traitsIcESaIcEEESt6vectorIS6_SaIS6_EEEENS_17__normal_iteratorIT_T0_E15difference_typeERKSE_SH_
FN:1334,1337,_ZN9__gnu_cxxmiIPcSt6vectorIcSaIcEEEENS_17__normal_iteratorIT_T0_E15difference_typeERKS8_SB_
FN:1357,1359,_ZSt12__niter_baseIPKNSt7__cxx1112basic_stringIcSt11char_traitsIcESaIcEEESt6vectorIS5_SaIS5_EEET_N9__gnu_cxx17__normal_iteratorISB_T0_EE
FN:1357,1359,_ZSt12__niter_baseIPNSt7__cxx1112basic_stringIcSt11char_traitsIcESaIcEEESt6vectorIS5_SaIS5_EEET_N9__gnu_cxx17__normal_iteratorISA_T0_EE
FN:1357,1359,_ZSt12__niter_baseIPcSt6vectorIcSaIcEEET_N9__gnu_cxx17__normal_iteratorIS4_T0_EE
FNDA:0,_ZN9__gnu_cxx17__normal_iteratorIPKN12media_player6models14MediaFileModelESt6vectorIS3_SaIS3_EEEC2ERKS5_
FNDA:0,_ZN9__gnu_cxx17__normal_iteratorIPKNSt7__cxx1112basic_stringIcSt11char_traitsIcESaIcEEESt6vectorIS6_SaIS6_EEEC2ERKS8_
FNDA:0,_ZN9__gnu_cxx17__normal_iteratorIPKhSt6vectorIhSaIhEEEC2ERKS2_
FNDA:0,_ZN9__gnu_cxx17__normal_iteratorIPN12media_player6models14MediaFileModelESt6vectorIS3_SaIS3_EEEC2ERKS4_
FNDA:0,_ZN9__gnu_cxx17__normal_iteratorIPNSt7__cxx1112basic_stringIcSt11char_traitsIcESaIcEEESt6vectorIS6_SaIS6_EEEC2ERKS7_
FNDA:0,_ZNK9__gnu_cxx17__normal_iteratorIPKN12media_player6models14MediaFileModelESt6vectorIS3_SaIS3_EEEdeEv
FNDA:0,_ZNK9__gnu_cxx17__normal_iteratorIPKNSt7__cxx1112basic_stringIcSt11char_traitsIcESaIcEEESt6vectorIS6_SaIS6_EEEdeEv
FNDA:0,_ZNK9__gnu_cxx17__normal_iteratorIPNSt7__cxx1112basic_stringIcSt11char_traitsIcESaIcEEESt6vectorIS6_SaIS6_EEEdeEv
FNDA:0,_ZNK9__gnu_cxx17__normal_iteratorIPcNSt7__cxx1112basic_stringIcSt11char_traitsIcESaIcEEEEdeEv
FNDA:0,_ZN9__gnu_cxx17__normal_iteratorIPKN12media_player6models14MediaFileModelESt6vectorIS3_SaIS3_EEEppEv
FNDA:0,_ZN9__gnu_cxx17__normal_iteratorIPKNSt7__cxx1112basic_stringIcSt11char_traitsIcESaIcEEESt6vectorIS6_SaIS6_EEEppEv
FNDA:0,_ZN9__gnu_cxx17__normal_iteratorIPNSt7__cxx1112basic_stringIcSt11char_traitsIcESaIcEEESt6vectorIS6_SaIS6_EEEppEv
FNDA:0,_ZN9__gnu_cxx17__normal_iteratorIPcNSt7__cxx1112basic_stringIcSt11char_traitsIcESaIcEEEEppEv
FNDA:0,_ZNK9__gnu_cxx17__normal_iteratorIPNSt7__cxx1112basic_stringIcSt11char_traitsIcESaIcEEESt6vectorIS6_SaIS6_EEEplEl
FNDA:0,_ZNK9__gnu_cxx17__normal_iteratorIPKN12media_player6models14MediaFileModelESt6vectorIS3_SaIS3_EEE4baseEv
FNDA:0,_ZNK9__gnu_cxx17__normal_iteratorIPKNSt7__cxx1112basic_stringIcSt11char_traitsIcESaIcEEESt6vectorIS6_SaIS6_EEE4baseEv
FNDA:0,_ZNK9__gnu_cxx17__normal_iteratorIPKhSt6vectorIhSaIhEEE4baseEv
FNDA:0,_ZNK9__gnu_cxx17__normal_iteratorIPN12media_player6models14MediaFileModelESt6vectorIS3_SaIS3_EEE4baseEv
FNDA:0,_ZNK9__gnu_cxx17__normal_iteratorIPNSt7__cxx1112basic_stringIcSt11char_traitsIcESaIcEEESt6vectorIS6_SaIS6_EEE4baseEv
FNDA:0,_ZNK9__gnu_cxx17__normal_iteratorIPcNSt7__cxx1112basic_stringIcSt11char_traitsIcESaIcEEEE4baseEv
FNDA:0,_ZNK9__gnu_cxx17__normal_iteratorIPcSt6vectorIcSaIcEEE4baseEv
FNDA:0,_ZN9__gnu_cxxeqIPKhSt6vectorIhSaIhEEEEbRKNS_17__normal_iteratorIT_T0_EESB_
FNDA:0,_ZN9__gnu_cxxneIPKN12media_player6models14MediaFileModelESt6vectorIS3_SaIS3_EEEEbRKNS_17__normal_iteratorIT_T0_EESE_
FNDA:0,_ZN9__gnu_cxxneIPKNSt7__cxx1112basic_stringIcSt11char_traitsIcESaIcEEESt6vectorIS6_SaIS6_EEEEbRKNS_17__normal_iteratorIT_T0_EESH_
FNDA:0,_ZN9__gnu_cxxneIPNSt7__cxx1112basic_stringIcSt11char_traitsIcESaIcEEESt6vectorIS6_SaIS6_EEEEbRKNS_17__normal_iteratorIT_T0_EESG_
FNDA:0,_ZN9__gnu_cxxneIPcNSt7__cxx1112basic_stringIcSt11char_traitsIcESaIcEEEEEbRKNS_17__normal_iteratorIT_T0_EESD_
FNDA:0,_ZN9__gnu_cxxmiIPKNSt7__cxx1112basic_stringIcSt11char_traitsIcESaIcEEESt6vectorIS6_SaIS6_EEEENS_17__normal_iteratorIT_T0_E15difference_typeERKSF_SI_
FNDA:0,_ZN9__gnu_cxxmiIPN12media_player6models14MediaFileModelESt6vectorIS3_SaIS3_EEEENS_17__normal_iteratorIT_T0_E15difference_typeERKSB_SE_
FNDA:0,_ZN9__gnu_cxxmiIPNSt7__cxx1112basic_stringIcSt11char_traitsIcESaIcEEESt6vectorIS6_SaIS6_EEEENS_17__normal_iteratorIT_T0_E15difference_typeERKSE_SH_
FNDA:0,_ZN9__gnu_cxxmiIPcSt6vectorIcSaIcEEEENS_17__normal_iteratorIT_T0_E15difference_typeERKS8_SB_
FNDA:0,_ZSt12__niter_baseIPKNSt7__cxx1112basic_stringIcSt11char_traitsIcESaIcEEESt6vectorIS5_SaIS5_EEET_N9__gnu_cxx17__normal_iteratorISB_T0_EE
FNDA:0,_ZSt12__niter_baseIPNSt7__cxx1112basic_stringIcSt11char_traitsIcESaIcEEESt6vectorIS5_SaIS5_EEET_N9__gnu_cxx17__normal_iteratorISA_T0_EE
FNDA:0,_ZSt12__niter_baseIPcSt6vectorIcSaIcEEET_N9__gnu_cxx17__normal_iteratorIS4_T0_EE
FNF:33
FNH:0
DA:1076,0
DA:1077,0
DA:1099,0
DA:1100,0
DA:1109,0
DA:1111,0
DA:1112,0
DA:1147,0
DA:1148,0
DA:1162,0
DA:1163,0
DA:1225,0
DA:1228,0
DA:1241,0
DA:1244,0
DA:1334,0
DA:1337,0
DA:1357,0
DA:1359,0
LF:19
LH:0
end_of_record
TN:
SF:/usr/include/c++/13/bits/stl_iterator_base_funcs.h
FNF:0
FNH:0
DA:106,0
DA:151,0
DA:152,0
LF:3
LH:0
end_of_record
TN:
SF:/usr/include/c++/13/bits/stl_iterator_base_types.h
FNF:0
FNH:0
DA:240,0
LF:1
LH:0
end_of_record
TN:
SF:/usr/include/c++/13/bits/stl_list.h
FN:1022,1023,_ZNSt7__cxx114listIPN6TagLib5ID3v25FrameESaIS4_EE5beginEv
FN:1032,1033,_ZNKSt7__cxx114listIPN6TagLib5ID3v25FrameESaIS4_EE5beginEv
FN:1042,1043,_ZNSt7__cxx114listIPN6TagLib5ID3v25FrameESaIS4_EE3endEv
FN:1052,1053,_ZNKSt7__cxx114listIPN6TagLib5ID3v25FrameESaIS4_EE3endEv
FN:110,111,_ZNSt8__detail17_List_node_headerC2Ev
FN:1143,1144,_ZNKSt7__cxx114listIPN6TagLib5ID3v25FrameESaIS4_EE5emptyEv
FN:1205,1206,_ZNSt7__cxx114listIPN6TagLib5ID3v25FrameESaIS4_EE5frontEv
FN:1223,1228,_ZNSt7__cxx114listIPN6TagLib5ID3v25FrameESaIS4_EE4backEv
FN:1319,1325,_ZNSt7__cxx114listIPN6TagLib5ID3v25FrameESaIS4_EE12emplace_backIJRKS4_EEERS4_DpOT_
FN:150,156,_ZNSt8__detail17_List_node_header7_M_initEv
FN:1592,1596,_ZNSt7__cxx114listIPN6TagLib5ID3v25FrameESaIS4_EE5clearEv
FN:1929,1938,_ZNSt7__cxx114listIPN6TagLib5ID3v25FrameESaIS4_EE22_M_initialize_dispatchISt20_List_const_iteratorIS4_EEEvT_SA_St12__false_type
FN:2003,2008,_ZNSt7__cxx114listIPN6TagLib5ID3v25FrameESaIS4_EE9_M_insertIJRKS4_EEEvSt14_List_iteratorIS4_EDpOT_
FN:238,238,_ZNSt10_List_nodeIPN6TagLib5ID3v25FrameEE9_M_valptrEv
FN:239,239,_ZNKSt10_List_nodeIPN6TagLib5ID3v25FrameEE9_M_valptrEv
FN:268,269,_ZNSt14_List_iteratorIPN6TagLib5ID3v25FrameEEC2EPNSt8__detail15_List_node_baseE
FN:278,279,_ZNKSt14_List_iteratorIPN6TagLib5ID3v25FrameEEdeEv
FN:302,306,_ZNSt14_List_iteratorIPN6TagLib5ID3v25FrameEEmmEv
FN:354,356,_ZNSt20_List_const_iteratorIPN6TagLib5ID3v25FrameEEC2EPKNSt8__detail15_List_node_baseE
FN:358,359,_ZNSt20_List_const_iteratorIPN6TagLib5ID3v25FrameEEC2ERKSt14_List_iteratorIS3_E
FN:368,369,_ZNKSt20_List_const_iteratorIPN6TagLib5ID3v25FrameEEdeEv
FN:377,381,_ZNSt20_List_const_iteratorIPN6TagLib5ID3v25FrameEEppEv
FN:414,415,_ZStneRKSt20_List_const_iteratorIPN6TagLib5ID3v25FrameEES6_
FN:471,473,_ZNSt7__cxx1110_List_baseIPN6TagLib5ID3v25FrameESaIS4_EE10_List_implC2EOSaISt10_List_nodeIS4_EE
FN:484,484,_ZNSt7__cxx1110_List_baseIPN6TagLib5ID3v25FrameESaIS4_EE11_M_inc_sizeEm
FN:517,518,_ZNSt7__cxx1110_List_baseIPN6TagLib5ID3v25FrameESaIS4_EE11_M_get_nodeEv
FN:521,522,_ZNSt7__cxx1110_List_baseIPN6TagLib5ID3v25FrameESaIS4_EE11_M_put_nodeEPSt10_List_nodeIS4_E
FN:528,529,_ZNSt7__cxx1110_List_baseIPN6TagLib5ID3v25FrameESaIS4_EE21_M_get_Node_allocatorEv
FN:532,533,_ZNKSt7__cxx1110_List_baseIPN6TagLib5ID3v25FrameESaIS4_EE21_M_get_Node_allocatorEv
FN:564,566,_ZNSt7__cxx1110_List_baseIPN6TagLib5ID3v25FrameESaIS4_EEC2EOSaISt10_List_nodeIS4_EE
FN:574,575,_ZNSt7__cxx1110_List_baseIPN6TagLib5ID3v25FrameESaIS4_EED2Ev
FN:581,582,_ZNSt7__cxx1110_List_baseIPN6TagLib5ID3v25FrameESaIS4_EE7_M_initEv
FN:708,717,_ZNSt7__cxx114listIPN6TagLib5ID3v25FrameESaIS4_EE14_M_create_nodeIJRKS4_EEEPSt10_List_nodeIS4_EDpOT_
FN:811,814,_ZNSt7__cxx114listIPN6TagLib5ID3v25FrameESaIS4_EEC2ERKS6_
FN:903,903,_ZNSt7__cxx114listIPN6TagLib5ID3v25FrameESaIS4_EED2Ev
FNDA:0,_ZNSt7__cxx114listIPN6TagLib5ID3v25FrameESaIS4_EE5beginEv
FNDA:0,_ZNKSt7__cxx114listIPN6TagLib5ID3v25FrameESaIS4_EE5beginEv
FNDA:0,_ZNSt7__cxx114listIPN6TagLib5ID3v25FrameESaIS4_EE3endEv
FNDA:0,_ZNKSt7__cxx114listIPN6TagLib5ID3v25FrameESaIS4_EE3endEv
FNDA:0,_ZNSt8__detail17_List_node_headerC2Ev
FNDA:1,_ZNKSt7__cxx114listIPN6TagLib5ID3v25FrameESaIS4_EE5emptyEv
FNDA:0,_ZNSt7__cxx114listIPN6TagLib5ID3v25FrameESaIS4_EE5frontEv
FNDA:0,_ZNSt7__cxx114listIPN6TagLib5ID3v25FrameESaIS4_EE4backEv
FNDA:0,_ZNSt7__cxx114listIPN6TagLib5ID3v25FrameESaIS4_EE12emplace_backIJRKS4_EEERS4_DpOT_
FNDA:0,_ZNSt8__detail17_List_node_header7_M_initEv
FNDA:0,_ZNSt7__cxx114listIPN6TagLib5ID3v25FrameESaIS4_EE5clearEv
FNDA:0,_ZNSt7__cxx114listIPN6TagLib5ID3v25FrameESaIS4_EE22_M_initialize_dispatchISt20_List_const_iteratorIS4_EEEvT_SA_St12__false_type
FNDA:0,_ZNSt7__cxx114listIPN6TagLib5ID3v25FrameESaIS4_EE9_M_insertIJRKS4_EEEvSt14_List_iteratorIS4_EDpOT_
FNDA:0,_ZNSt10_List_nodeIPN6TagLib5ID3v25FrameEE9_M_valptrEv
FNDA:0,_ZNKSt10_List_nodeIPN6TagLib5ID3v25FrameEE9_M_valptrEv
FNDA:0,_ZNSt14_List_iteratorIPN6TagLib5ID3v25FrameEEC2EPNSt8__detail15_List_node_baseE
FNDA:0,_ZNKSt14_List_iteratorIPN6TagLib5ID3v25FrameEEdeEv
FNDA:0,_ZNSt14_List_iteratorIPN6TagLib5ID3v25FrameEEmmEv
FNDA:0,_ZNSt20_List_const_iteratorIPN6TagLib5ID3v25FrameEEC2EPKNSt8__detail15_List_node_baseE
FNDA:0,_ZNSt20_List_const_iteratorIPN6TagLib5ID3v25FrameEEC2ERKSt14_List_iteratorIS3_E
FNDA:0,_ZNKSt20_List_const_iteratorIPN6TagLib5ID3v25FrameEEdeEv
FNDA:0,_ZNSt20_List_const_iteratorIPN6TagLib5ID3v25FrameEEppEv
FNDA:0,_ZStneRKSt20_List_const_iteratorIPN6TagLib5ID3v25FrameEES6_
FNDA:0,_ZNSt7__cxx1110_List_baseIPN6TagLib5ID3v25FrameESaIS4_EE10_List_implC2EOSaISt10_List_nodeIS4_EE
FNDA:0,_ZNSt7__cxx1110_List_baseIPN6TagLib5ID3v25FrameESaIS4_EE11_M_inc_sizeEm
FNDA:0,_ZNSt7__cxx1110_List_baseIPN6TagLib5ID3v25FrameESaIS4_EE11_M_get_nodeEv
FNDA:0,_ZNSt7__cxx1110_List_baseIPN6TagLib5ID3v25FrameESaIS4_EE11_M_put_nodeEPSt10_List_nodeIS4_E
FNDA:0,_ZNSt7__cxx1110_List_baseIPN6TagLib5ID3v25FrameESaIS4_EE21_M_get_Node_allocatorEv
FNDA:0,_ZNKSt7__cxx1110_List_baseIPN6TagLib5ID3v25FrameESaIS4_EE21_M_get_Node_allocatorEv
FNDA:0,_ZNSt7__cxx1110_List_baseIPN6TagLib5ID3v25FrameESaIS4_EEC2EOSaISt10_List_nodeIS4_EE
FNDA:0,_ZNSt7__cxx1110_List_baseIPN6TagLib5ID3v25FrameESaIS4_EED2Ev
FNDA:0,_ZNSt7__cxx1110_List_baseIPN6TagLib5ID3v25FrameESaIS4_EE7_M_initEv
FNDA:0,_ZNSt7__cxx114listIPN6TagLib5ID3v25FrameESaIS4_EE14_M_create_nodeIJRKS4_EEEPSt10_List_nodeIS4_EDpOT_
FNDA:0,_ZNSt7__cxx114listIPN6TagLib5ID3v25FrameESaIS4_EEC2ERKS6_
FNDA:0,_ZNSt7__cxx114listIPN6TagLib5ID3v25FrameESaIS4_EED2Ev
FNF:35
FNH:1
BRDA:710,0,0,-
BRDA:710,e0,1,-
BRDA:814,0,0,-
BRDA:814,e0,1,-
BRDA:1932,0,0,-
BRDA:1932,0,1,-
BRF:6
BRH:0
DA:110,0
DA:111,0
DA:150,0
DA:152,0
DA:154,0
DA:156,0
DA:238,0
DA:239,0
DA:268,0
DA:269,0
DA:278,0
DA:279,0
DA:302,0
DA:304,0
DA:305,0
DA:354,0
DA:356,0
DA:358,0
DA:359,0
DA:368,0
DA:369,0
DA:377,0
DA:379,0
DA:380,0
DA:414,0
DA:415,0
DA:471,0
DA:472,0
DA:473,0
DA:484,0
DA:517,0
DA:518,0
DA:521,0
DA:522,0
DA:528,0
DA:529,0
DA:532,0
DA:533,0
DA:564,0
DA:565,0
DA:566,0
DA:574,0
DA:575,0
DA:581,0
DA:582,0
DA:708,0
DA:710,0
DA:711,0
DA:712,0
DA:713,0
DA:715,0
DA:716,0
DA:717,0
DA:811,0
DA:813,0
DA:814,0
DA:903,0
DA:1022,0
DA:1023,0
DA:1032,0
DA:1033,0
DA:1042,0
DA:1043,0
DA:1052,0
DA:1053,0
DA:1143,1
DA:1144,1
DA:1205,0
DA:1206,0
DA:1223,0
DA:1225,0
DA:1226,0
DA:1227,0
DA:1319,0
DA:1321,0
DA:1323,0
DA:1592,0
DA:1594,0
DA:1595,0
DA:1596,0
DA:1929,0
DA:1932,0
DA:1934,0
DA:1938,0
DA:2003,0
DA:2005,0
DA:2006,0
DA:2007,0
DA:2008,0
LF:89
LH:2
end_of_record
TN:
SF:/usr/include/c++/13/bits/stl_map.h
FN:197,197,_ZNSt3mapINSt7__cxx1112basic_stringIcSt11char_traitsIcESaIcEEES5_St4lessIS5_ESaISt4pairIKS5_S5_EEEC2Ev
FN:314,314,_ZNSt3mapINSt7__cxx1112basic_stringIcSt11char_traitsIcESaIcEEES5_St4lessIS5_ESaISt4pairIKS5_S5_EEED2Ev
FNDA:0,_ZNSt3mapINSt7__cxx1112basic_stringIcSt11char_traitsIcESaIcEEES5_St4lessIS5_ESaISt4pairIKS5_S5_EEEC2Ev
FNDA:0,_ZNSt3mapINSt7__cxx1112basic_stringIcSt11char_traitsIcESaIcEEES5_St4lessIS5_ESaISt4pairIKS5_S5_EEED2Ev
FNF:2
FNH:0
DA:197,0
DA:314,0
LF:2
LH:0
end_of_record
TN:
SF:/usr/include/c++/13/bits/stl_pair.h
FNF:0
FNH:0
LF:0
LH:0
end_of_record
TN:
SF:/usr/include/c++/13/bits/stl_tree.h
FN:146,150,_ZNSt20_Rb_tree_key_compareISt4lessINSt7__cxx1112basic_stringIcSt11char_traitsIcESaIcEEEEEC2Ev
FN:173,177,_ZNSt15_Rb_tree_headerC2Ev
FN:1930,1941,_ZNSt8_Rb_treeINSt7__cxx1112basic_stringIcSt11char_traitsIcESaIcEEESt4pairIKS5_S5_ESt10_Select1stIS8_ESt4lessIS5_ESaIS8_EE8_M_eraseEPSt13_Rb_tree_nodeIS8_E
FN:206,212,_ZNSt15_Rb_tree_header8_M_resetEv
FN:234,235,_ZNSt13_Rb_tree_nodeISt4pairIKNSt7__cxx1112basic_stringIcSt11char_traitsIcESaIcEEES6_EE9_M_valptrEv
FN:549,550,_ZNSt8_Rb_treeINSt7__cxx1112basic_stringIcSt11char_traitsIcESaIcEEESt4pairIKS5_S5_ESt10_Select1stIS8_ESt4lessIS5_ESaIS8_EE21_M_get_Node_allocatorEv
FN:566,567,_ZNSt8_Rb_treeINSt7__cxx1112basic_stringIcSt11char_traitsIcESaIcEEESt4pairIKS5_S5_ESt10_Select1stIS8_ESt4lessIS5_ESaIS8_EE11_M_put_nodeEPSt13_Rb_tree_nodeIS8_E
FN:620,628,_ZNSt8_Rb_treeINSt7__cxx1112basic_stringIcSt11char_traitsIcESaIcEEESt4pairIKS5_S5_ESt10_Select1stIS8_ESt4lessIS5_ESaIS8_EE15_M_destroy_nodeEPSt13_Rb_tree_nodeIS8_E
FN:631,635,_ZNSt8_Rb_treeINSt7__cxx1112basic_stringIcSt11char_traitsIcESaIcEEESt4pairIKS5_S5_ESt10_Select1stIS8_ESt4lessIS5_ESaIS8_EE12_M_drop_nodeEPSt13_Rb_tree_nodeIS8_E
FN:669,674,_ZNSt8_Rb_treeINSt7__cxx1112basic_stringIcSt11char_traitsIcESaIcEEESt4pairIKS5_S5_ESt10_Select1stIS8_ESt4lessIS5_ESaIS8_EE13_Rb_tree_implISC_Lb1EEC2Ev
FN:736,737,_ZNKSt8_Rb_treeINSt7__cxx1112basic_stringIcSt11char_traitsIcESaIcEEESt4pairIKS5_S5_ESt10_Select1stIS8_ESt4lessIS5_ESaIS8_EE9_M_mbeginEv
FN:740,741,_ZNSt8_Rb_treeINSt7__cxx1112basic_stringIcSt11char_traitsIcESaIcEEESt4pairIKS5_S5_ESt10_Select1stIS8_ESt4lessIS5_ESaIS8_EE8_M_beginEv
FN:781,782,_ZNSt8_Rb_treeINSt7__cxx1112basic_stringIcSt11char_traitsIcESaIcEEESt4pairIKS5_S5_ESt10_Select1stIS8_ESt4lessIS5_ESaIS8_EE7_S_leftEPSt18_Rb_tree_node_base
FN:789,790,_ZNSt8_Rb_treeINSt7__cxx1112basic_stringIcSt11char_traitsIcESaIcEEESt4pairIKS5_S5_ESt10_Select1stIS8_ESt4lessIS5_ESaIS8_EE8_S_rightEPSt18_Rb_tree_node_base
FN:930,930,_ZNSt8_Rb_treeINSt7__cxx1112basic_stringIcSt11char_traitsIcESaIcEEESt4pairIKS5_S5_ESt10_Select1stIS8_ESt4lessIS5_ESaIS8_EEC2Ev
FN:985,986,_ZNSt8_Rb_treeINSt7__cxx1112basic_stringIcSt11char_traitsIcESaIcEEESt4pairIKS5_S5_ESt10_Select1stIS8_ESt4lessIS5_ESaIS8_EED2Ev
FNDA:0,_ZNSt20_Rb_tree_key_compareISt4lessINSt7__cxx1112basic_stringIcSt11char_traitsIcESaIcEEEEEC2Ev
FNDA:0,_ZNSt15_Rb_tree_headerC2Ev
FNDA:0,_ZNSt8_Rb_treeINSt7__cxx1112basic_stringIcSt11char_traitsIcESaIcEEESt4pairIKS5_S5_ESt10_Select1stIS8_ESt4lessIS5_ESaIS8_EE8_M_eraseEPSt13_Rb_tree_nodeIS8_E
FNDA:0,_ZNSt15_Rb_tree_header8_M_resetEv
FNDA:0,_ZNSt13_Rb_tree_nodeISt4pairIKNSt7__cxx1112basic_stringIcSt11char_traitsIcESaIcEEES6_EE9_M_valptrEv
FNDA:0,_ZNSt8_Rb_treeINSt7__cxx1112basic_stringIcSt11char_traitsIcESaIcEEESt4pairIKS5_S5_ESt10_Select1stIS8_ESt4lessIS5_ESaIS8_EE21_M_get_Node_allocatorEv
FNDA:0,_ZNSt8_Rb_treeINSt7__cxx1112basic_stringIcSt11char_traitsIcESaIcEEESt4pairIKS5_S5_ESt10_Select1stIS8_ESt4lessIS5_ESaIS8_EE11_M_put_nodeEPSt13_Rb_tree_nodeIS8_E
FNDA:0,_ZNSt8_Rb_treeINSt7__cxx1112basic_stringIcSt11char_traitsIcESaIcEEESt4pairIKS5_S5_ESt10_Select1stIS8_ESt4lessIS5_ESaIS8_EE15_M_destroy_nodeEPSt13_Rb_tree_nodeIS8_E
FNDA:0,_ZNSt8_Rb_treeINSt7__cxx1112basic_stringIcSt11char_traitsIcESaIcEEESt4pairIKS5_S5_ESt10_Select1stIS8_ESt4lessIS5_ESaIS8_EE12_M_drop_nodeEPSt13_Rb_tree_nodeIS8_E
FNDA:0,_ZNSt8_Rb_treeINSt7__cxx1112basic_stringIcSt11char_traitsIcESaIcEEESt4pairIKS5_S5_ESt10_Select1stIS8_ESt4lessIS5_ESaIS8_EE13_Rb_tree_implISC_Lb1EEC2Ev
FNDA:0,_ZNKSt8_Rb_treeINSt7__cxx1112basic_stringIcSt11char_traitsIcESaIcEEESt4pairIKS5_S5_ESt10_Select1stIS8_ESt4lessIS5_ESaIS8_EE9_M_mbeginEv
FNDA:0,_ZNSt8_Rb_treeINSt7__cxx1112basic_stringIcSt11char_traitsIcESaIcEEESt4pairIKS5_S5_ESt10_Select1stIS8_ESt4lessIS5_ESaIS8_EE8_M_beginEv
FNDA:0,_ZNSt8_Rb_treeINSt7__cxx1112basic_stringIcSt11char_traitsIcESaIcEEESt4pairIKS5_S5_ESt10_Select1stIS8_ESt4lessIS5_ESaIS8_EE7_S_leftEPSt18_Rb_tree_node_base
FNDA:0,_ZNSt8_Rb_treeINSt7__cxx1112basic_stringIcSt11char_traitsIcESaIcEEESt4pairIKS5_S5_ESt10_Select1stIS8_ESt4lessIS5_ESaIS8_EE8_S_rightEPSt18_Rb_tree_node_base
FNDA:0,_ZNSt8_Rb_treeINSt7__cxx1112basic_stringIcSt11char_traitsIcESaIcEEESt4pairIKS5_S5_ESt10_Select1stIS8_ESt4lessIS5_ESaIS8_EEC2Ev
FNDA:0,_ZNSt8_Rb_treeINSt7__cxx1112basic_stringIcSt11char_traitsIcESaIcEEESt4pairIKS5_S5_ESt10_Select1stIS8_ESt4lessIS5_ESaIS8_EED2Ev
FNF:16
FNH:0
BRDA:1934,0,0,-
BRDA:1934,0,1,-
BRF:2
BRH:0
DA:146,0
DA:150,0
DA:173,0
DA:174,0
DA:175,0
DA:176,0
DA:177,0
DA:206,0
DA:208,0
DA:209,0
DA:210,0
DA:211,0
DA:212,0
DA:234,0
DA:235,0
DA:549,0
DA:550,0
DA:566,0
DA:567,0
DA:620,0
DA:625,0
DA:626,0
DA:628,0
DA:631,0
DA:633,0
DA:634,0
DA:635,0
DA:669,0
DA:673,0
DA:674,0
DA:736,0
DA:737,0
DA:740,0
DA:741,0
DA:781,0
DA:782,0
DA:789,0
DA:790,0
DA:930,0
DA:985,0
DA:986,0
DA:1930,0
DA:1934,0
DA:1936,0
DA:1937,0
DA:1938,0
DA:1939,0
DA:1941,0
LF:48
LH:0
end_of_record
TN:
SF:/usr/include/c++/13/bits/stl_uninitialized.h
FN:1069,1079,_ZSt19__relocate_object_aIN12media_player6models14MediaFileModelES2_SaIS2_EEvPT_PT0_RT1_
FN:1091,1108,_ZSt14__relocate_a_1IPN12media_player6models14MediaFileModelES3_SaIS2_EET0_T_S6_S5_RT1_
FN:113,128,_ZSt16__do_uninit_copyIN9__gnu_cxx17__normal_iteratorIPKN12media_player6models14MediaFileModelESt6vectorIS4_SaIS4_EEEEPS4_ET0_T_SD_SC_
FN:113,128,_ZSt16__do_uninit_copyIN9__gnu_cxx17__normal_iteratorIPKNSt7__cxx1112basic_stringIcSt11char_traitsIcESaIcEEESt6vectorIS7_SaIS7_EEEEPS7_ET0_T_SG_SF_
FN:113,128,_ZSt16__do_uninit_copyIPKPKcPNSt7__cxx1112basic_stringIcSt11char_traitsIcESaIcEEEET0_T_SC_SB_
FN:113,128,_ZSt16__do_uninit_copyIPNSt7__cxx1112basic_stringIcSt11char_traitsIcESaIcEEES6_ET0_T_S8_S7_
FN:1141,1150,_ZSt12__relocate_aIPN12media_player6models14MediaFileModelES3_SaIS2_EET0_T_S6_S5_RT1_
FN:135,137,_ZNSt20__uninitialized_copyILb0EE13__uninit_copyIN9__gnu_cxx17__normal_iteratorIPKN12media_player6models14MediaFileModelESt6vectorIS6_SaIS6_EEEEPS6_EET0_T_SF_SE_
FN:135,137,_ZNSt20__uninitialized_copyILb0EE13__uninit_copyIN9__gnu_cxx17__normal_iteratorIPKNSt7__cxx1112basic_stringIcSt11char_traitsIcESaIcEEESt6vectorIS9_SaIS9_EEEEPS9_EET0_T_SI_SH_
FN:135,137,_ZNSt20__uninitialized_copyILb0EE13__uninit_copyIPKPKcPNSt7__cxx1112basic_stringIcSt11char_traitsIcESaIcEEEEET0_T_SE_SD_
FN:135,137,_ZNSt20__uninitialized_copyILb0EE13__uninit_copyIPNSt7__cxx1112basic_stringIcSt11char_traitsIcESaIcEEES8_EET0_T_SA_S9_
FN:145,147,_ZNSt20__uninitialized_copyILb1EE13__uninit_copyIN9__gnu_cxx17__normal_iteratorIPcSt6vectorIcSaIcEEEEPhEET0_T_SB_SA_
FN:163,186,_ZSt18uninitialized_copyIN9__gnu_cxx17__normal_iteratorIPKN12media_player6models14MediaFileModelESt6vectorIS4_SaIS4_EEEEPS4_ET0_T_SD_SC_
FN:163,186,_ZSt18uninitialized_copyIN9__gnu_cxx17__normal_iteratorIPKNSt7__cxx1112basic_stringIcSt11char_traitsIcESaIcEEESt6vectorIS7_SaIS7_EEEEPS7_ET0_T_SG_SF_
FN:163,186,_ZSt18uninitialized_copyIN9__gnu_cxx17__normal_iteratorIPcSt6vectorIcSaIcEEEEPhET0_T_S9_S8_
FN:163,186,_ZSt18uninitialized_copyIPKPKcPNSt7__cxx1112basic_stringIcSt11char_traitsIcESaIcEEEET0_T_SC_SB_
FN:163,186,_ZSt18uninitialized_copyIPNSt7__cxx1112basic_stringIcSt11char_traitsIcESaIcEEES6_ET0_T_S8_S7_
FN:366,374,_ZSt22__uninitialized_copy_aIN9__gnu_cxx17__normal_iteratorIPKN12media_player6models14MediaFileModelESt6vectorIS4_SaIS4_EEEEPS4_S4_ET0_T_SD_SC_RSaIT1_E
FN:366,374,_ZSt22__uninitialized_copy_aIN9__gnu_cxx17__normal_iteratorIPKNSt7__cxx1112basic_stringIcSt11char_traitsIcESaIcEEESt6vectorIS7_SaIS7_EEEEPS7_S7_ET0_T_SG_SF_RSaIT1_E
FN:366,374,_ZSt22__uninitialized_copy_aIN9__gnu_cxx17__normal_iteratorIPcSt6vectorIcSaIcEEEEPhhET0_T_S9_S8_RSaIT1_E
FN:366,374,_ZSt22__uninitialized_copy_aIPKPKcPNSt7__cxx1112basic_stringIcSt11char_traitsIcESaIcEEES9_ET0_T_SC_SB_RSaIT1_E
FN:366,374,_ZSt22__uninitialized_copy_aIPNSt7__cxx1112basic_stringIcSt11char_traitsIcESaIcEEES6_S5_ET0_T_S8_S7_RSaIT1_E
FN:660,671,_ZNSt27__uninitialized_default_n_1ILb1EE18__uninit_default_nIPhmEET_S3_T0_
FN:696,713,_ZSt25__uninitialized_default_nIPhmET_S1_T0_
FN:777,779,_ZSt27__uninitialized_default_n_aIPhmhET_S1_T0_RSaIT1_E
FNDA:0,_ZSt19__relocate_object_aIN12media_player6models14MediaFileModelES2_SaIS2_EEvPT_PT0_RT1_
FNDA:0,_ZSt14__relocate_a_1IPN12media_player6models14MediaFileModelES3_SaIS2_EET0_T_S6_S5_RT1_
FNDA:0,_ZSt16__do_uninit_copyIN9__gnu_cxx17__normal_iteratorIPKN12media_player6models14MediaFileModelESt6vectorIS4_SaIS4_EEEEPS4_ET0_T_SD_SC_
FNDA:0,_ZSt16__do_uninit_copyIN9__gnu_cxx17__normal_iteratorIPKNSt7__cxx1112basic_stringIcSt11char_traitsIcESaIcEEESt6vectorIS7_SaIS7_EEEEPS7_ET0_T_SG_SF_
FNDA:0,_ZSt16__do_uninit_copyIPKPKcPNSt7__cxx1112basic_stringIcSt11char_traitsIcESaIcEEEET0_T_SC_SB_
FNDA:0,_ZSt16__do_uninit_copyIPNSt7__cxx1112basic_stringIcSt11char_traitsIcESaIcEEES6_ET0_T_S8_S7_
FNDA:0,_ZSt12__relocate_aIPN12media_player6models14MediaFileModelES3_SaIS2_EET0_T_S6_S5_RT1_
FNDA:0,_ZNSt20__uninitialized_copyILb0EE13__uninit_copyIN9__gnu_cxx17__normal_iteratorIPKN12media_player6models14MediaFileModelESt6vectorIS6_SaIS6_EEEEPS6_EET0_T_SF_SE_
FNDA:0,_ZNSt20__uninitialized_copyILb0EE13__uninit_copyIN9__gnu_cxx17__normal_iteratorIPKNSt7__cxx1112basic_stringIcSt11char_traitsIcESaIcEEESt6vectorIS9_SaIS9_EEEEPS9_EET0_T_SI_SH_
FNDA:0,_ZNSt20__uninitialized_copyILb0EE13__uninit_copyIPKPKcPNSt7__cxx1112basic_stringIcSt11char_traitsIcESaIcEEEEET0_T_SE_SD_
FNDA:0,_ZNSt20__uninitialized_copyILb0EE13__uninit_copyIPNSt7__cxx1112basic_stringIcSt11char_traitsIcESaIcEEES8_EET0_T_SA_S9_
FNDA:0,_ZNSt20__uninitialized_copyILb1EE13__uninit_copyIN9__gnu_cxx17__normal_iteratorIPcSt6vectorIcSaIcEEEEPhEET0_T_SB_SA_
FNDA:0,_ZSt18uninitialized_copyIN9__gnu_cxx17__normal_iteratorIPKN12media_player6models14MediaFileModelESt6vectorIS4_SaIS4_EEEEPS4_ET0_T_SD_SC_
FNDA:0,_ZSt18uninitialized_copyIN9__gnu_cxx17__normal_iteratorIPKNSt7__cxx1112basic_stringIcSt11char_traitsIcESaIcEEESt6vectorIS7_SaIS7_EEEEPS7_ET0_T_SG_SF_
FNDA:0,_ZSt18uninitialized_copyIN9__gnu_cxx17__normal_iteratorIPcSt6vectorIcSaIcEEEEPhET0_T_S9_S8_
FNDA:0,_ZSt18uninitialized_copyIPKPKcPNSt7__cxx1112basic_stringIcSt11char_traitsIcESaIcEEEET0_T_SC_SB_
FNDA:0,_ZSt18uninitialized_copyIPNSt7__cxx1112basic_stringIcSt11char_traitsIcESaIcEEES6_ET0_T_S8_S7_
FNDA:0,_ZSt22__uninitialized_copy_aIN9__gnu_cxx17__normal_iteratorIPKN12media_player6models14MediaFileModelESt6vectorIS4_SaIS4_EEEEPS4_S4_ET0_T_SD_SC_RSaIT1_E
FNDA:0,_ZSt22__uninitialized_copy_aIN9__gnu_cxx17__normal_iteratorIPKNSt7__cxx1112basic_stringIcSt11char_traitsIcESaIcEEESt6vectorIS7_SaIS7_EEEEPS7_S7_ET0_T_SG_SF_RSaIT1_E
FNDA:0,_ZSt22__uninitialized_copy_aIN9__gnu_cxx17__normal_iteratorIPcSt6vectorIcSaIcEEEEPhhET0_T_S9_S8_RSaIT1_E
FNDA:0,_ZSt22__uninitialized_copy_aIPKPKcPNSt7__cxx1112basic_stringIcSt11char_traitsIcESaIcEEES9_ET0_T_SC_SB_RSaIT1_E
FNDA:0,_ZSt22__uninitialized_copy_aIPNSt7__cxx1112basic_stringIcSt11char_traitsIcESaIcEEES6_S5_ET0_T_S8_S7_RSaIT1_E
FNDA:1,_ZNSt27__uninitialized_default_n_1ILb1EE18__uninit_default_nIPhmEET_S3_T0_
FNDA:1,_ZSt25__uninitialized_default_nIPhmET_S1_T0_
FNDA:1,_ZSt27__uninitialized_default_n_aIPhmhET_S1_T0_RSaIT1_E
FNF:25
FNH:3
BRDA:119,0,0,-
BRDA:119,0,1,-
BRDA:120,0,0,-
BRDA:120,e0,1,-
BRDA:125,0,0,0
BRDA:125,e0,1,0
BRDA:662,0,0,1
BRDA:662,0,1,0
BRDA:1104,0,0,-
BRDA:1104,0,1,-
BRF:10
BRH:1
DA:113,0
DA:116,0
DA:119,0
DA:120,0
DA:121,0
DA:123,0
DA:125,0
DA:126,0
DA:135,0
DA:137,0
DA:145,0
DA:147,0
DA:163,0
DA:174,0
DA:181,0
DA:185,0
DA:366,0
DA:373,0
DA:660,1
DA:662,1
DA:665,1
DA:666,1
DA:667,1
DA:668,1
DA:670,1
DA:696,1
DA:707,1
DA:712,1
DA:777,1
DA:779,1
DA:1069,0
DA:1077,0
DA:1078,0
DA:1079,0
DA:1091,0
DA:1103,0
DA:1104,0
DA:1105,0
DA:1107,0
DA:1141,0
DA:1147,0
DA:1149,0
LF:42
LH:12
end_of_record
TN:
SF:/usr/include/c++/13/bits/stl_vector.h
FN:105,108,_ZNSt12_Vector_baseIhSaIhEE17_Vector_impl_dataC2EOS2_
FN:1078,1080,_ZNKSt6vectorINSt7__cxx1112basic_stringIcSt11char_traitsIcESaIcEEESaIS5_EE8capacityEv
FN:1088,1089,_ZNKSt6vectorIhSaIhEE5emptyEv
FN:1260,1261,_ZNSt6vectorIhSaIhEE4dataEv
FN:1265,1266,_ZNKSt6vectorIhSaIhEE4dataEv
FN:1281,1293,_ZNSt6vectorIN12media_player6models14MediaFileModelESaIS2_EE9push_backERKS2_
FN:137,143,_ZNSt12_Vector_baseIN12media_player6models14MediaFileModelESaIS2_EE12_Vector_implC2Ev
FN:137,143,_ZNSt12_Vector_baseINSt7__cxx1112basic_stringIcSt11char_traitsIcESaIcEEESaIS5_EE12_Vector_implC2Ev
FN:137,143,_ZNSt12_Vector_baseIhSaIhEE12_Vector_implC2Ev
FN:146,148,_ZNSt12_Vector_baseIN12media_player6models14MediaFileModelESaIS2_EE12_Vector_implC2ERKS3_
FN:146,148,_ZNSt12_Vector_baseINSt7__cxx1112basic_stringIcSt11char_traitsIcESaIcEEESaIS5_EE12_Vector_implC2ERKS6_
FN:146,148,_ZNSt12_Vector_baseIhSaIhEE12_Vector_implC2ERKS0_
FN:154,156,_ZNSt12_Vector_baseIhSaIhEE12_Vector_implC2EOS2_
FN:1605,1606,_ZNSt6vectorIN12media_player6models14MediaFileModelESaIS2_EE5clearEv
FN:1605,1606,_ZNSt6vectorINSt7__cxx1112basic_stringIcSt11char_traitsIcESaIcEEESaIS5_EE5clearEv
FN:1616,1631,_ZNSt6vectorINSt7__cxx1112basic_stringIcSt11char_traitsIcESaIcEEESaIS5_EE20_M_allocate_and_copyIN9__gnu_cxx17__normal_iteratorIPKS5_S7_EEEEPS5_mT_SF_
FN:1687,1698,_ZNSt6vectorINSt7__cxx1112basic_stringIcSt11char_traitsIcESaIcEEESaIS5_EE19_M_range_initializeIPKPKcEEvT_SD_St20forward_iterator_tag
FN:1687,1698,_ZNSt6vectorIhSaIhEE19_M_range_initializeIN9__gnu_cxx17__normal_iteratorIPcS_IcSaIcEEEEEEvT_S9_St20forward_iterator_tag
FN:1715,1720,_ZNSt6vectorIhSaIhEE21_M_default_initializeEm
FN:1896,1903,_ZNKSt6vectorIN12media_player6models14MediaFileModelESaIS2_EE12_M_check_lenEmPKc
FN:1907,1913,_ZNSt6vectorINSt7__cxx1112basic_stringIcSt11char_traitsIcESaIcEEESaIS5_EE17_S_check_init_lenEmRKS6_
FN:1907,1913,_ZNSt6vectorIhSaIhEE17_S_check_init_lenEmRKS0_
FN:1916,1925,_ZNSt6vectorIN12media_player6models14MediaFileModelESaIS2_EE11_S_max_sizeERKS3_
FN:1916,1925,_ZNSt6vectorINSt7__cxx1112basic_stringIcSt11char_traitsIcESaIcEEESaIS5_EE11_S_max_sizeERKS6_
FN:1916,1925,_ZNSt6vectorIhSaIhEE11_S_max_sizeERKS0_
FN:1933,1942,_ZNSt6vectorIN12media_player6models14MediaFileModelESaIS2_EE15_M_erase_at_endEPS2_
FN:1933,1942,_ZNSt6vectorINSt7__cxx1112basic_stringIcSt11char_traitsIcESaIcEEESaIS5_EE15_M_erase_at_endEPS5_
FN:1990,1991,_ZNKSt6vectorIhSaIhEE11_M_data_ptrIhEEPT_S4_
FN:301,302,_ZNSt12_Vector_baseIN12media_player6models14MediaFileModelESaIS2_EE19_M_get_Tp_allocatorEv
FN:301,302,_ZNSt12_Vector_baseINSt7__cxx1112basic_stringIcSt11char_traitsIcESaIcEEESaIS5_EE19_M_get_Tp_allocatorEv
FN:301,302,_ZNSt12_Vector_baseIhSaIhEE19_M_get_Tp_allocatorEv
FN:306,307,_ZNKSt12_Vector_baseIN12media_player6models14MediaFileModelESaIS2_EE19_M_get_Tp_allocatorEv
FN:306,307,_ZNKSt12_Vector_baseINSt7__cxx1112basic_stringIcSt11char_traitsIcESaIcEEESaIS5_EE19_M_get_Tp_allocatorEv
FN:315,315,_ZNSt12_Vector_baseIN12media_player6models14MediaFileModelESaIS2_EEC2Ev
FN:315,315,_ZNSt12_Vector_baseINSt7__cxx1112basic_stringIcSt11char_traitsIcESaIcEEESaIS5_EEC2Ev
FN:315,315,_ZNSt12_Vector_baseIhSaIhEEC2Ev
FN:321,322,_ZNSt12_Vector_baseINSt7__cxx1112basic_stringIcSt11char_traitsIcESaIcEEESaIS5_EEC2ERKS6_
FN:321,322,_ZNSt12_Vector_baseIhSaIhEEC2ERKS0_
FN:333,335,_ZNSt12_Vector_baseIN12media_player6models14MediaFileModelESaIS2_EEC2EmRKS3_
FN:333,335,_ZNSt12_Vector_baseIhSaIhEEC2EmRKS0_
FN:338,338,_ZNSt12_Vector_baseIhSaIhEEC2EOS1_
FN:367,371,_ZNSt12_Vector_baseIN12media_player6models14MediaFileModelESaIS2_EED2Ev
FN:367,371,_ZNSt12_Vector_baseINSt7__cxx1112basic_stringIcSt11char_traitsIcESaIcEEESaIS5_EED2Ev
FN:367,371,_ZNSt12_Vector_baseIhSaIhEED2Ev
FN:378,382,_ZNSt12_Vector_baseIN12media_player6models14MediaFileModelESaIS2_EE11_M_allocateEm
FN:378,382,_ZNSt12_Vector_baseINSt7__cxx1112basic_stringIcSt11char_traitsIcESaIcEEESaIS5_EE11_M_allocateEm
FN:378,382,_ZNSt12_Vector_baseIhSaIhEE11_M_allocateEm
FN:386,391,_ZNSt12_Vector_baseIN12media_player6models14MediaFileModelESaIS2_EE13_M_deallocateEPS2_m
FN:386,391,_ZNSt12_Vector_baseINSt7__cxx1112basic_stringIcSt11char_traitsIcESaIcEEESaIS5_EE13_M_deallocateEPS5_m
FN:386,391,_ZNSt12_Vector_baseIhSaIhEE13_M_deallocateEPhm
FN:396,401,_ZNSt12_Vector_baseIN12media_player6models14MediaFileModelESaIS2_EE17_M_create_storageEm
FN:396,401,_ZNSt12_Vector_baseIhSaIhEE17_M_create_storageEm
FN:504,514,_ZNSt6vectorIN12media_player6models14MediaFileModelESaIS2_EE11_S_relocateEPS2_S5_S5_RS3_
FN:531,531,_ZNSt6vectorIN12media_player6models14MediaFileModelESaIS2_EEC2Ev
FN:531,531,_ZNSt6vectorINSt7__cxx1112basic_stringIcSt11char_traitsIcESaIcEEESaIS5_EEC2Ev
FN:531,531,_ZNSt6vectorIhSaIhEEC2Ev
FN:556,558,_ZNSt6vectorIhSaIhEEC2EmRKS0_
FN:601,609,_ZNSt6vectorIN12media_player6models14MediaFileModelESaIS2_EEC2ERKS4_
FN:620,620,_ZNSt6vectorIhSaIhEEC2EOS1_
FN:707,713,_ZNSt6vectorINSt7__cxx1112basic_stringIcSt11char_traitsIcESaIcEEESaIS5_EEC2IPKPKcvEET_SD_RKS6_
FN:707,713,_ZNSt6vectorIhSaIhEEC2IN9__gnu_cxx17__normal_iteratorIPcS_IcSaIcEEEEvEET_S9_RKS0_
FN:733,738,_ZNSt6vectorIN12media_player6models14MediaFileModelESaIS2_EED2Ev
FN:733,738,_ZNSt6vectorINSt7__cxx1112basic_stringIcSt11char_traitsIcESaIcEEESaIS5_EED2Ev
FN:733,738,_ZNSt6vectorIhSaIhEED2Ev
FN:873,874,_ZNSt6vectorIN12media_player6models14MediaFileModelESaIS2_EE5beginEv
FN:873,874,_ZNSt6vectorINSt7__cxx1112basic_stringIcSt11char_traitsIcESaIcEEESaIS5_EE5beginEv
FN:883,884,_ZNKSt6vectorIN12media_player6models14MediaFileModelESaIS2_EE5beginEv
FN:883,884,_ZNKSt6vectorINSt7__cxx1112basic_stringIcSt11char_traitsIcESaIcEEESaIS5_EE5beginEv
FN:883,884,_ZNKSt6vectorIhSaIhEE5beginEv
FN:893,894,_ZNSt6vectorIN12media_player6models14MediaFileModelESaIS2_EE3endEv
FN:893,894,_ZNSt6vectorINSt7__cxx1112basic_stringIcSt11char_traitsIcESaIcEEESaIS5_EE3endEv
FN:903,904,_ZNKSt6vectorIN12media_player6models14MediaFileModelESaIS2_EE3endEv
FN:903,904,_ZNKSt6vectorINSt7__cxx1112basic_stringIcSt11char_traitsIcESaIcEEESaIS5_EE3endEv
FN:903,904,_ZNKSt6vectorIhSaIhEE3endEv
FN:99,101,_ZNSt12_Vector_baseIN12media_player6models14MediaFileModelESaIS2_EE17_Vector_impl_dataC2Ev
FN:99,101,_ZNSt12_Vector_baseINSt7__cxx1112basic_stringIcSt11char_traitsIcESaIcEEESaIS5_EE17_Vector_impl_dataC2Ev
FN:99,101,_ZNSt12_Vector_baseIhSaIhEE17_Vector_impl_dataC2Ev
FN:992,993,_ZNKSt6vectorIN12media_player6models14MediaFileModelESaIS2_EE4sizeEv
FN:992,993,_ZNKSt6vectorINSt7__cxx1112basic_stringIcSt11char_traitsIcESaIcEEESaIS5_EE4sizeEv
FN:992,993,_ZNKSt6vectorIhSaIhEE4sizeEv
FN:998,999,_ZNKSt6vectorIN12media_player6models14MediaFileModelESaIS2_EE8max_sizeEv
FNDA:0,_ZNSt12_Vector_baseIhSaIhEE17_Vector_impl_dataC2EOS2_
FNDA:13,_ZNKSt6vectorINSt7__cxx1112basic_stringIcSt11char_traitsIcESaIcEEESaIS5_EE8capacityEv
FNDA:0,_ZNKSt6vectorIhSaIhEE5emptyEv
FNDA:1,_ZNSt6vectorIhSaIhEE4dataEv
FNDA:0,_ZNKSt6vectorIhSaIhEE4dataEv
FNDA:0,_ZNSt6vectorIN12media_player6models14MediaFileModelESaIS2_EE9push_backERKS2_
FNDA:0,_ZNSt12_Vector_baseIN12media_player6models14MediaFileModelESaIS2_EE12_Vector_implC2Ev
FNDA:0,_ZNSt12_Vector_baseINSt7__cxx1112basic_stringIcSt11char_traitsIcESaIcEEESaIS5_EE12_Vector_implC2Ev
FNDA:0,_ZNSt12_Vector_baseIhSaIhEE12_Vector_implC2Ev
FNDA:0,_ZNSt12_Vector_baseIN12media_player6models14MediaFileModelESaIS2_EE12_Vector_implC2ERKS3_
FNDA:0,_ZNSt12_Vector_baseINSt7__cxx1112basic_stringIcSt11char_traitsIcESaIcEEESaIS5_EE12_Vector_implC2ERKS6_
FNDA:0,_ZNSt12_Vector_baseIhSaIhEE12_Vector_implC2ERKS0_
FNDA:0,_ZNSt12_Vector_baseIhSaIhEE12_Vector_implC2EOS2_
FNDA:0,_ZNSt6vectorIN12media_player6models14MediaFileModelESaIS2_EE5clearEv
FNDA:0,_ZNSt6vectorINSt7__cxx1112basic_stringIcSt11char_traitsIcESaIcEEESaIS5_EE5clearEv
FNDA:13,_ZNSt6vectorINSt7__cxx1112basic_stringIcSt11char_traitsIcESaIcEEESaIS5_EE20_M_allocate_and_copyIN9__gnu_cxx17__normal_iteratorIPKS5_S7_EEEEPS5_mT_SF_
FNDA:0,_ZNSt6vectorINSt7__cxx1112basic_stringIcSt11char_traitsIcESaIcEEESaIS5_EE19_M_range_initializeIPKPKcEEvT_SD_St20forward_iterator_tag
FNDA:0,_ZNSt6vectorIhSaIhEE19_M_range_initializeIN9__gnu_cxx17__normal_iteratorIPcS_IcSaIcEEEEEEvT_S9_St20forward_iterator_tag
FNDA:1,_ZNSt6vectorIhSaIhEE21_M_default_initializeEm
FNDA:0,_ZNKSt6vectorIN12media_player6models14MediaFileModelESaIS2_EE12_M_check_lenEmPKc
FNDA:0,_ZNSt6vectorINSt7__cxx1112basic_stringIcSt11char_traitsIcESaIcEEESaIS5_EE17_S_check_init_lenEmRKS6_
FNDA:1,_ZNSt6vectorIhSaIhEE17_S_check_init_lenEmRKS0_
FNDA:0,_ZNSt6vectorIN12media_player6models14MediaFileModelESaIS2_EE11_S_max_sizeERKS3_
FNDA:0,_ZNSt6vectorINSt7__cxx1112basic_stringIcSt11char_traitsIcESaIcEEESaIS5_EE11_S_max_sizeERKS6_
FNDA:1,_ZNSt6vectorIhSaIhEE11_S_max_sizeERKS0_
FNDA:0,_ZNSt6vectorIN12media_player6models14MediaFileModelESaIS2_EE15_M_erase_at_endEPS2_
FNDA:0,_ZNSt6vectorINSt7__cxx1112basic_stringIcSt11char_traitsIcESaIcEEESaIS5_EE15_M_erase_at_endEPS5_
FNDA:1,_ZNKSt6vectorIhSaIhEE11_M_data_ptrIhEEPT_S4_
FNDA:0,_ZNSt12_Vector_baseIN12media_player6models14MediaFileModelESaIS2_EE19_M_get_Tp_allocatorEv
FNDA:0,_ZNSt12_Vector_baseINSt7__cxx1112basic_stringIcSt11char_traitsIcESaIcEEESaIS5_EE19_M_get_Tp_allocatorEv
FNDA:0,_ZNSt12_Vector_baseIhSaIhEE19_M_get_Tp_allocatorEv
FNDA:0,_ZNKSt12_Vector_baseIN12media_player6models14MediaFileModelESaIS2_EE19_M_get_Tp_allocatorEv
FNDA:0,_ZNKSt12_Vector_baseINSt7__cxx1112basic_stringIcSt11char_traitsIcESaIcEEESaIS5_EE19_M_get_Tp_allocatorEv
FNDA:0,_ZNSt12_Vector_baseIN12media_player6models14MediaFileModelESaIS2_EEC2Ev
FNDA:0,_ZNSt12_Vector_baseINSt7__cxx1112basic_stringIcSt11char_traitsIcESaIcEEESaIS5_EEC2Ev
FNDA:0,_ZNSt12_Vector_baseIhSaIhEEC2Ev
FNDA:0,_ZNSt12_Vector_baseINSt7__cxx1112basic_stringIcSt11char_traitsIcESaIcEEESaIS5_EEC2ERKS6_
FNDA:0,_ZNSt12_Vector_baseIhSaIhEEC2ERKS0_
FNDA:0,_ZNSt12_Vector_baseIN12media_player6models14MediaFileModelESaIS2_EEC2EmRKS3_
FNDA:0,_ZNSt12_Vector_baseIhSaIhEEC2EmRKS0_
FNDA:0,_ZNSt12_Vector_baseIhSaIhEEC2EOS1_
FNDA:0,_ZNSt12_Vector_baseIN12media_player6models14MediaFileModelESaIS2_EED2Ev
FNDA:0,_ZNSt12_Vector_baseINSt7__cxx1112basic_stringIcSt11char_traitsIcESaIcEEESaIS5_EED2Ev
FNDA:0,_ZNSt12_Vector_baseIhSaIhEED2Ev
FNDA:0,_ZNSt12_Vector_baseIN12media_player6models14MediaFileModelESaIS2_EE11_M_allocateEm
FNDA:0,_ZNSt12_Vector_baseINSt7__cxx1112basic_stringIcSt11char_traitsIcESaIcEEESaIS5_EE11_M_allocateEm
FNDA:0,_ZNSt12_Vector_baseIhSaIhEE11_M_allocateEm
FNDA:0,_ZNSt12_Vector_baseIN12media_player6models14MediaFileModelESaIS2_EE13_M_deallocateEPS2_m
FNDA:0,_ZNSt12_Vector_baseINSt7__cxx1112basic_stringIcSt11char_traitsIcESaIcEEESaIS5_EE13_M_deallocateEPS5_m
FNDA:0,_ZNSt12_Vector_baseIhSaIhEE13_M_deallocateEPhm
FNDA:0,_ZNSt12_Vector_baseIN12media_player6models14MediaFileModelESaIS2_EE17_M_create_storageEm
FNDA:0,_ZNSt12_Vector_baseIhSaIhEE17_M_create_storageEm
FNDA:0,_ZNSt6vectorIN12media_player6models14MediaFileModelESaIS2_EE11_S_relocateEPS2_S5_S5_RS3_
FNDA:0,_ZNSt6vectorIN12media_player6models14MediaFileModelESaIS2_EEC2Ev
FNDA:0,_ZNSt6vectorINSt7__cxx1112basic_stringIcSt11char_traitsIcESaIcEEESaIS5_EEC2Ev
FNDA:0,_ZNSt6vectorIhSaIhEEC2Ev
FNDA:1,_ZNSt6vectorIhSaIhEEC2EmRKS0_
FNDA:0,_ZNSt6vectorIN12media_player6models14MediaFileModelESaIS2_EEC2ERKS4_
FNDA:0,_ZNSt6vectorIhSaIhEEC2EOS1_
FNDA:0,_ZNSt6vectorINSt7__cxx1112basic_stringIcSt11char_traitsIcESaIcEEESaIS5_EEC2IPKPKcvEET_SD_RKS6_
FNDA:0,_ZNSt6vectorIhSaIhEEC2IN9__gnu_cxx17__normal_iteratorIPcS_IcSaIcEEEEvEET_S9_RKS0_
FNDA:0,_ZNSt6vectorIN12media_player6models14MediaFileModelESaIS2_EED2Ev
FNDA:0,_ZNSt6vectorINSt7__cxx1112basic_stringIcSt11char_traitsIcESaIcEEESaIS5_EED2Ev
FNDA:0,_ZNSt6vectorIhSaIhEED2Ev
FNDA:0,_ZNSt6vectorIN12media_player6models14MediaFileModelESaIS2_EE5beginEv
FNDA:0,_ZNSt6vectorINSt7__cxx1112basic_stringIcSt11char_traitsIcESaIcEEESaIS5_EE5beginEv
FNDA:0,_ZNKSt6vectorIN12media_player6models14MediaFileModelESaIS2_EE5beginEv
FNDA:0,_ZNKSt6vectorINSt7__cxx1112basic_stringIcSt11char_traitsIcESaIcEEESaIS5_EE5beginEv
FNDA:0,_ZNKSt6vectorIhSaIhEE5beginEv
FNDA:0,_ZNSt6vectorIN12media_player6models14MediaFileModelESaIS2_EE3endEv
FNDA:0,_ZNSt6vectorINSt7__cxx1112basic_stringIcSt11char_traitsIcESaIcEEESaIS5_EE3endEv
FNDA:0,_ZNKSt6vectorIN12media_player6models14MediaFileModelESaIS2_EE3endEv
FNDA:0,_ZNKSt6vectorINSt7__cxx1112basic_stringIcSt11char_traitsIcESaIcEEESaIS5_EE3endEv
FNDA:0,_ZNKSt6vectorIhSaIhEE3endEv
FNDA:0,_ZNSt12_Vector_baseIN12media_player6models14MediaFileModelESaIS2_EE17_Vector_impl_dataC2Ev
FNDA:0,_ZNSt12_Vector_baseINSt7__cxx1112basic_stringIcSt11char_traitsIcESaIcEEESaIS5_EE17_Vector_impl_dataC2Ev
FNDA:0,_ZNSt12_Vector_baseIhSaIhEE17_Vector_impl_dataC2Ev
FNDA:0,_ZNKSt6vectorIN12media_player6models14MediaFileModelESaIS2_EE4sizeEv
FNDA:0,_ZNKSt6vectorINSt7__cxx1112basic_stringIcSt11char_traitsIcESaIcEEESaIS5_EE4sizeEv
FNDA:0,_ZNKSt6vectorIhSaIhEE4sizeEv
FNDA:0,_ZNKSt6vectorIN12media_player6models14MediaFileModelESaIS2_EE8max_sizeEv
FNF:81
FNH:8
BRDA:335,0,0,-
BRDA:335,e0,1,-
BRDA:381,0,0,-
BRDA:381,0,1,-
BRDA:389,0,0,-
BRDA:389,0,1,-
BRDA:558,0,0,1
BRDA:558,e0,1,0
BRDA:603,0,0,-
BRDA:603,e0,1,-
BRDA:606,0,0,-
BRDA:606,e0,1,-
BRDA:712,0,0,-
BRDA:712,e0,1,-
BRDA:1283,0,0,-
BRDA:1283,0,1,-
BRDA:1622,0,0,13
BRDA:1622,e0,1,0
BRDA:1628,0,0,0
BRDA:1628,e0,1,0
BRDA:1898,0,0,-
BRDA:1898,0,1,-
BRDA:1902,0,0,-
BRDA:1902,0,1,-
BRDA:1902,0,2,-
BRDA:1902,0,3,-
BRDA:1909,0,0,0
BRDA:1909,0,1,1
BRDA:1935,0,0,-
BRDA:1935,0,1,-
BRF:30
BRH:3
DA:99,0
DA:100,0
DA:101,0
DA:105,0
DA:106,0
DA:107,0
DA:108,0
DA:137,0
DA:142,0
DA:143,0
DA:146,0
DA:147,0
DA:148,0
DA:154,0
DA:155,0
DA:156,0
DA:301,0
DA:302,0
DA:306,0
DA:307,0
DA:315,0
DA:321,0
DA:322,0
DA:333,0
DA:334,0
DA:335,0
DA:338,0
DA:367,0
DA:369,0
DA:370,0
DA:371,0
DA:378,0
DA:381,0
DA:386,0
DA:389,0
DA:390,0
DA:391,0
DA:396,0
DA:398,0
DA:399,0
DA:400,0
DA:401,0
DA:504,0
DA:509,0
DA:531,0
DA:556,1
DA:557,1
DA:558,1
DA:601,0
DA:603,0
DA:605,0
DA:606,0
DA:608,0
DA:609,0
DA:620,0
DA:707,0
DA:709,0
DA:711,0
DA:712,0
DA:713,0
DA:733,0
DA:735,0
DA:736,0
DA:738,0
DA:873,0
DA:874,0
DA:883,0
DA:884,0
DA:893,0
DA:894,0
DA:903,0
DA:904,0
DA:992,0
DA:993,0
DA:998,0
DA:999,0
DA:1078,13
DA:1079,13
DA:1080,13
DA:1088,0
DA:1089,0
DA:1260,1
DA:1261,1
DA:1265,0
DA:1266,0
DA:1281,0
DA:1283,0
DA:1286,0
DA:1288,0
DA:1292,0
DA:1293,0
DA:1605,0
DA:1606,0
DA:1616,13
DA:1619,13
DA:1622,13
DA:1623,13
DA:1624,13
DA:1626,0
DA:1628,0
DA:1629,0
DA:1687,0
DA:1690,0
DA:1692,0
DA:1693,0
DA:1694,0
DA:1695,0
DA:1697,0
DA:1698,0
DA:1715,1
DA:1717,1
DA:1718,1
DA:1719,1
DA:1720,1
DA:1896,0
DA:1898,0
DA:1899,0
DA:1901,0
DA:1902,0
DA:1907,1
DA:1909,1
DA:1910,0
DA:1912,1
DA:1916,1
DA:1921,1
DA:1923,1
DA:1924,1
DA:1933,0
DA:1935,0
DA:1937,0
DA:1938,0
DA:1939,0
DA:1942,0
DA:1990,1
DA:1991,1
LF:135
LH:27
end_of_record
TN:
SF:/usr/include/c++/13/bits/this_thread_sleep.h
FN:68,85,_ZNSt11this_thread9sleep_forIlSt5ratioILl1ELl1000EEEEvRKNSt6chrono8durationIT_T0_EE
FNDA:0,_ZNSt11this_thread9sleep_forIlSt5ratioILl1ELl1000EEEEvRKNSt6chrono8durationIT_T0_EE
FNF:1
FNH:0
BRDA:70,0,0,-
BRDA:70,e0,1,-
BRDA:70,0,2,-
BRDA:70,0,3,-
BRDA:72,0,0,-
BRDA:72,e0,1,-
BRDA:73,0,0,-
BRDA:73,e0,1,-
BRDA:73,0,2,-
BRDA:73,e0,3,-
BRDA:80,0,0,-
BRDA:80,e0,1,-
BRDA:80,0,2,-
BRDA:80,0,3,-
BRDA:80,0,4,-
BRDA:80,0,5,-
BRDA:80,0,6,-
BRDA:80,0,7,-
BRF:18
BRH:0
DA:68,0
DA:70,0
DA:71,0
DA:72,0
DA:73,0
DA:75,0
DA:77,0
DA:78,0
DA:80,0
LF:9
LH:0
end_of_record
TN:
SF:/usr/include/c++/13/bits/unique_ptr.h
FN:1069,1070,_ZSt11make_uniqueIN12media_player6models13MetadataModelEJEENSt8__detail9_MakeUniqIT_E15__single_objectEDpOT0_
FN:1069,1070,_ZSt11make_uniqueISt6threadJMN12media_player8services11FileScannerEFvRKNSt7__cxx1112basic_stringIcSt11char_traitsIcESaIcEEEEPS3_SB_EENSt8__detail9_MakeUniqIT_E15__single_objectEDpOT0_
FN:1069,1070,_ZSt11make_uniqueISt6threadJMN12media_player8services19AudioPlaybackEngineEFvvEPS3_EENSt8__detail9_MakeUniqIT_E15__single_objectEDpOT0_
FN:1069,1070,_ZSt11make_uniqueISt6threadJMN12media_player8services19SerialCommunicationEFvvEPS3_EENSt8__detail9_MakeUniqIT_E15__single_objectEDpOT0_
FN:174,174,_ZNSt15__uniq_ptr_implIN12media_player6models13MetadataModelESt14default_deleteIS2_EEC2Ev
FN:174,174,_ZNSt15__uniq_ptr_implISt6threadSt14default_deleteIS0_EEC2Ev
FN:176,176,_ZNSt15__uniq_ptr_implIN12media_player6models13MetadataModelESt14default_deleteIS2_EEC2EPS2_
FN:176,176,_ZNSt15__uniq_ptr_implINSt6thread6_StateESt14default_deleteIS1_EEC2EPS1_
FN:176,176,_ZNSt15__uniq_ptr_implISt6threadSt14default_deleteIS0_EEC2EPS0_
FN:184,186,_ZNSt15__uniq_ptr_implIN12media_player6models13MetadataModelESt14default_deleteIS2_EEC2EOS5_
FN:189,194,_ZNSt15__uniq_ptr_implISt6threadSt14default_deleteIS0_EEaSEOS3_
FN:197,197,_ZNSt15__uniq_ptr_implIN12media_player6models13MetadataModelESt14default_deleteIS2_EE6_M_ptrEv
FN:197,197,_ZNSt15__uniq_ptr_implINSt10filesystem7__cxx114path5_List5_ImplENS3_13_Impl_deleterEE6_M_ptrEv
FN:197,197,_ZNSt15__uniq_ptr_implINSt6thread6_StateESt14default_deleteIS1_EE6_M_ptrEv
FN:197,197,_ZNSt15__uniq_ptr_implISt6threadSt14default_deleteIS0_EE6_M_ptrEv
FN:199,199,_ZNKSt15__uniq_ptr_implIN12media_player6models13MetadataModelESt14default_deleteIS2_EE6_M_ptrEv
FN:199,199,_ZNKSt15__uniq_ptr_implINSt10filesystem7__cxx114path5_List5_ImplENS3_13_Impl_deleterEE6_M_ptrEv
FN:199,199,_ZNKSt15__uniq_ptr_implISt6threadSt14default_deleteIS0_EE6_M_ptrEv
FN:201,201,_ZNSt15__uniq_ptr_implIN12media_player6models13MetadataModelESt14default_deleteIS2_EE10_M_deleterEv
FN:201,201,_ZNSt15__uniq_ptr_implINSt10filesystem7__cxx114path5_List5_ImplENS3_13_Impl_deleterEE10_M_deleterEv
FN:201,201,_ZNSt15__uniq_ptr_implINSt6thread6_StateESt14default_deleteIS1_EE10_M_deleterEv
FN:201,201,_ZNSt15__uniq_ptr_implISt6threadSt14default_deleteIS0_EE10_M_deleterEv
FN:206,212,_ZNSt15__uniq_ptr_implISt6threadSt14default_deleteIS0_EE5resetEPS0_
FN:215,220,_ZNSt15__uniq_ptr_implISt6threadSt14default_deleteIS0_EE7releaseEv
FN:242,242,_ZNSt15__uniq_ptr_dataIN12media_player6models13MetadataModelESt14default_deleteIS2_ELb1ELb1EEC2EOS5_
FN:243,243,_ZNSt15__uniq_ptr_dataISt6threadSt14default_deleteIS0_ELb1ELb1EEaSEOS3_
FN:304,306,_ZNSt10unique_ptrISt6threadSt14default_deleteIS0_EEC2IS2_vEEv
FN:317,319,_ZNSt10unique_ptrIN12media_player6models13MetadataModelESt14default_deleteIS2_EEC2IS4_vEEPS2_
FN:317,319,_ZNSt10unique_ptrINSt6thread6_StateESt14default_deleteIS1_EEC2IS3_vEEPS1_
FN:317,319,_ZNSt10unique_ptrISt6threadSt14default_deleteIS0_EEC2IS2_vEEPS0_
FN:359,361,_ZNSt10unique_ptrIN12media_player6models13MetadataModelESt14default_deleteIS2_EEC2IS4_vEEDn
FN:366,366,_ZNSt10unique_ptrIN12media_player6models13MetadataModelESt14default_deleteIS2_EEC2EOS5_
FN:398,406,_ZNSt10unique_ptrIN12media_player6models13MetadataModelESt14default_deleteIS2_EED2Ev
FN:398,406,_ZNSt10unique_ptrINSt10filesystem7__cxx114path5_List5_ImplENS3_13_Impl_deleterEED2Ev
FN:398,406,_ZNSt10unique_ptrINSt6thread6_StateESt14default_deleteIS1_EED2Ev
FN:398,406,_ZNSt10unique_ptrISt6threadSt14default_deleteIS0_EED2Ev
FN:414,414,_ZNSt10unique_ptrISt6threadSt14default_deleteIS0_EEaSEOS3_
FN:460,464,_ZNKSt10unique_ptrIN12media_player6models13MetadataModelESt14default_deleteIS2_EEptEv
FN:460,464,_ZNKSt10unique_ptrISt6threadSt14default_deleteIS0_EEptEv
FN:469,470,_ZNKSt10unique_ptrIN12media_player6models13MetadataModelESt14default_deleteIS2_EE3getEv
FN:469,470,_ZNKSt10unique_ptrINSt10filesystem7__cxx114path5_List5_ImplENS3_13_Impl_deleterEE3getEv
FN:469,470,_ZNKSt10unique_ptrISt6threadSt14default_deleteIS0_EE3getEv
FN:475,476,_ZNSt10unique_ptrIN12media_player6models13MetadataModelESt14default_deleteIS2_EE11get_deleterEv
FN:475,476,_ZNSt10unique_ptrINSt10filesystem7__cxx114path5_List5_ImplENS3_13_Impl_deleterEE11get_deleterEv
FN:475,476,_ZNSt10unique_ptrINSt6thread6_StateESt14default_deleteIS1_EE11get_deleterEv
FN:475,476,_ZNSt10unique_ptrISt6threadSt14default_deleteIS0_EE11get_deleterEv
FN:486,487,_ZNKSt10unique_ptrISt6threadSt14default_deleteIS0_EEcvbEv
FN:93,100,_ZNKSt14default_deleteIN12media_player6models13MetadataModelEEclEPS2_
FN:93,100,_ZNKSt14default_deleteINSt6thread6_StateEEclEPS1_
FN:93,100,_ZNKSt14default_deleteISt6threadEclEPS0_
FNDA:0,_ZSt11make_uniqueIN12media_player6models13MetadataModelEJEENSt8__detail9_MakeUniqIT_E15__single_objectEDpOT0_
FNDA:3,_ZSt11make_uniqueISt6threadJMN12media_player8services11FileScannerEFvRKNSt7__cxx1112basic_stringIcSt11char_traitsIcESaIcEEEEPS3_SB_EENSt8__detail9_MakeUniqIT_E15__single_objectEDpOT0_
FNDA:47,_ZSt11make_uniqueISt6threadJMN12media_player8services19AudioPlaybackEngineEFvvEPS3_EENSt8__detail9_MakeUniqIT_E15__single_objectEDpOT0_
FNDA:4,_ZSt11make_uniqueISt6threadJMN12media_player8services19SerialCommunicationEFvvEPS3_EENSt8__detail9_MakeUniqIT_E15__single_objectEDpOT0_
FNDA:0,_ZNSt15__uniq_ptr_implIN12media_player6models13MetadataModelESt14default_deleteIS2_EEC2Ev
FNDA:65,_ZNSt15__uniq_ptr_implISt6threadSt14default_deleteIS0_EEC2Ev
FNDA:0,_ZNSt15__uniq_ptr_implIN12media_player6models13MetadataModelESt14default_deleteIS2_EEC2EPS2_
FNDA:0,_ZNSt15__uniq_ptr_implINSt6thread6_StateESt14default_deleteIS1_EEC2EPS1_
FNDA:54,_ZNSt15__uniq_ptr_implISt6threadSt14default_deleteIS0_EEC2EPS0_
FNDA:0,_ZNSt15__uniq_ptr_implIN12media_player6models13MetadataModelESt14default_deleteIS2_EEC2EOS5_
FNDA:54,_ZNSt15__uniq_ptr_implISt6threadSt14default_deleteIS0_EEaSEOS3_
FNDA:0,_ZNSt15__uniq_ptr_implIN12media_player6models13MetadataModelESt14default_deleteIS2_EE6_M_ptrEv
FNDA:0,_ZNSt15__uniq_ptr_implINSt10filesystem7__cxx114path5_List5_ImplENS3_13_Impl_deleterEE6_M_ptrEv
FNDA:0,_ZNSt15__uniq_ptr_implINSt6thread6_StateESt14default_deleteIS1_EE6_M_ptrEv
FNDA:389,_ZNSt15__uniq_ptr_implISt6threadSt14default_deleteIS0_EE6_M_ptrEv
FNDA:0,_ZNKSt15__uniq_ptr_implIN12media_player6models13MetadataModelESt14default_deleteIS2_EE6_M_ptrEv
FNDA:0,_ZNKSt15__uniq_ptr_implINSt10filesystem7__cxx114path5_List5_ImplENS3_13_Impl_deleterEE6_M_ptrEv
FNDA:177,_ZNKSt15__uniq_ptr_implISt6threadSt14default_deleteIS0_EE6_M_ptrEv
FNDA:0,_ZNSt15__uniq_ptr_implIN12media_player6models13MetadataModelESt14default_deleteIS2_EE10_M_deleterEv
FNDA:0,_ZNSt15__uniq_ptr_implINSt10filesystem7__cxx114path5_List5_ImplENS3_13_Impl_deleterEE10_M_deleterEv
FNDA:0,_ZNSt15__uniq_ptr_implINSt6thread6_StateESt14default_deleteIS1_EE10_M_deleterEv
FNDA:162,_ZNSt15__uniq_ptr_implISt6threadSt14default_deleteIS0_EE10_M_deleterEv
FNDA:54,_ZNSt15__uniq_ptr_implISt6threadSt14default_deleteIS0_EE5resetEPS0_
FNDA:54,_ZNSt15__uniq_ptr_implISt6threadSt14default_deleteIS0_EE7releaseEv
FNDA:0,_ZNSt15__uniq_ptr_dataIN12media_player6models13MetadataModelESt14default_deleteIS2_ELb1ELb1EEC2EOS5_
FNDA:54,_ZNSt15__uniq_ptr_dataISt6threadSt14default_deleteIS0_ELb1ELb1EEaSEOS3_
FNDA:65,_ZNSt10unique_ptrISt6threadSt14default_deleteIS0_EEC2IS2_vEEv
FNDA:0,_ZNSt10unique_ptrIN12media_player6models13MetadataModelESt14default_deleteIS2_EEC2IS4_vEEPS2_
FNDA:0,_ZNSt10unique_ptrINSt6thread6_StateESt14default_deleteIS1_EEC2IS3_vEEPS1_
FNDA:54,_ZNSt10unique_ptrISt6threadSt14default_deleteIS0_EEC2IS2_vEEPS0_
FNDA:0,_ZNSt10unique_ptrIN12media_player6models13MetadataModelESt14default_deleteIS2_EEC2IS4_vEEDn
FNDA:0,_ZNSt10unique_ptrIN12media_player6models13MetadataModelESt14default_deleteIS2_EEC2EOS5_
FNDA:0,_ZNSt10unique_ptrIN12media_player6models13MetadataModelESt14default_deleteIS2_EED2Ev
FNDA:0,_ZNSt10unique_ptrINSt10filesystem7__cxx114path5_List5_ImplENS3_13_Impl_deleterEED2Ev
FNDA:0,_ZNSt10unique_ptrINSt6thread6_StateESt14default_deleteIS1_EED2Ev
FNDA:119,_ZNSt10unique_ptrISt6threadSt14default_deleteIS0_EED2Ev
FNDA:54,_ZNSt10unique_ptrISt6threadSt14default_deleteIS0_EEaSEOS3_
FNDA:0,_ZNKSt10unique_ptrIN12media_player6models13MetadataModelESt14default_deleteIS2_EEptEv
FNDA:109,_ZNKSt10unique_ptrISt6threadSt14default_deleteIS0_EEptEv
FNDA:0,_ZNKSt10unique_ptrIN12media_player6models13MetadataModelESt14default_deleteIS2_EE3getEv
FNDA:0,_ZNKSt10unique_ptrINSt10filesystem7__cxx114path5_List5_ImplENS3_13_Impl_deleterEE3getEv
FNDA:177,_ZNKSt10unique_ptrISt6threadSt14default_deleteIS0_EE3getEv
FNDA:0,_ZNSt10unique_ptrIN12media_player6models13MetadataModelESt14default_deleteIS2_EE11get_deleterEv
FNDA:0,_ZNSt10unique_ptrINSt10filesystem7__cxx114path5_List5_ImplENS3_13_Impl_deleterEE11get_deleterEv
FNDA:0,_ZNSt10unique_ptrINSt6thread6_StateESt14default_deleteIS1_EE11get_deleterEv
FNDA:54,_ZNSt10unique_ptrISt6threadSt14default_deleteIS0_EE11get_deleterEv
FNDA:68,_ZNKSt10unique_ptrISt6threadSt14default_deleteIS0_EEcvbEv
FNDA:0,_ZNKSt14default_deleteIN12media_player6models13MetadataModelEEclEPS2_
FNDA:0,_ZNKSt14default_deleteINSt6thread6_StateEEclEPS1_
FNDA:54,_ZNKSt14default_deleteISt6threadEclEPS0_
FNF:50
FNH:21
BRDA:99,0,0,54
BRDA:99,0,1,0
BRDA:210,0,0,0
BRDA:210,0,1,54
BRDA:403,0,0,54
BRDA:403,0,1,65
BRDA:1070,0,0,54
BRDA:1070,e0,1,0
BRDA:1070,0,2,0
BRDA:1070,0,3,0
BRF:10
BRH:5
DA:93,54
DA:99,54
DA:100,54
DA:174,65
DA:176,54
DA:184,0
DA:185,0
DA:186,0
DA:189,54
DA:191,54
DA:192,54
DA:193,54
DA:197,389
DA:199,177
DA:201,162
DA:206,54
DA:208,54
DA:209,54
DA:210,54
DA:211,0
DA:212,54
DA:215,54
DA:217,54
DA:218,54
DA:219,54
DA:242,0
DA:243,54
DA:304,65
DA:305,65
DA:306,65
DA:317,54
DA:318,54
DA:319,54
DA:359,0
DA:360,0
DA:361,0
DA:366,0
DA:398,119
DA:402,119
DA:403,119
DA:404,54
DA:405,119
DA:406,119
DA:414,54
DA:460,109
DA:463,109
DA:469,177
DA:470,177
DA:475,54
DA:476,54
DA:486,68
DA:487,68
DA:1069,54
DA:1070,54
LF:54
LH:45
end_of_record
TN:
SF:/usr/include/c++/13/bits/vector.tcc
FN:210,265,_ZNSt6vectorINSt7__cxx1112basic_stringIcSt11char_traitsIcESaIcEEESaIS5_EEaSERKS7_
FN:445,524,_ZNSt6vectorIN12media_player6models14MediaFileModelESaIS2_EE17_M_realloc_insertIJRKS2_EEEvN9__gnu_cxx17__normal_iteratorIPS2_S4_EEDpOT_
FNDA:13,_ZNSt6vectorINSt7__cxx1112basic_stringIcSt11char_traitsIcESaIcEEESaIS5_EEaSERKS7_
FNDA:0,_ZNSt6vectorIN12media_player6models14MediaFileModelESaIS2_EE17_M_realloc_insertIJRKS2_EEEvN9__gnu_cxx17__normal_iteratorIPS2_S4_EEDpOT_
FNF:2
FNH:1
BRDA:213,0,0,13
BRDA:213,0,1,0
BRDA:217,0,0,0
BRDA:217,0,1,13
BRDA:220,0,0,-
BRDA:220,0,1,-
BRDA:220,0,2,-
BRDA:220,0,3,-
BRDA:220,0,4,-
BRDA:220,0,5,-
BRDA:236,0,0,13
BRDA:236,0,1,0
BRDA:248,0,0,-
BRDA:248,0,1,-
BRDA:506,0,0,0
BRDA:506,0,1,0
BRDA:511,0,0,0
BRDA:511,e0,1,0
BRF:18
BRH:3
DA:210,13
DA:213,13
DA:217,13
DA:219,0
DA:220,0
DA:223,0
DA:224,0
DA:225,0
DA:226,0
DA:227,0
DA:228,0
DA:229,0
DA:231,0
DA:232,0
DA:235,13
DA:236,13
DA:238,13
DA:240,13
DA:241,13
DA:242,13
DA:243,13
DA:244,13
DA:245,13
DA:246,13
DA:248,0
DA:250,0
DA:251,0
DA:255,0
DA:257,0
DA:258,0
DA:260,0
DA:262,13
DA:264,13
DA:445,0
DA:455,0
DA:456,0
DA:457,0
DA:458,0
DA:459,0
DA:460,0
DA:468,0
DA:469,0
DA:475,0
DA:480,0
DA:481,0
DA:483,0
DA:485,0
DA:486,0
DA:504,0
DA:506,0
DA:507,0
DA:508,0
DA:510,0
DA:511,0
DA:512,0
DA:519,0
DA:520,0
DA:521,0
DA:522,0
DA:523,0
DA:524,0
LF:61
LH:15
end_of_record
TN:
SF:/usr/include/c++/13/ext/aligned_buffer.h
FN:64,65,_ZN9__gnu_cxx16__aligned_membufIPN6TagLib5ID3v25FrameEE7_M_addrEv
FN:64,65,_ZN9__gnu_cxx16__aligned_membufISt4pairIKNSt7__cxx1112basic_stringIcSt11char_traitsIcESaIcEEES7_EE7_M_addrEv
FN:68,69,_ZNK9__gnu_cxx16__aligned_membufIPN6TagLib5ID3v25FrameEE7_M_addrEv
FN:72,73,_ZN9__gnu_cxx16__aligned_membufIPN6TagLib5ID3v25FrameEE6_M_ptrEv
FN:72,73,_ZN9__gnu_cxx16__aligned_membufISt4pairIKNSt7__cxx1112basic_stringIcSt11char_traitsIcESaIcEEES7_EE6_M_ptrEv
FN:76,77,_ZNK9__gnu_cxx16__aligned_membufIPN6TagLib5ID3v25FrameEE6_M_ptrEv
FNDA:0,_ZN9__gnu_cxx16__aligned_membufIPN6TagLib5ID3v25FrameEE7_M_addrEv
FNDA:0,_ZN9__gnu_cxx16__aligned_membufISt4pairIKNSt7__cxx1112basic_stringIcSt11char_traitsIcESaIcEEES7_EE7_M_addrEv
FNDA:0,_ZNK9__gnu_cxx16__aligned_membufIPN6TagLib5ID3v25FrameEE7_M_addrEv
FNDA:0,_ZN9__gnu_cxx16__aligned_membufIPN6TagLib5ID3v25FrameEE6_M_ptrEv
FNDA:0,_ZN9__gnu_cxx16__aligned_membufISt4pairIKNSt7__cxx1112basic_stringIcSt11char_traitsIcESaIcEEES7_EE6_M_ptrEv
FNDA:0,_ZNK9__gnu_cxx16__aligned_membufIPN6TagLib5ID3v25FrameEE6_M_ptrEv
FNF:6
FNH:0
DA:64,0
DA:65,0
DA:68,0
DA:69,0
DA:72,0
DA:73,0
DA:76,0
DA:77,0
LF:8
LH:0
end_of_record
TN:
SF:/usr/include/c++/13/ext/alloc_traits.h
FNF:0
FNH:0
DA:98,0
DA:106,13
DA:118,0
LF:3
LH:1
end_of_record
TN:
SF:/usr/include/c++/13/ext/atomicity.h
FNF:0
FNH:0
BRDA:98,0,0,-
BRDA:98,0,1,-
BRDA:98,0,2,-
BRDA:98,0,3,-
BRDA:108,0,0,-
BRDA:108,0,1,-
BRF:6
BRH:0
DA:52,0
DA:66,0
DA:71,0
DA:84,0
DA:85,0
DA:86,0
DA:92,0
DA:98,0
DA:99,0
DA:101,0
DA:108,0
DA:112,0
LF:12
LH:0
end_of_record
TN:
SF:/usr/include/c++/13/ext/string_conversions.h
FN:56,96,_ZN9__gnu_cxx6__stoaImmcJiEEET0_PFT_PKT1_PPS3_DpT2_EPKcS5_PmS9_
FN:65,65,_ZZN9__gnu_cxx6__stoaImmcJiEEET0_PFT_PKT1_PPS3_DpT2_EPKcS5_PmS9_EN11_Save_errnoC2Ev
FN:66,66,_ZZN9__gnu_cxx6__stoaImmcJiEEET0_PFT_PKT1_PPS3_DpT2_EPKcS5_PmS9_EN11_Save_errnoD2Ev
FN:72,72,_ZZN9__gnu_cxx6__stoaImmcJiEEET0_PFT_PKT1_PPS3_DpT2_EPKcS5_PmS9_EN10_Range_chk6_S_chkEmSt17integral_constantIbLb0EE
FNDA:1,_ZN9__gnu_cxx6__stoaImmcJiEEET0_PFT_PKT1_PPS3_DpT2_EPKcS5_PmS9_
FNDA:1,_ZZN9__gnu_cxx6__stoaImmcJiEEET0_PFT_PKT1_PPS3_DpT2_EPKcS5_PmS9_EN11_Save_errnoC2Ev
FNDA:1,_ZZN9__gnu_cxx6__stoaImmcJiEEET0_PFT_PKT1_PPS3_DpT2_EPKcS5_PmS9_EN11_Save_errnoD2Ev
FNDA:0,_ZZN9__gnu_cxx6__stoaImmcJiEEET0_PFT_PKT1_PPS3_DpT2_EPKcS5_PmS9_EN10_Range_chk6_S_chkEmSt17integral_constantIbLb0EE
FNF:4
FNH:3
BRDA:66,0,0,1
BRDA:66,0,1,0
BRDA:82,0,0,1
BRDA:82,e0,1,0
BRDA:84,0,0,1
BRDA:84,0,1,0
BRDA:87,0,0,-
BRDA:87,0,1,-
BRDA:87,0,2,-
BRDA:87,0,3,-
BRDA:87,0,4,-
BRDA:87,0,5,-
BRDA:92,0,0,-
BRDA:92,0,1,-
BRF:14
BRH:3
DA:56,1
DA:65,1
DA:66,1
DA:68,1
DA:72,0
DA:82,1
DA:84,1
DA:85,1
DA:86,0
DA:87,0
DA:88,0
DA:90,0
DA:92,0
DA:93,0
DA:95,0
DA:96,0
LF:16
LH:7
end_of_record
TN:
SF:/usr/include/c++/13/new
FN:174,175,_ZnwmPv
FN:180,180,_ZdlPvS_
FNDA:0,_ZnwmPv
FNDA:0,_ZdlPvS_
FNF:2
FNH:0
DA:174,0
DA:175,0
DA:180,0
LF:3
LH:0
end_of_record
TN:
SF:/usr/include/c++/13/string_view
FN:229,230,_ZNKSt17basic_string_viewIcSt11char_traitsIcEE4sizeEv
FN:289,290,_ZNKSt17basic_string_viewIcSt11char_traitsIcEE4dataEv
FNDA:0,_ZNKSt17basic_string_viewIcSt11char_traitsIcEE4sizeEv
FNDA:0,_ZNKSt17basic_string_viewIcSt11char_traitsIcEE4dataEv
FNF:2
FNH:0
DA:229,0
DA:230,0
DA:289,0
DA:290,0
LF:4
LH:0
end_of_record
TN:
SF:/usr/include/c++/13/system_error
FN:230,231,_ZNSt10error_codeC2Ev
FN:249,253,_ZNSt10error_code6assignEiRKNSt3_V214error_categoryE
FN:256,257,_ZNSt10error_code5clearEv
FN:262,262,_ZNKSt10error_code5valueEv
FN:267,267,_ZNKSt10error_code8categoryEv
FN:276,277,_ZNKSt10error_code7messageB5cxx11Ev
FN:281,282,_ZNKSt10error_codecvbEv
FNDA:6,_ZNSt10error_codeC2Ev
FNDA:6,_ZNSt10error_code6assignEiRKNSt3_V214error_categoryE
FNDA:6,_ZNSt10error_code5clearEv
FNDA:0,_ZNKSt10error_code5valueEv
FNDA:0,_ZNKSt10error_code8categoryEv
FNDA:0,_ZNKSt10error_code7messageB5cxx11Ev
FNDA:11,_ZNKSt10error_codecvbEv
FNF:7
FNH:4
DA:230,6
DA:231,6
DA:249,6
DA:251,6
DA:252,6
DA:253,6
DA:256,6
DA:257,6
DA:262,0
DA:267,0
DA:276,0
DA:277,0
DA:281,11
DA:282,11
LF:14
LH:10
end_of_record
TN:
SF:/usr/include/c++/13/tuple
FN:125,125,_ZNSt10_Head_baseILm1ENSt10filesystem7__cxx114path5_List13_Impl_deleterELb1EE7_M_headERS5_
FN:125,125,_ZNSt10_Head_baseILm1ESt14default_deleteIN12media_player6models13MetadataModelEELb1EE7_M_headERS5_
FN:125,125,_ZNSt10_Head_baseILm1ESt14default_deleteINSt6thread6_StateEELb1EE7_M_headERS4_
FN:125,125,_ZNSt10_Head_baseILm1ESt14default_deleteISt6threadELb1EE7_M_headERS3_
FN:1317,1319,_ZNSt5tupleIJPN12media_player6models13MetadataModelESt14default_deleteIS2_EEEC2ILb1ELb1EEEv
FN:1317,1319,_ZNSt5tupleIJPNSt6thread6_StateESt14default_deleteIS1_EEEC2ILb1ELb1EEEv
FN:1317,1319,_ZNSt5tupleIJPSt6threadSt14default_deleteIS0_EEEC2ILb1ELb1EEEv
FN:1345,1347,_ZNSt5tupleIJMN12media_player8services19AudioPlaybackEngineEFvvEPS2_EEC2IS4_S5_Lb1EEEOT_OT0_
FN:1345,1347,_ZNSt5tupleIJMN12media_player8services19SerialCommunicationEFvvEPS2_EEC2IS4_S5_Lb1EEEOT_OT0_
FN:1358,1358,_ZNSt5tupleIJPN12media_player6models13MetadataModelESt14default_deleteIS2_EEEC2EOS6_
FN:1787,1788,_ZSt12__get_helperILm0EMN12media_player8services11FileScannerEFvRKNSt7__cxx1112basic_stringIcSt11char_traitsIcESaIcEEEEJPS2_S8_EERT0_RSt11_Tuple_implIXT_EJSE_DpT1_EE
FN:1787,1788,_ZSt12__get_helperILm0EMN12media_player8services19AudioPlaybackEngineEFvvEJPS2_EERT0_RSt11_Tuple_implIXT_EJS6_DpT1_EE
FN:1787,1788,_ZSt12__get_helperILm0EMN12media_player8services19SerialCommunicationEFvvEJPS2_EERT0_RSt11_Tuple_implIXT_EJS6_DpT1_EE
FN:1787,1788,_ZSt12__get_helperILm0EPN12media_player6models13MetadataModelEJSt14default_deleteIS2_EEERT0_RSt11_Tuple_implIXT_EJS6_DpT1_EE
FN:1787,1788,_ZSt12__get_helperILm0EPNSt10filesystem7__cxx114path5_List5_ImplEJNS3_13_Impl_deleterEEERT0_RSt11_Tuple_implIXT_EJS7_DpT1_EE
FN:1787,1788,_ZSt12__get_helperILm0EPNSt6thread6_StateEJSt14default_deleteIS1_EEERT0_RSt11_Tuple_implIXT_EJS5_DpT1_EE
FN:1787,1788,_ZSt12__get_helperILm0EPSt6threadJSt14default_deleteIS0_EEERT0_RSt11_Tuple_implIXT_EJS4_DpT1_EE
FN:1787,1788,_ZSt12__get_helperILm1ENSt10filesystem7__cxx114path5_List13_Impl_deleterEJEERT0_RSt11_Tuple_implIXT_EJS5_DpT1_EE
FN:1787,1788,_ZSt12__get_helperILm1EPN12media_player8services11FileScannerEJNSt7__cxx1112basic_stringIcSt11char_traitsIcESaIcEEEEERT0_RSt11_Tuple_implIXT_EJSA_DpT1_EE
FN:1787,1788,_ZSt12__get_helperILm1EPN12media_player8services19AudioPlaybackEngineEJEERT0_RSt11_Tuple_implIXT_EJS4_DpT1_EE
FN:1787,1788,_ZSt12__get_helperILm1EPN12media_player8services19SerialCommunicationEJEERT0_RSt11_Tuple_implIXT_EJS4_DpT1_EE
FN:1787,1788,_ZSt12__get_helperILm1ESt14default_deleteIN12media_player6models13MetadataModelEEJEERT0_RSt11_Tuple_implIXT_EJS5_DpT1_EE
FN:1787,1788,_ZSt12__get_helperILm1ESt14default_deleteINSt6thread6_StateEEJEERT0_RSt11_Tuple_implIXT_EJS4_DpT1_EE
FN:1787,1788,_ZSt12__get_helperILm1ESt14default_deleteISt6threadEJEERT0_RSt11_Tuple_implIXT_EJS3_DpT1_EE
FN:1787,1788,_ZSt12__get_helperILm2ENSt7__cxx1112basic_stringIcSt11char_traitsIcESaIcEEEJEERT0_RSt11_Tuple_implIXT_EJS6_DpT1_EE
FN:1792,1793,_ZSt12__get_helperILm0EPN12media_player6models13MetadataModelEJSt14default_deleteIS2_EEERKT0_RKSt11_Tuple_implIXT_EJS6_DpT1_EE
FN:1792,1793,_ZSt12__get_helperILm0EPNSt10filesystem7__cxx114path5_List5_ImplEJNS3_13_Impl_deleterEEERKT0_RKSt11_Tuple_implIXT_EJS7_DpT1_EE
FN:1792,1793,_ZSt12__get_helperILm0EPSt6threadJSt14default_deleteIS0_EEERKT0_RKSt11_Tuple_implIXT_EJS4_DpT1_EE
FN:1803,1804,_ZSt3getILm0EJPN12media_player6models13MetadataModelESt14default_deleteIS2_EEERNSt13tuple_elementIXT_ESt5tupleIJDpT0_EEE4typeERSA_
FN:1803,1804,_ZSt3getILm0EJPNSt10filesystem7__cxx114path5_List5_ImplENS3_13_Impl_deleterEEERNSt13tuple_elementIXT_ESt5tupleIJDpT0_EEE4typeERSB_
FN:1803,1804,_ZSt3getILm0EJPNSt6thread6_StateESt14default_deleteIS1_EEERNSt13tuple_elementIXT_ESt5tupleIJDpT0_EEE4typeERS9_
FN:1803,1804,_ZSt3getILm0EJPSt6threadSt14default_deleteIS0_EEERNSt13tuple_elementIXT_ESt5tupleIJDpT0_EEE4typeERS8_
FN:1803,1804,_ZSt3getILm1EJPN12media_player6models13MetadataModelESt14default_deleteIS2_EEERNSt13tuple_elementIXT_ESt5tupleIJDpT0_EEE4typeERSA_
FN:1803,1804,_ZSt3getILm1EJPNSt10filesystem7__cxx114path5_List5_ImplENS3_13_Impl_deleterEEERNSt13tuple_elementIXT_ESt5tupleIJDpT0_EEE4typeERSB_
FN:1803,1804,_ZSt3getILm1EJPNSt6thread6_StateESt14default_deleteIS1_EEERNSt13tuple_elementIXT_ESt5tupleIJDpT0_EEE4typeERS9_
FN:1803,1804,_ZSt3getILm1EJPSt6threadSt14default_deleteIS0_EEERNSt13tuple_elementIXT_ESt5tupleIJDpT0_EEE4typeERS8_
FN:1809,1810,_ZSt3getILm0EJPN12media_player6models13MetadataModelESt14default_deleteIS2_EEERKNSt13tuple_elementIXT_ESt5tupleIJDpT0_EEE4typeERKSA_
FN:1809,1810,_ZSt3getILm0EJPNSt10filesystem7__cxx114path5_List5_ImplENS3_13_Impl_deleterEEERKNSt13tuple_elementIXT_ESt5tupleIJDpT0_EEE4typeERKSB_
FN:1809,1810,_ZSt3getILm0EJPSt6threadSt14default_deleteIS0_EEERKNSt13tuple_elementIXT_ESt5tupleIJDpT0_EEE4typeERKS8_
FN:1815,1819,_ZSt3getILm0EJMN12media_player8services11FileScannerEFvRKNSt7__cxx1112basic_stringIcSt11char_traitsIcESaIcEEEEPS2_S8_EEONSt13tuple_elementIXT_ESt5tupleIJDpT0_EEE4typeEOSI_
FN:1815,1819,_ZSt3getILm0EJMN12media_player8services19AudioPlaybackEngineEFvvEPS2_EEONSt13tuple_elementIXT_ESt5tupleIJDpT0_EEE4typeEOSA_
FN:1815,1819,_ZSt3getILm0EJMN12media_player8services19SerialCommunicationEFvvEPS2_EEONSt13tuple_elementIXT_ESt5tupleIJDpT0_EEE4typeEOSA_
FN:1815,1819,_ZSt3getILm1EJMN12media_player8services11FileScannerEFvRKNSt7__cxx1112basic_stringIcSt11char_traitsIcESaIcEEEEPS2_S8_EEONSt13tuple_elementIXT_ESt5tupleIJDpT0_EEE4typeEOSI_
FN:1815,1819,_ZSt3getILm1EJMN12media_player8services19AudioPlaybackEngineEFvvEPS2_EEONSt13tuple_elementIXT_ESt5tupleIJDpT0_EEE4typeEOSA_
FN:1815,1819,_ZSt3getILm1EJMN12media_player8services19SerialCommunicationEFvvEPS2_EEONSt13tuple_elementIXT_ESt5tupleIJDpT0_EEE4typeEOSA_
FN:1815,1819,_ZSt3getILm2EJMN12media_player8services11FileScannerEFvRKNSt7__cxx1112basic_stringIcSt11char_traitsIcESaIcEEEEPS2_S8_EEONSt13tuple_elementIXT_ESt5tupleIJDpT0_EEE4typeEOSI_
FN:190,191,_ZNSt10_Head_baseILm0EPN12media_player6models13MetadataModelELb0EEC2Ev
FN:190,191,_ZNSt10_Head_baseILm0EPNSt6thread6_StateELb0EEC2Ev
FN:190,191,_ZNSt10_Head_baseILm0EPSt6threadLb0EEC2Ev
FN:193,194,_ZNSt10_Head_baseILm2ENSt7__cxx1112basic_stringIcSt11char_traitsIcESaIcEEELb0EEC2ERKS5_
FN:200,201,_ZNSt10_Head_baseILm0EMN12media_player8services11FileScannerEFvRKNSt7__cxx1112basic_stringIcSt11char_traitsIcESaIcEEEELb0EEC2ISC_EEOT_
FN:200,201,_ZNSt10_Head_baseILm0EMN12media_player8services19AudioPlaybackEngineEFvvELb0EEC2IS4_EEOT_
FN:200,201,_ZNSt10_Head_baseILm0EMN12media_player8services19SerialCommunicationEFvvELb0EEC2IS4_EEOT_
FN:200,201,_ZNSt10_Head_baseILm1EPN12media_player8services11FileScannerELb0EEC2IS3_EEOT_
FN:200,201,_ZNSt10_Head_baseILm1EPN12media_player8services19AudioPlaybackEngineELb0EEC2IS3_EEOT_
FN:200,201,_ZNSt10_Head_baseILm1EPN12media_player8services19SerialCommunicationELb0EEC2IS3_EEOT_
FN:234,234,_ZNSt10_Head_baseILm0EMN12media_player8services11FileScannerEFvRKNSt7__cxx1112basic_stringIcSt11char_traitsIcESaIcEEEELb0EE7_M_headERSD_
FN:234,234,_ZNSt10_Head_baseILm0EMN12media_player8services19AudioPlaybackEngineEFvvELb0EE7_M_headERS5_
FN:234,234,_ZNSt10_Head_baseILm0EMN12media_player8services19SerialCommunicationEFvvELb0EE7_M_headERS5_
FN:234,234,_ZNSt10_Head_baseILm0EPN12media_player6models13MetadataModelELb0EE7_M_headERS4_
FN:234,234,_ZNSt10_Head_baseILm0EPNSt10filesystem7__cxx114path5_List5_ImplELb0EE7_M_headERS6_
FN:234,234,_ZNSt10_Head_baseILm0EPNSt6thread6_StateELb0EE7_M_headERS3_
FN:234,234,_ZNSt10_Head_baseILm0EPSt6threadLb0EE7_M_headERS2_
FN:234,234,_ZNSt10_Head_baseILm1EPN12media_player8services11FileScannerELb0EE7_M_headERS4_
FN:234,234,_ZNSt10_Head_baseILm1EPN12media_player8services19AudioPlaybackEngineELb0EE7_M_headERS4_
FN:234,234,_ZNSt10_Head_baseILm1EPN12media_player8services19SerialCommunicationELb0EE7_M_headERS4_
FN:234,234,_ZNSt10_Head_baseILm2ENSt7__cxx1112basic_stringIcSt11char_traitsIcESaIcEEELb0EE7_M_headERS6_
FN:237,237,_ZNSt10_Head_baseILm0EPN12media_player6models13MetadataModelELb0EE7_M_headERKS4_
FN:237,237,_ZNSt10_Head_baseILm0EPNSt10filesystem7__cxx114path5_List5_ImplELb0EE7_M_headERKS6_
FN:237,237,_ZNSt10_Head_baseILm0EPSt6threadLb0EE7_M_headERKS2_
FN:269,269,_ZNSt11_Tuple_implILm0EJMN12media_player8services11FileScannerEFvRKNSt7__cxx1112basic_stringIcSt11char_traitsIcESaIcEEEEPS2_S8_EE7_M_headERSE_
FN:269,269,_ZNSt11_Tuple_implILm0EJMN12media_player8services19AudioPlaybackEngineEFvvEPS2_EE7_M_headERS6_
FN:269,269,_ZNSt11_Tuple_implILm0EJMN12media_player8services19SerialCommunicationEFvvEPS2_EE7_M_headERS6_
FN:269,269,_ZNSt11_Tuple_implILm0EJPN12media_player6models13MetadataModelESt14default_deleteIS2_EEE7_M_headERS6_
FN:269,269,_ZNSt11_Tuple_implILm0EJPNSt10filesystem7__cxx114path5_List5_ImplENS3_13_Impl_deleterEEE7_M_headERS7_
FN:269,269,_ZNSt11_Tuple_implILm0EJPNSt6thread6_StateESt14default_deleteIS1_EEE7_M_headERS5_
FN:269,269,_ZNSt11_Tuple_implILm0EJPSt6threadSt14default_deleteIS0_EEE7_M_headERS4_
FN:269,269,_ZNSt11_Tuple_implILm1EJPN12media_player8services11FileScannerENSt7__cxx1112basic_stringIcSt11char_traitsIcESaIcEEEEE7_M_headERSA_
FN:272,272,_ZNSt11_Tuple_implILm0EJPN12media_player6models13MetadataModelESt14default_deleteIS2_EEE7_M_headERKS6_
FN:272,272,_ZNSt11_Tuple_implILm0EJPNSt10filesystem7__cxx114path5_List5_ImplENS3_13_Impl_deleterEEE7_M_headERKS7_
FN:272,272,_ZNSt11_Tuple_implILm0EJPSt6threadSt14default_deleteIS0_EEE7_M_headERKS4_
FN:280,281,_ZNSt11_Tuple_implILm0EJPN12media_player6models13MetadataModelESt14default_deleteIS2_EEEC2Ev
FN:280,281,_ZNSt11_Tuple_implILm0EJPNSt6thread6_StateESt14default_deleteIS1_EEEC2Ev
FN:280,281,_ZNSt11_Tuple_implILm0EJPSt6threadSt14default_deleteIS0_EEEC2Ev
FN:291,294,_ZNSt11_Tuple_implILm0EJMN12media_player8services11FileScannerEFvRKNSt7__cxx1112basic_stringIcSt11char_traitsIcESaIcEEEEPS2_S8_EEC2ISC_JSD_SA_EvEEOT_DpOT0_
FN:291,294,_ZNSt11_Tuple_implILm0EJMN12media_player8services19AudioPlaybackEngineEFvvEPS2_EEC2IS4_JS5_EvEEOT_DpOT0_
FN:291,294,_ZNSt11_Tuple_implILm0EJMN12media_player8services19SerialCommunicationEFvvEPS2_EEC2IS4_JS5_EvEEOT_DpOT0_
FN:291,294,_ZNSt11_Tuple_implILm1EJPN12media_player8services11FileScannerENSt7__cxx1112basic_stringIcSt11char_traitsIcESaIcEEEEEC2IS3_JRKS9_EvEEOT_DpOT0_
FN:302,302,_ZNSt11_Tuple_implILm0EJPN12media_player6models13MetadataModelESt14default_deleteIS2_EEEC2EOS6_
FN:497,497,_ZNSt11_Tuple_implILm1EJNSt10filesystem7__cxx114path5_List13_Impl_deleterEEE7_M_headERS5_
FN:497,497,_ZNSt11_Tuple_implILm1EJPN12media_player8services19AudioPlaybackEngineEEE7_M_headERS4_
FN:497,497,_ZNSt11_Tuple_implILm1EJPN12media_player8services19SerialCommunicationEEE7_M_headERS4_
FN:497,497,_ZNSt11_Tuple_implILm1EJSt14default_deleteIN12media_player6models13MetadataModelEEEE7_M_headERS5_
FN:497,497,_ZNSt11_Tuple_implILm1EJSt14default_deleteINSt6thread6_StateEEEE7_M_headERS4_
FN:497,497,_ZNSt11_Tuple_implILm1EJSt14default_deleteISt6threadEEE7_M_headERS3_
FN:497,497,_ZNSt11_Tuple_implILm2EJNSt7__cxx1112basic_stringIcSt11char_traitsIcESaIcEEEEE7_M_headERS6_
FN:503,504,_ZNSt11_Tuple_implILm1EJSt14default_deleteIN12media_player6models13MetadataModelEEEEC2Ev
FN:503,504,_ZNSt11_Tuple_implILm1EJSt14default_deleteINSt6thread6_StateEEEEC2Ev
FN:503,504,_ZNSt11_Tuple_implILm1EJSt14default_deleteISt6threadEEEC2Ev
FN:507,509,_ZNSt11_Tuple_implILm2EJNSt7__cxx1112basic_stringIcSt11char_traitsIcESaIcEEEEEC2ERKS5_
FN:513,515,_ZNSt11_Tuple_implILm1EJPN12media_player8services19AudioPlaybackEngineEEEC2IS3_EEOT_
FN:513,515,_ZNSt11_Tuple_implILm1EJPN12media_player8services19SerialCommunicationEEEC2IS3_EEOT_
FN:527,530,_ZNSt11_Tuple_implILm1EJSt14default_deleteIN12media_player6models13MetadataModelEEEEC2EOS5_
FN:81,82,_ZNSt10_Head_baseILm1ESt14default_deleteIN12media_player6models13MetadataModelEELb1EEC2Ev
FN:81,82,_ZNSt10_Head_baseILm1ESt14default_deleteINSt6thread6_StateEELb1EEC2Ev
FN:81,82,_ZNSt10_Head_baseILm1ESt14default_deleteISt6threadELb1EEC2Ev
FN:889,891,_ZNSt5tupleIJMN12media_player8services11FileScannerEFvRKNSt7__cxx1112basic_stringIcSt11char_traitsIcESaIcEEEEPS2_S8_EEC2IJSC_SD_SA_ELb1ELb1EEEDpOT_
FNDA:0,_ZNSt10_Head_baseILm1ENSt10filesystem7__cxx114path5_List13_Impl_deleterELb1EE7_M_headERS5_
FNDA:0,_ZNSt10_Head_baseILm1ESt14default_deleteIN12media_player6models13MetadataModelEELb1EE7_M_headERS5_
FNDA:0,_ZNSt10_Head_baseILm1ESt14default_deleteINSt6thread6_StateEELb1EE7_M_headERS4_
FNDA:162,_ZNSt10_Head_baseILm1ESt14default_deleteISt6threadELb1EE7_M_headERS3_
FNDA:0,_ZNSt5tupleIJPN12media_player6models13MetadataModelESt14default_deleteIS2_EEEC2ILb1ELb1EEEv
FNDA:0,_ZNSt5tupleIJPNSt6thread6_StateESt14default_deleteIS1_EEEC2ILb1ELb1EEEv
FNDA:119,_ZNSt5tupleIJPSt6threadSt14default_deleteIS0_EEEC2ILb1ELb1EEEv
FNDA:47,_ZNSt5tupleIJMN12media_player8services19AudioPlaybackEngineEFvvEPS2_EEC2IS4_S5_Lb1EEEOT_OT0_
FNDA:4,_ZNSt5tupleIJMN12media_player8services19SerialCommunicationEFvvEPS2_EEC2IS4_S5_Lb1EEEOT_OT0_
FNDA:0,_ZNSt5tupleIJPN12media_player6models13MetadataModelESt14default_deleteIS2_EEEC2EOS6_
FNDA:3,_ZSt12__get_helperILm0EMN12media_player8services11FileScannerEFvRKNSt7__cxx1112basic_stringIcSt11char_traitsIcESaIcEEEEJPS2_S8_EERT0_RSt11_Tuple_implIXT_EJSE_DpT1_EE
FNDA:47,_ZSt12__get_helperILm0EMN12media_player8services19AudioPlaybackEngineEFvvEJPS2_EERT0_RSt11_Tuple_implIXT_EJS6_DpT1_EE
FNDA:4,_ZSt12__get_helperILm0EMN12media_player8services19SerialCommunicationEFvvEJPS2_EERT0_RSt11_Tuple_implIXT_EJS6_DpT1_EE
FNDA:0,_ZSt12__get_helperILm0EPN12media_player6models13MetadataModelEJSt14default_deleteIS2_EEERT0_RSt11_Tuple_implIXT_EJS6_DpT1_EE
FNDA:0,_ZSt12__get_helperILm0EPNSt10filesystem7__cxx114path5_List5_ImplEJNS3_13_Impl_deleterEEERT0_RSt11_Tuple_implIXT_EJS7_DpT1_EE
FNDA:0,_ZSt12__get_helperILm0EPNSt6thread6_StateEJSt14default_deleteIS1_EEERT0_RSt11_Tuple_implIXT_EJS5_DpT1_EE
FNDA:389,_ZSt12__get_helperILm0EPSt6threadJSt14default_deleteIS0_EEERT0_RSt11_Tuple_implIXT_EJS4_DpT1_EE
FNDA:0,_ZSt12__get_helperILm1ENSt10filesystem7__cxx114path5_List13_Impl_deleterEJEERT0_RSt11_Tuple_implIXT_EJS5_DpT1_EE
FNDA:3,_ZSt12__get_helperILm1EPN12media_player8services11FileScannerEJNSt7__cxx1112basic_stringIcSt11char_traitsIcESaIcEEEEERT0_RSt11_Tuple_implIXT_EJSA_DpT1_EE
FNDA:47,_ZSt12__get_helperILm1EPN12media_player8services19AudioPlaybackEngineEJEERT0_RSt11_Tuple_implIXT_EJS4_DpT1_EE
FNDA:4,_ZSt12__get_helperILm1EPN12media_player8services19SerialCommunicationEJEERT0_RSt11_Tuple_implIXT_EJS4_DpT1_EE
FNDA:0,_ZSt12__get_helperILm1ESt14default_deleteIN12media_player6models13MetadataModelEEJEERT0_RSt11_Tuple_implIXT_EJS5_DpT1_EE
FNDA:0,_ZSt12__get_helperILm1ESt14default_deleteINSt6thread6_StateEEJEERT0_RSt11_Tuple_implIXT_EJS4_DpT1_EE
FNDA:162,_ZSt12__get_helperILm1ESt14default_deleteISt6threadEJEERT0_RSt11_Tuple_implIXT_EJS3_DpT1_EE
FNDA:3,_ZSt12__get_helperILm2ENSt7__cxx1112basic_stringIcSt11char_traitsIcESaIcEEEJEERT0_RSt11_Tuple_implIXT_EJS6_DpT1_EE
FNDA:0,_ZSt12__get_helperILm0EPN12media_player6models13MetadataModelEJSt14default_deleteIS2_EEERKT0_RKSt11_Tuple_implIXT_EJS6_DpT1_EE
FNDA:0,_ZSt12__get_helperILm0EPNSt10filesystem7__cxx114path5_List5_ImplEJNS3_13_Impl_deleterEEERKT0_RKSt11_Tuple_implIXT_EJS7_DpT1_EE
FNDA:177,_ZSt12__get_helperILm0EPSt6threadJSt14default_deleteIS0_EEERKT0_RKSt11_Tuple_implIXT_EJS4_DpT1_EE
FNDA:0,_ZSt3getILm0EJPN12media_player6models13MetadataModelESt14default_deleteIS2_EEERNSt13tuple_elementIXT_ESt5tupleIJDpT0_EEE4typeERSA_
FNDA:0,_ZSt3getILm0EJPNSt10filesystem7__cxx114path5_List5_ImplENS3_13_Impl_deleterEEERNSt13tuple_elementIXT_ESt5tupleIJDpT0_EEE4typeERSB_
FNDA:0,_ZSt3getILm0EJPNSt6thread6_StateESt14default_deleteIS1_EEERNSt13tuple_elementIXT_ESt5tupleIJDpT0_EEE4typeERS9_
FNDA:389,_ZSt3getILm0EJPSt6threadSt14default_deleteIS0_EEERNSt13tuple_elementIXT_ESt5tupleIJDpT0_EEE4typeERS8_
FNDA:0,_ZSt3getILm1EJPN12media_player6models13MetadataModelESt14default_deleteIS2_EEERNSt13tuple_elementIXT_ESt5tupleIJDpT0_EEE4typeERSA_
FNDA:0,_ZSt3getILm1EJPNSt10filesystem7__cxx114path5_List5_ImplENS3_13_Impl_deleterEEERNSt13tuple_elementIXT_ESt5tupleIJDpT0_EEE4typeERSB_
FNDA:0,_ZSt3getILm1EJPNSt6thread6_StateESt14default_deleteIS1_EEERNSt13tuple_elementIXT_ESt5tupleIJDpT0_EEE4typeERS9_
FNDA:162,_ZSt3getILm1EJPSt6threadSt14default_deleteIS0_EEERNSt13tuple_elementIXT_ESt5tupleIJDpT0_EEE4typeERS8_
FNDA:0,_ZSt3getILm0EJPN12media_player6models13MetadataModelESt14default_deleteIS2_EEERKNSt13tuple_elementIXT_ESt5tupleIJDpT0_EEE4typeERKSA_
FNDA:0,_ZSt3getILm0EJPNSt10filesystem7__cxx114path5_List5_ImplENS3_13_Impl_deleterEEERKNSt13tuple_elementIXT_ESt5tupleIJDpT0_EEE4typeERKSB_
FNDA:177,_ZSt3getILm0EJPSt6threadSt14default_deleteIS0_EEERKNSt13tuple_elementIXT_ESt5tupleIJDpT0_EEE4typeERKS8_
FNDA:3,_ZSt3getILm0EJMN12media_player8services11FileScannerEFvRKNSt7__cxx1112basic_stringIcSt11char_traitsIcESaIcEEEEPS2_S8_EEONSt13tuple_elementIXT_ESt5tupleIJDpT0_EEE4typeEOSI_
FNDA:47,_ZSt3getILm0EJMN12media_player8services19AudioPlaybackEngineEFvvEPS2_EEONSt13tuple_elementIXT_ESt5tupleIJDpT0_EEE4typeEOSA_
FNDA:4,_ZSt3getILm0EJMN12media_player8services19SerialCommunicationEFvvEPS2_EEONSt13tuple_elementIXT_ESt5tupleIJDpT0_EEE4typeEOSA_
FNDA:3,_ZSt3getILm1EJMN12media_player8services11FileScannerEFvRKNSt7__cxx1112basic_stringIcSt11char_traitsIcESaIcEEEEPS2_S8_EEONSt13tuple_elementIXT_ESt5tupleIJDpT0_EEE4typeEOSI_
FNDA:47,_ZSt3getILm1EJMN12media_player8services19AudioPlaybackEngineEFvvEPS2_EEONSt13tuple_elementIXT_ESt5tupleIJDpT0_EEE4typeEOSA_
FNDA:4,_ZSt3getILm1EJMN12media_player8services19SerialCommunicationEFvvEPS2_EEONSt13tuple_elementIXT_ESt5tupleIJDpT0_EEE4typeEOSA_
FNDA:3,_ZSt3getILm2EJMN12media_player8services11FileScannerEFvRKNSt7__cxx1112basic_stringIcSt11char_traitsIcESaIcEEEEPS2_S8_EEONSt13tuple_elementIXT_ESt5tupleIJDpT0_EEE4typeEOSI_
FNDA:0,_ZNSt10_Head_baseILm0EPN12media_player6models13MetadataModelELb0EEC2Ev
FNDA:0,_ZNSt10_Head_baseILm0EPNSt6thread6_StateELb0EEC2Ev
FNDA:119,_ZNSt10_Head_baseILm0EPSt6threadLb0EEC2Ev
FNDA:3,_ZNSt10_Head_baseILm2ENSt7__cxx1112basic_stringIcSt11char_traitsIcESaIcEEELb0EEC2ERKS5_
FNDA:3,_ZNSt10_Head_baseILm0EMN12media_player8services11FileScannerEFvRKNSt7__cxx1112basic_stringIcSt11char_traitsIcESaIcEEEELb0EEC2ISC_EEOT_
FNDA:47,_ZNSt10_Head_baseILm0EMN12media_player8services19AudioPlaybackEngineEFvvELb0EEC2IS4_EEOT_
FNDA:4,_ZNSt10_Head_baseILm0EMN12media_player8services19SerialCommunicationEFvvELb0EEC2IS4_EEOT_
FNDA:3,_ZNSt10_Head_baseILm1EPN12media_player8services11FileScannerELb0EEC2IS3_EEOT_
FNDA:47,_ZNSt10_Head_baseILm1EPN12media_player8services19AudioPlaybackEngineELb0EEC2IS3_EEOT_
FNDA:4,_ZNSt10_Head_baseILm1EPN12media_player8services19SerialCommunicationELb0EEC2IS3_EEOT_
FNDA:3,_ZNSt10_Head_baseILm0EMN12media_player8services11FileScannerEFvRKNSt7__cxx1112basic_stringIcSt11char_traitsIcESaIcEEEELb0EE7_M_headERSD_
FNDA:47,_ZNSt10_Head_baseILm0EMN12media_player8services19AudioPlaybackEngineEFvvELb0EE7_M_headERS5_
FNDA:4,_ZNSt10_Head_baseILm0EMN12media_player8services19SerialCommunicationEFvvELb0EE7_M_headERS5_
FNDA:0,_ZNSt10_Head_baseILm0EPN12media_player6models13MetadataModelELb0EE7_M_headERS4_
FNDA:0,_ZNSt10_Head_baseILm0EPNSt10filesystem7__cxx114path5_List5_ImplELb0EE7_M_headERS6_
FNDA:0,_ZNSt10_Head_baseILm0EPNSt6thread6_StateELb0EE7_M_headERS3_
FNDA:389,_ZNSt10_Head_baseILm0EPSt6threadLb0EE7_M_headERS2_
FNDA:3,_ZNSt10_Head_baseILm1EPN12media_player8services11FileScannerELb0EE7_M_headERS4_
FNDA:47,_ZNSt10_Head_baseILm1EPN12media_player8services19AudioPlaybackEngineELb0EE7_M_headERS4_
FNDA:4,_ZNSt10_Head_baseILm1EPN12media_player8services19SerialCommunicationELb0EE7_M_headERS4_
FNDA:3,_ZNSt10_Head_baseILm2ENSt7__cxx1112basic_stringIcSt11char_traitsIcESaIcEEELb0EE7_M_headERS6_
FNDA:0,_ZNSt10_Head_baseILm0EPN12media_player6models13MetadataModelELb0EE7_M_headERKS4_
FNDA:0,_ZNSt10_Head_baseILm0EPNSt10filesystem7__cxx114path5_List5_ImplELb0EE7_M_headERKS6_
FNDA:177,_ZNSt10_Head_baseILm0EPSt6threadLb0EE7_M_headERKS2_
FNDA:3,_ZNSt11_Tuple_implILm0EJMN12media_player8services11FileScannerEFvRKNSt7__cxx1112basic_stringIcSt11char_traitsIcESaIcEEEEPS2_S8_EE7_M_headERSE_
FNDA:47,_ZNSt11_Tuple_implILm0EJMN12media_player8services19AudioPlaybackEngineEFvvEPS2_EE7_M_headERS6_
FNDA:4,_ZNSt11_Tuple_implILm0EJMN12media_player8services19SerialCommunicationEFvvEPS2_EE7_M_headERS6_
FNDA:0,_ZNSt11_Tuple_implILm0EJPN12media_player6models13MetadataModelESt14default_deleteIS2_EEE7_M_headERS6_
FNDA:0,_ZNSt11_Tuple_implILm0EJPNSt10filesystem7__cxx114path5_List5_ImplENS3_13_Impl_deleterEEE7_M_headERS7_
FNDA:0,_ZNSt11_Tuple_implILm0EJPNSt6thread6_StateESt14default_deleteIS1_EEE7_M_headERS5_
FNDA:389,_ZNSt11_Tuple_implILm0EJPSt6threadSt14default_deleteIS0_EEE7_M_headERS4_
FNDA:3,_ZNSt11_Tuple_implILm1EJPN12media_player8services11FileScannerENSt7__cxx1112basic_stringIcSt11char_traitsIcESaIcEEEEE7_M_headERSA_
FNDA:0,_ZNSt11_Tuple_implILm0EJPN12media_player6models13MetadataModelESt14default_deleteIS2_EEE7_M_headERKS6_
FNDA:0,_ZNSt11_Tuple_implILm0EJPNSt10filesystem7__cxx114path5_List5_ImplENS3_13_Impl_deleterEEE7_M_headERKS7_
FNDA:177,_ZNSt11_Tuple_implILm0EJPSt6threadSt14default_deleteIS0_EEE7_M_headERKS4_
FNDA:0,_ZNSt11_Tuple_implILm0EJPN12media_player6models13MetadataModelESt14default_deleteIS2_EEEC2Ev
FNDA:0,_ZNSt11_Tuple_implILm0EJPNSt6thread6_StateESt14default_deleteIS1_EEEC2Ev
FNDA:119,_ZNSt11_Tuple_implILm0EJPSt6threadSt14default_deleteIS0_EEEC2Ev
FNDA:3,_ZNSt11_Tuple_implILm0EJMN12media_player8services11FileScannerEFvRKNSt7__cxx1112basic_stringIcSt11char_traitsIcESaIcEEEEPS2_S8_EEC2ISC_JSD_SA_EvEEOT_DpOT0_
FNDA:47,_ZNSt11_Tuple_implILm0EJMN12media_player8services19AudioPlaybackEngineEFvvEPS2_EEC2IS4_JS5_EvEEOT_DpOT0_
FNDA:4,_ZNSt11_Tuple_implILm0EJMN12media_player8services19SerialCommunicationEFvvEPS2_EEC2IS4_JS5_EvEEOT_DpOT0_
FNDA:3,_ZNSt11_Tuple_implILm1EJPN12media_player8services11FileScannerENSt7__cxx1112basic_stringIcSt11char_traitsIcESaIcEEEEEC2IS3_JRKS9_EvEEOT_DpOT0_
FNDA:0,_ZNSt11_Tuple_implILm0EJPN12media_player6models13MetadataModelESt14default_deleteIS2_EEEC2EOS6_
FNDA:0,_ZNSt11_Tuple_implILm1EJNSt10filesystem7__cxx114path5_List13_Impl_deleterEEE7_M_headERS5_
FNDA:47,_ZNSt11_Tuple_implILm1EJPN12media_player8services19AudioPlaybackEngineEEE7_M_headERS4_
FNDA:4,_ZNSt11_Tuple_implILm1EJPN12media_player8services19SerialCommunicationEEE7_M_headERS4_
FNDA:0,_ZNSt11_Tuple_implILm1EJSt14default_deleteIN12media_player6models13MetadataModelEEEE7_M_headERS5_
FNDA:0,_ZNSt11_Tuple_implILm1EJSt14default_deleteINSt6thread6_StateEEEE7_M_headERS4_
FNDA:162,_ZNSt11_Tuple_implILm1EJSt14default_deleteISt6threadEEE7_M_headERS3_
FNDA:3,_ZNSt11_Tuple_implILm2EJNSt7__cxx1112basic_stringIcSt11char_traitsIcESaIcEEEEE7_M_headERS6_
FNDA:0,_ZNSt11_Tuple_implILm1EJSt14default_deleteIN12media_player6models13MetadataModelEEEEC2Ev
FNDA:0,_ZNSt11_Tuple_implILm1EJSt14default_deleteINSt6thread6_StateEEEEC2Ev
FNDA:119,_ZNSt11_Tuple_implILm1EJSt14default_deleteISt6threadEEEC2Ev
FNDA:3,_ZNSt11_Tuple_implILm2EJNSt7__cxx1112basic_stringIcSt11char_traitsIcESaIcEEEEEC2ERKS5_
FNDA:47,_ZNSt11_Tuple_implILm1EJPN12media_player8services19AudioPlaybackEngineEEEC2IS3_EEOT_
FNDA:4,_ZNSt11_Tuple_implILm1EJPN12media_player8services19SerialCommunicationEEEC2IS3_EEOT_
FNDA:0,_ZNSt11_Tuple_implILm1EJSt14default_deleteIN12media_player6models13MetadataModelEEEEC2EOS5_
FNDA:0,_ZNSt10_Head_baseILm1ESt14default_deleteIN12media_player6models13MetadataModelEELb1EEC2Ev
FNDA:0,_ZNSt10_Head_baseILm1ESt14default_deleteINSt6thread6_StateEELb1EEC2Ev
FNDA:119,_ZNSt10_Head_baseILm1ESt14default_deleteISt6threadELb1EEC2Ev
FNDA:3,_ZNSt5tupleIJMN12media_player8services11FileScannerEFvRKNSt7__cxx1112basic_stringIcSt11char_traitsIcESaIcEEEEPS2_S8_EEC2IJSC_SD_SA_ELb1ELb1EEEDpOT_
FNF:107
FNH:62
DA:81,119
DA:82,119
DA:125,162
DA:190,119
DA:191,119
DA:193,3
DA:194,3
DA:200,108
DA:201,108
DA:234,500
DA:237,177
DA:269,446
DA:272,177
DA:280,119
DA:281,119
DA:291,57
DA:293,57
DA:294,57
DA:302,0
DA:497,216
DA:503,119
DA:504,119
DA:507,3
DA:508,3
DA:509,3
DA:513,51
DA:514,51
DA:515,51
DA:527,0
DA:530,0
DA:889,3
DA:891,3
DA:1317,119
DA:1319,119
DA:1345,51
DA:1347,51
DA:1358,0
DA:1787,662
DA:1788,662
DA:1792,177
DA:1793,177
DA:1803,551
DA:1804,551
DA:1809,177
DA:1810,177
DA:1815,111
DA:1818,111
LF:47
LH:43
end_of_record
TN:
SF:/usr/include/taglib/tlist.tcc
FN:104,108,_ZN6TagLib4ListIPNS_5ID3v25FrameEED0Ev
FN:104,108,_ZN6TagLib4ListIPNS_5ID3v25FrameEED2Ev
FN:203,206,_ZNK6TagLib4ListIPNS_5ID3v25FrameEE7isEmptyEv
FN:240,244,_ZN6TagLib4ListIPNS_5ID3v25FrameEE5frontEv
FN:315,321,_ZN6TagLib4ListIPNS_5ID3v25FrameEE6detachEv
FN:46,46,_ZN6TagLib15ListPrivateBaseC2Ev
FN:72,72,_ZN6TagLib4ListIPNS_5ID3v25FrameEE11ListPrivateIS3_EC2ERKNSt7__cxx114listIS3_SaIS3_EEE
FN:73,75,_ZN6TagLib4ListIPNS_5ID3v25FrameEE11ListPrivateIS3_ED2Ev
FN:76,83,_ZN6TagLib4ListIPNS_5ID3v25FrameEE11ListPrivateIS3_E5clearEv
FN:98,101,_ZN6TagLib4ListIPNS_5ID3v25FrameEEC2ERKS4_
FNDA:0,_ZN6TagLib4ListIPNS_5ID3v25FrameEED0Ev
FNDA:1,_ZN6TagLib4ListIPNS_5ID3v25FrameEED2Ev
FNDA:1,_ZNK6TagLib4ListIPNS_5ID3v25FrameEE7isEmptyEv
FNDA:0,_ZN6TagLib4ListIPNS_5ID3v25FrameEE5frontEv
FNDA:0,_ZN6TagLib4ListIPNS_5ID3v25FrameEE6detachEv
FNDA:0,_ZN6TagLib15ListPrivateBaseC2Ev
FNDA:0,_ZN6TagLib4ListIPNS_5ID3v25FrameEE11ListPrivateIS3_EC2ERKNSt7__cxx114listIS3_SaIS3_EEE
FNDA:0,_ZN6TagLib4ListIPNS_5ID3v25FrameEE11ListPrivateIS3_ED2Ev
FNDA:0,_ZN6TagLib4ListIPNS_5ID3v25FrameEE11ListPrivateIS3_E5clearEv
FNDA:1,_ZN6TagLib4ListIPNS_5ID3v25FrameEEC2ERKS4_
FNF:10
FNH:3
BRDA:77,0,0,-
BRDA:77,0,1,-
BRDA:79,0,0,-
BRDA:79,0,1,-
BRDA:80,0,0,-
BRDA:80,0,1,-
BRDA:106,0,0,0
BRDA:106,0,1,1
BRDA:107,0,0,-
BRDA:107,0,1,-
BRDA:317,0,0,-
BRDA:317,0,1,-
BRDA:319,0,0,-
BRDA:319,e0,1,-
BRDA:319,0,2,-
BRDA:319,0,3,-
BRF:16
BRH:1
DA:46,0
DA:72,0
DA:73,0
DA:74,0
DA:75,0
DA:76,0
DA:77,0
DA:78,0
DA:79,0
DA:80,0
DA:82,0
DA:83,0
DA:98,1
DA:100,1
DA:101,1
DA:104,1
DA:106,1
DA:107,0
DA:108,1
DA:203,1
DA:205,1
DA:240,0
DA:242,0
DA:243,0
DA:315,0
DA:317,0
DA:318,0
DA:319,0
DA:321,0
LF:29
LH:8
end_of_record
TN:
SF:/usr/include/taglib/trefcounter.h
FN:81,81,_ZN6TagLib13RefCounterOldC2Ev
FN:96,96,_ZN6TagLib13RefCounterOld3refEv
FN:97,97,_ZN6TagLib13RefCounterOld5derefEv
FN:98,98,_ZN6TagLib13RefCounterOld5countEv
FNDA:0,_ZN6TagLib13RefCounterOldC2Ev
FNDA:1,_ZN6TagLib13RefCounterOld3refEv
FNDA:1,_ZN6TagLib13RefCounterOld5derefEv
FNDA:0,_ZN6TagLib13RefCounterOld5countEv
FNF:4
FNH:2
DA:81,0
DA:96,1
DA:97,1
DA:98,0
LF:4
LH:2
end_of_record
TN:
SF:/usr/include/x86_64-linux-gnu/c++/13/bits/c++config.h
FN:540,551,_ZSt23__is_constant_evaluatedv
FNDA:0,_ZSt23__is_constant_evaluatedv
FNF:1
FNH:0
DA:322,0
DA:540,0
DA:547,0
LF:3
LH:0
end_of_record
TN:
SF:/usr/include/x86_64-linux-gnu/c++/13/bits/gthr-default.h
FN:300,303,_ZL18__gthread_active_pv
FN:746,752,_ZL20__gthread_mutex_lockP15pthread_mutex_t
FN:776,782,_ZL22__gthread_mutex_unlockP15pthread_mutex_t
FNDA:0,_ZL18__gthread_active_pv
FNDA:0,_ZL20__gthread_mutex_lockP15pthread_mutex_t
FNDA:0,_ZL22__gthread_mutex_unlockP15pthread_mutex_t
FNF:3
FNH:0
BRDA:748,0,0,-
BRDA:748,0,1,-
BRDA:778,0,0,-
BRDA:778,0,1,-
BRF:4
BRH:0
DA:300,0
DA:302,0
DA:746,0
DA:748,0
DA:749,0
DA:751,0
DA:776,0
DA:778,0
DA:779,0
DA:781,0
LF:10
LH:0
end_of_record
