TN:
SF:/home/duong/MediaPlayerApp/inc/models/MediaFileModel.h
FN:31,34,_ZNK12media_player6models14MediaFileModel11getFilePathB5cxx11Ev
FN:36,39,_ZNK12media_player6models14MediaFileModel11getFileNameB5cxx11Ev
FN:41,44,_ZNK12media_player6models14MediaFileModel12getExtensionB5cxx11Ev
FN:46,49,_ZNK12media_player6models14MediaFileModel7getTypeEv
FN:51,54,_ZNK12media_player6models14MediaFileModel11getFileSizeEv
FN:57,57,_ZNK12media_player6models14MediaFileModel8getTitleB5cxx11Ev
FN:58,58,_ZNK12media_player6models14MediaFileModel9getArtistB5cxx11Ev
FN:63,63,_ZN12media_player6models14MediaFileModel8setTitleERKNSt7__cxx1112basic_stringIcSt11char_traitsIcESaIcEEE
FN:64,64,_ZN12media_player6models14MediaFileModel9setArtistERKNSt7__cxx1112basic_stringIcSt11char_traitsIcESaIcEEE
FNDA:0,_ZNK12media_player6models14MediaFileModel11getFilePathB5cxx11Ev
FNDA:0,_ZNK12media_player6models14MediaFileModel11getFileNameB5cxx11Ev
FNDA:0,_ZNK12media_player6models14MediaFileModel12getExtensionB5cxx11Ev
FNDA:0,_ZNK12media_player6models14MediaFileModel7getTypeEv
FNDA:0,_ZNK12media_player6models14MediaFileModel11getFileSizeEv
FNDA:0,_ZNK12media_player6models14MediaFileModel8getTitleB5cxx11Ev
FNDA:0,_ZNK12media_player6models14MediaFileModel9getArtistB5cxx11Ev
FNDA:0,_ZN12media_player6models14MediaFileModel8setTitleERKNSt7__cxx1112basic_stringIcSt11char_traitsIcESaIcEEE
FNDA:0,_ZN12media_player6models14MediaFileModel9setArtistERKNSt7__cxx1112basic_stringIcSt11char_traitsIcESaIcEEE
FNF:9
FNH:0
DA:31,0
DA:33,0
DA:36,0
DA:38,0
DA:41,0
DA:43,0
DA:46,0
DA:48,0
DA:51,0
DA:53,0
DA:57,0
DA:58,0
DA:63,0
DA:64,0
LF:14
LH:0
end_of_record
TN:
SF:/home/duong/MediaPlayerApp/inc/models/PlaylistModel.h
FN:22,22,_ZN12media_player6models13PlaylistModelC2Ev
FN:26,29,_ZNK12media_player6models13PlaylistModel7getNameB5cxx11Ev
FN:36,39,_ZNK12media_player6models13PlaylistModel5getIdB5cxx11Ev
FN:41,44,_ZN12media_player6models13PlaylistModel5setIdERKNSt7__cxx1112basic_stringIcSt11char_traitsIcESaIcEEE
FN:46,49,_ZNK12media_player6models13PlaylistModel12getItemCountEv
FN:60,63,_ZNK12media_player6models13PlaylistModel8getItemsEv
FNDA:0,_ZN12media_player6models13PlaylistModelC2Ev
FNDA:0,_ZNK12media_player6models13PlaylistModel7getNameB5cxx11Ev
FNDA:0,_ZNK12media_player6models13PlaylistModel5getIdB5cxx11Ev
FNDA:0,_ZN12media_player6models13PlaylistModel5setIdERKNSt7__cxx1112basic_stringIcSt11char_traitsIcESaIcEEE
FNDA:0,_ZNK12media_player6models13PlaylistModel12getItemCountEv
FNDA:0,_ZNK12media_player6models13PlaylistModel8getItemsEv
FNF:6
FNH:0
DA:22,0
DA:26,0
DA:28,0
DA:36,0
DA:38,0
DA:41,0
DA:43,0
DA:44,0
DA:46,0
DA:48,0
DA:60,0
DA:62,0
LF:12
LH:0
end_of_record
TN:
SF:/home/duong/MediaPlayerApp/inc/repositories/HistoryRepository.h
FN:25,29,_ZN12media_player12repositories20PlaybackHistoryEntryC2ERKNS_6models14MediaFileModelE
FNDA:0,_ZN12media_player12repositories20PlaybackHistoryEntryC2ERKNS_6models14MediaFileModelE
FNF:1
FNH:0
DA:25,0
DA:26,0
DA:27,0
DA:29,0
LF:4
LH:0
end_of_record
TN:
SF:/home/duong/MediaPlayerApp/inc/repositories/IRepository.h
FN:18,18,_ZN12media_player12repositories11IRepositoryINS_6models13PlaylistModelEED0Ev
FN:18,18,_ZN12media_player12repositories11IRepositoryINS_6models13PlaylistModelEED2Ev
FN:18,18,_ZN12media_player12repositories11IRepositoryINS_6models14MediaFileModelEED0Ev
FN:18,18,_ZN12media_player12repositories11IRepositoryINS_6models14MediaFileModelEED2Ev
FNDA:0,_ZN12media_player12repositories11IRepositoryINS_6models13PlaylistModelEED0Ev
FNDA:34,_ZN12media_player12repositories11IRepositoryINS_6models13PlaylistModelEED2Ev
FNDA:0,_ZN12media_player12repositories11IRepositoryINS_6models14MediaFileModelEED0Ev
FNDA:58,_ZN12media_player12repositories11IRepositoryINS_6models14MediaFileModelEED2Ev
FNF:4
FNH:2
DA:18,92
LF:1
LH:1
end_of_record
TN:
SF:/home/duong/MediaPlayerApp/src/repositories/HistoryRepository.cpp
FN:105,110,_ZN12media_player12repositories17HistoryRepository5clearEv
FN:112,116,_ZNK12media_player12repositories17HistoryRepository5countEv
FN:118,134,_ZNK12media_player12repositories17HistoryRepository17wasRecentlyPlayedERKNSt7__cxx1112basic_stringIcSt11char_traitsIcESaIcEEEi
FN:136,146,_ZNK12media_player12repositories17HistoryRepository13getLastPlayedEv
FN:148,154,_ZNK12media_player12repositories17HistoryRepository17getPreviousPlayedEv
FN:156,163,_ZNK12media_player12repositories17HistoryRepository15getPlayedBeforeERKNSt7__cxx1112basic_stringIcSt11char_traitsIcESaIcEEE
FN:165,169,_ZN12media_player12repositories17HistoryRepository12loadFromDiskEv
FN:17,24,_ZN12media_player12repositories17HistoryRepositoryC2ERKNSt7__cxx1112basic_stringIcSt11char_traitsIcESaIcEEEm
FN:171,175,_ZN12media_player12repositories17HistoryRepository10saveToDiskEv
FN:177,212,_ZN12media_player12repositories17HistoryRepository16serializeHistoryEv
FN:214,297,_ZN12media_player12repositories17HistoryRepository18deserializeHistoryEv
FN:26,30,_ZN12media_player12repositories17HistoryRepositoryD2Ev
FN:299,312,_ZN12media_player12repositories17HistoryRepository28ensureStorageDirectoryExistsEv
FN:314,317,_ZNK12media_player12repositories17HistoryRepository18getHistoryFilePathB5cxx11Ev
FN:32,46,_ZN12media_player12repositories17HistoryRepository8addEntryERKNS_6models14MediaFileModelE
FN:48,57,_ZN12media_player12repositories17HistoryRepository31removeMostRecentEntryByFilePathERKNSt7__cxx1112basic_stringIcSt11char_traitsIcESaIcEEE
FN:52,52,_ZZN12media_player12repositories17HistoryRepository31removeMostRecentEntryByFilePathERKNSt7__cxx1112basic_stringIcSt11char_traitsIcESaIcEEEENKUlRKNS0_20PlaybackHistoryEntryEE_clESC_
FN:59,68,_ZN12media_player12repositories17HistoryRepository26removeAllEntriesByFilePathERKNSt7__cxx1112basic_stringIcSt11char_traitsIcESaIcEEE
FN:63,63,_ZZN12media_player12repositories17HistoryRepository26removeAllEntriesByFilePathERKNSt7__cxx1112basic_stringIcSt11char_traitsIcESaIcEEEENKUlRKNS0_20PlaybackHistoryEntryEE_clESC_
FN:70,85,_ZNK12media_player12repositories17HistoryRepository16getRecentHistoryEm
FN:87,93,_ZNK12media_player12repositories17HistoryRepository13getAllHistoryEv
FN:95,103,_ZN12media_player12repositories17HistoryRepository10setHistoryERKSt6vectorINS0_20PlaybackHistoryEntryESaIS3_EE
FNDA:1,_ZN12media_player12repositories17HistoryRepository5clearEv
FNDA:14,_ZNK12media_player12repositories17HistoryRepository5countEv
FNDA:3,_ZNK12media_player12repositories17HistoryRepository17wasRecentlyPlayedERKNSt7__cxx1112basic_stringIcSt11char_traitsIcESaIcEEEi
FNDA:2,_ZNK12media_player12repositories17HistoryRepository13getLastPlayedEv
FNDA:3,_ZNK12media_player12repositories17HistoryRepository17getPreviousPlayedEv
FNDA:3,_ZNK12media_player12repositories17HistoryRepository15getPlayedBeforeERKNSt7__cxx1112basic_stringIcSt11char_traitsIcESaIcEEE
FNDA:79,_ZN12media_player12repositories17HistoryRepository12loadFromDiskEv
FNDA:78,_ZN12media_player12repositories17HistoryRepositoryC2ERKNSt7__cxx1112basic_stringIcSt11char_traitsIcESaIcEEEm
FNDA:122,_ZN12media_player12repositories17HistoryRepository10saveToDiskEv
FNDA:122,_ZN12media_player12repositories17HistoryRepository16serializeHistoryEv
FNDA:79,_ZN12media_player12repositories17HistoryRepository18deserializeHistoryEv
FNDA:78,_ZN12media_player12repositories17HistoryRepositoryD2Ev
FNDA:78,_ZN12media_player12repositories17HistoryRepository28ensureStorageDirectoryExistsEv
FNDA:201,_ZNK12media_player12repositories17HistoryRepository18getHistoryFilePathB5cxx11Ev
FNDA:48,_ZN12media_player12repositories17HistoryRepository8addEntryERKNS_6models14MediaFileModelE
FNDA:2,_ZN12media_player12repositories17HistoryRepository31removeMostRecentEntryByFilePathERKNSt7__cxx1112basic_stringIcSt11char_traitsIcESaIcEEE
FNDA:2,_ZZN12media_player12repositories17HistoryRepository31removeMostRecentEntryByFilePathERKNSt7__cxx1112basic_stringIcSt11char_traitsIcESaIcEEEENKUlRKNS0_20PlaybackHistoryEntryEE_clESC_
FNDA:2,_ZN12media_player12repositories17HistoryRepository26removeAllEntriesByFilePathERKNSt7__cxx1112basic_stringIcSt11char_traitsIcESaIcEEE
FNDA:4,_ZZN12media_player12repositories17HistoryRepository26removeAllEntriesByFilePathERKNSt7__cxx1112basic_stringIcSt11char_traitsIcESaIcEEEENKUlRKNS0_20PlaybackHistoryEntryEE_clESC_
FNDA:4,_ZNK12media_player12repositories17HistoryRepository16getRecentHistoryEm
FNDA:52,_ZNK12media_player12repositories17HistoryRepository13getAllHistoryEv
FNDA:43,_ZN12media_player12repositories17HistoryRepository10setHistoryERKSt6vectorINS0_20PlaybackHistoryEntryESaIS3_EE
FNF:22
FNH:22
BRDA:19,0,0,78
BRDA:19,e0,1,0
BRDA:22,0,0,78
BRDA:22,e0,1,0
BRDA:23,0,0,78
BRDA:23,e0,1,0
BRDA:34,0,0,48
BRDA:34,e0,1,0
BRDA:37,0,0,48
BRDA:37,e0,1,0
BRDA:37,0,2,48
BRDA:37,e0,3,0
BRDA:40,0,0,1
BRDA:40,0,1,47
BRDA:50,0,0,2
BRDA:50,e0,1,0
BRDA:52,0,0,2
BRDA:52,e0,1,0
BRDA:52,0,2,2
BRDA:52,e0,3,0
BRDA:53,0,0,1
BRDA:53,0,1,1
BRDA:55,0,0,1
BRDA:55,e0,1,0
BRDA:61,0,0,2
BRDA:61,e0,1,0
BRDA:63,0,0,2
BRDA:63,e0,1,0
BRDA:63,0,2,4
BRDA:63,e0,3,0
BRDA:64,0,0,1
BRDA:64,0,1,1
BRDA:66,0,0,1
BRDA:66,e0,1,0
BRDA:72,0,0,4
BRDA:72,e0,1,0
BRDA:77,0,0,4
BRDA:77,e0,1,0
BRDA:79,0,0,6
BRDA:79,0,1,4
BRDA:81,0,0,6
BRDA:81,e0,1,0
BRDA:89,0,0,52
BRDA:89,e0,1,0
BRDA:91,0,0,52
BRDA:91,e0,1,0
BRDA:97,0,0,43
BRDA:97,e0,1,0
BRDA:99,0,0,308
BRDA:99,0,1,43
BRDA:101,0,0,308
BRDA:101,e0,1,0
BRDA:107,0,0,1
BRDA:107,e0,1,0
BRDA:114,0,0,14
BRDA:114,e0,1,0
BRDA:120,0,0,3
BRDA:120,e0,1,0
BRDA:123,0,0,3
BRDA:123,e0,1,0
BRDA:125,0,0,2
BRDA:125,0,1,2
BRDA:127,0,0,2
BRDA:127,e0,1,0
BRDA:127,0,2,1
BRDA:127,0,3,1
BRDA:127,0,4,1
BRDA:127,e0,5,0
BRDA:127,0,6,1
BRDA:127,0,7,0
BRDA:127,0,8,2
BRDA:127,0,9,0
BRDA:127,0,10,1
BRDA:127,0,11,1
BRDA:127,0,12,0
BRDA:127,0,13,0
BRDA:138,0,0,2
BRDA:138,e0,1,0
BRDA:140,0,0,1
BRDA:140,0,1,1
BRDA:145,0,0,1
BRDA:145,e0,1,0
BRDA:150,0,0,3
BRDA:150,e0,1,0
BRDA:151,0,0,2
BRDA:151,0,1,1
BRDA:153,0,0,1
BRDA:153,e0,1,0
BRDA:158,0,0,3
BRDA:158,e0,1,0
BRDA:159,0,0,3
BRDA:159,0,1,2
BRDA:160,0,0,3
BRDA:160,e0,1,0
BRDA:160,0,2,2
BRDA:160,0,3,1
BRDA:160,0,4,1
BRDA:160,0,5,1
BRDA:160,0,6,3
BRDA:160,0,7,0
BRDA:160,0,8,1
BRDA:160,0,9,2
BRDA:160,0,10,0
BRDA:160,0,11,0
BRDA:161,0,0,1
BRDA:161,e0,1,0
BRDA:167,0,0,79
BRDA:167,e0,1,0
BRDA:168,0,0,79
BRDA:168,e0,1,0
BRDA:173,0,0,122
BRDA:173,e0,1,0
BRDA:174,0,0,122
BRDA:174,e0,1,0
BRDA:181,0,0,122
BRDA:181,e0,1,0
BRDA:182,0,0,122
BRDA:182,e0,1,0
BRDA:184,0,0,18
BRDA:184,0,1,104
BRDA:189,0,0,104
BRDA:189,e0,1,0
BRDA:190,0,0,104
BRDA:190,e0,1,0
BRDA:190,0,2,104
BRDA:190,e0,3,0
BRDA:190,0,4,104
BRDA:190,e0,5,0
BRDA:191,0,0,104
BRDA:191,e0,1,0
BRDA:194,0,0,652
BRDA:194,0,1,104
BRDA:197,0,0,652
BRDA:197,e0,1,0
BRDA:198,0,0,652
BRDA:198,e0,1,0
BRDA:199,0,0,46
BRDA:199,0,1,0
BRDA:199,0,2,46
BRDA:199,0,3,0
BRDA:199,0,4,0
BRDA:199,0,5,46
BRDA:199,0,6,46
BRDA:199,0,7,652
BRDA:200,0,0,40
BRDA:200,0,1,0
BRDA:200,0,2,40
BRDA:200,0,3,0
BRDA:200,0,4,0
BRDA:200,0,5,40
BRDA:200,0,6,40
BRDA:200,0,7,652
BRDA:201,0,0,652
BRDA:201,e0,1,0
BRDA:201,0,2,652
BRDA:201,e0,3,0
BRDA:201,0,4,652
BRDA:201,e0,5,0
BRDA:201,0,6,652
BRDA:201,e0,7,0
BRDA:201,0,8,652
BRDA:201,e0,9,0
BRDA:201,0,10,652
BRDA:201,e0,11,0
BRDA:201,0,12,652
BRDA:201,e0,13,0
BRDA:201,0,14,652
BRDA:201,e0,15,0
BRDA:201,0,16,652
BRDA:201,e0,17,0
BRDA:204,0,0,104
BRDA:204,e0,1,0
BRDA:208,0,0,0
BRDA:208,0,1,0
BRDA:218,0,0,79
BRDA:218,e0,1,0
BRDA:220,0,0,79
BRDA:220,e0,1,0
BRDA:220,0,2,79
BRDA:220,e0,3,0
BRDA:220,0,4,42
BRDA:220,0,5,37
BRDA:225,0,0,37
BRDA:225,e0,1,0
BRDA:227,0,0,0
BRDA:227,0,1,37
BRDA:236,0,0,454
BRDA:236,e0,1,0
BRDA:236,0,2,454
BRDA:236,e0,3,0
BRDA:236,0,4,417
BRDA:236,0,5,37
BRDA:238,0,0,0
BRDA:238,0,1,417
BRDA:243,0,0,417
BRDA:243,e0,1,0
BRDA:243,0,2,37
BRDA:243,0,3,380
BRDA:249,0,0,306
BRDA:249,0,1,74
BRDA:253,0,0,305
BRDA:253,0,1,1
BRDA:255,0,0,305
BRDA:255,e0,1,0
BRDA:257,0,0,305
BRDA:257,0,1,0
BRDA:257,0,2,305
BRDA:257,e0,3,0
BRDA:258,0,0,305
BRDA:258,0,1,0
BRDA:258,0,2,305
BRDA:258,e0,3,0
BRDA:258,0,4,305
BRDA:258,e0,5,0
BRDA:261,0,0,1
BRDA:261,0,1,0
BRDA:262,0,0,1
BRDA:262,e0,1,0
BRDA:263,0,0,1
BRDA:263,e0,1,0
BRDA:266,0,0,306
BRDA:266,0,1,0
BRDA:268,0,0,306
BRDA:268,e0,1,0
BRDA:269,0,0,306
BRDA:269,e0,1,0
BRDA:269,0,2,306
BRDA:269,0,3,0
BRDA:271,0,0,2
BRDA:271,0,1,304
BRDA:271,0,2,2
BRDA:271,e0,3,0
BRDA:272,0,0,2
BRDA:272,0,1,304
BRDA:272,0,2,2
BRDA:272,e0,3,0
BRDA:273,0,0,306
BRDA:273,e0,1,0
BRDA:276,0,0,306
BRDA:276,0,1,0
BRDA:277,0,0,306
BRDA:277,e0,1,0
BRDA:281,0,0,0
BRDA:281,e0,1,0
BRDA:282,0,0,306
BRDA:282,e0,1,0
BRDA:289,0,0,37
BRDA:289,e0,1,0
BRDA:293,0,0,0
BRDA:293,0,1,0
BRDA:303,0,0,78
BRDA:303,e0,1,0
BRDA:303,0,2,78
BRDA:303,e0,3,0
BRDA:303,0,4,33
BRDA:303,0,5,45
BRDA:305,0,0,33
BRDA:305,e0,1,0
BRDA:305,0,2,33
BRDA:305,e0,3,0
BRDA:308,0,0,0
BRDA:308,0,1,0
BRF:262
BRH:151
DA:17,78
DA:18,78
DA:19,78
DA:22,78
DA:23,78
DA:24,78
DA:26,78
DA:29,78
DA:30,78
DA:32,48
DA:34,48
DA:37,48
DA:40,48
DA:42,1
DA:46,48
DA:48,2
DA:50,2
DA:51,2
DA:52,6
DA:53,2
DA:55,1
DA:57,2
DA:59,2
DA:61,2
DA:62,2
DA:63,8
DA:64,2
DA:66,1
DA:68,2
DA:70,4
DA:72,4
DA:74,4
DA:75,4
DA:77,4
DA:79,10
DA:81,6
DA:84,8
DA:85,4
DA:87,52
DA:89,52
DA:91,52
DA:93,52
DA:95,43
DA:97,43
DA:98,43
DA:99,351
DA:101,308
DA:103,43
DA:105,1
DA:107,1
DA:109,1
DA:110,1
DA:112,14
DA:114,14
DA:115,28
DA:116,14
DA:118,3
DA:120,3
DA:122,3
DA:123,3
DA:125,4
DA:127,2
DA:129,1
DA:133,2
DA:134,3
DA:136,2
DA:138,2
DA:140,2
DA:142,1
DA:145,1
DA:146,2
DA:148,3
DA:150,3
DA:151,3
DA:152,2
DA:153,1
DA:154,3
DA:156,3
DA:158,3
DA:159,5
DA:160,3
DA:161,1
DA:162,2
DA:163,3
DA:165,79
DA:167,79
DA:168,158
DA:169,79
DA:171,122
DA:173,122
DA:174,244
DA:175,122
DA:177,122
DA:181,122
DA:182,122
DA:184,122
DA:186,18
DA:189,104
DA:190,104
DA:191,104
DA:193,104
DA:194,756
DA:196,652
DA:197,652
DA:198,652
DA:199,698
DA:200,692
DA:201,652
DA:202,652
DA:204,104
DA:206,104
DA:207,122
DA:208,0
DA:210,0
DA:211,0
DA:214,79
DA:218,79
DA:220,79
DA:222,42
DA:225,37
DA:227,37
DA:229,0
DA:232,37
DA:233,37
DA:234,37
DA:236,454
DA:238,417
DA:240,0
DA:243,417
DA:245,37
DA:246,37
DA:249,380
DA:252,306
DA:253,306
DA:254,305
DA:255,305
DA:256,305
DA:257,305
DA:258,305
DA:260,1
DA:261,1
DA:262,1
DA:263,1
DA:266,306
DA:268,306
DA:269,306
DA:271,306
DA:272,306
DA:273,306
DA:276,306
DA:277,306
DA:278,306
DA:281,0
DA:282,306
DA:283,306
DA:284,306
DA:285,306
DA:286,306
DA:289,37
DA:291,37
DA:292,79
DA:293,0
DA:295,0
DA:296,0
DA:299,78
DA:303,78
DA:305,33
DA:308,0
DA:311,0
DA:312,78
DA:314,201
DA:316,201
LF:172
LH:161
end_of_record
TN:
SF:/home/duong/MediaPlayerApp/src/repositories/LibraryRepository.cpp
FN:100,104,_ZN12media_player12repositories17LibraryRepository6existsERKNSt7__cxx1112basic_stringIcSt11char_traitsIcESaIcEEE
FN:106,117,_ZN12media_player12repositories17LibraryRepository7saveAllERKSt6vectorINS_6models14MediaFileModelESaIS4_EE
FN:119,124,_ZN12media_player12repositories17LibraryRepository5clearEv
FN:126,130,_ZNK12media_player12repositories17LibraryRepository5countEv
FN:132,138,_ZN12media_player12repositories17LibraryRepository10findByPathERKNSt7__cxx1112basic_stringIcSt11char_traitsIcESaIcEEE
FN:140,155,_ZN12media_player12repositories17LibraryRepository10findByTypeENS_6models9MediaTypeE
FN:157,177,_ZN12media_player12repositories17LibraryRepository16searchByFileNameERKNSt7__cxx1112basic_stringIcSt11char_traitsIcESaIcEEE
FN:17,22,_ZN12media_player12repositories17LibraryRepositoryC2ERKNSt7__cxx1112basic_stringIcSt11char_traitsIcESaIcEEE
FN:179,194,_ZNK12media_player12repositories17LibraryRepository11countByTypeENS_6models9MediaTypeE
FN:196,208,_ZNK12media_player12repositories17LibraryRepository12getTotalSizeEv
FN:210,215,_ZN12media_player12repositories17LibraryRepository12loadFromDiskEv
FN:217,222,_ZN12media_player12repositories17LibraryRepository10saveToDiskEv
FN:224,227,_ZNK12media_player12repositories17LibraryRepository18getLibraryFilePathB5cxx11Ev
FN:229,264,_ZN12media_player12repositories17LibraryRepository16serializeLibraryEv
FN:24,27,_ZN12media_player12repositories17LibraryRepositoryD0Ev
FN:24,27,_ZN12media_player12repositories17LibraryRepositoryD2Ev
FN:266,330,_ZN12media_player12repositories17LibraryRepository18deserializeLibraryEv
FN:29,37,_ZN12media_player12repositories17LibraryRepository4saveERKNS_6models14MediaFileModelE
FN:332,345,_ZN12media_player12repositories17LibraryRepository28ensureStorageDirectoryExistsEv
FN:347,354,_ZNK12media_player12repositories17LibraryRepository10generateIdERKNSt7__cxx1112basic_stringIcSt11char_traitsIcESaIcEEE
FN:39,51,_ZN12media_player12repositories17LibraryRepository8findByIdERKNSt7__cxx1112basic_stringIcSt11char_traitsIcESaIcEEE
FN:53,66,_ZN12media_player12repositories17LibraryRepository7findAllEv
FN:68,82,_ZN12media_player12repositories17LibraryRepository6updateERKNS_6models14MediaFileModelE
FN:84,98,_ZN12media_player12repositories17LibraryRepository6removeERKNSt7__cxx1112basic_stringIcSt11char_traitsIcESaIcEEE
FNDA:2,_ZN12media_player12repositories17LibraryRepository6existsERKNSt7__cxx1112basic_stringIcSt11char_traitsIcESaIcEEE
FNDA:2,_ZN12media_player12repositories17LibraryRepository7saveAllERKSt6vectorINS_6models14MediaFileModelESaIS4_EE
FNDA:1,_ZN12media_player12repositories17LibraryRepository5clearEv
FNDA:11,_ZNK12media_player12repositories17LibraryRepository5countEv
FNDA:0,_ZN12media_player12repositories17LibraryRepository10findByPathERKNSt7__cxx1112basic_stringIcSt11char_traitsIcESaIcEEE
FNDA:4,_ZN12media_player12repositories17LibraryRepository10findByTypeENS_6models9MediaTypeE
FNDA:4,_ZN12media_player12repositories17LibraryRepository16searchByFileNameERKNSt7__cxx1112basic_stringIcSt11char_traitsIcESaIcEEE
FNDA:58,_ZN12media_player12repositories17LibraryRepositoryC2ERKNSt7__cxx1112basic_stringIcSt11char_traitsIcESaIcEEE
FNDA:3,_ZNK12media_player12repositories17LibraryRepository11countByTypeENS_6models9MediaTypeE
FNDA:2,_ZNK12media_player12repositories17LibraryRepository12getTotalSizeEv
FNDA:58,_ZN12media_player12repositories17LibraryRepository12loadFromDiskEv
FNDA:59,_ZN12media_player12repositories17LibraryRepository10saveToDiskEv
FNDA:117,_ZNK12media_player12repositories17LibraryRepository18getLibraryFilePathB5cxx11Ev
FNDA:59,_ZN12media_player12repositories17LibraryRepository16serializeLibraryEv
FNDA:0,_ZN12media_player12repositories17LibraryRepositoryD0Ev
FNDA:58,_ZN12media_player12repositories17LibraryRepositoryD2Ev
FNDA:58,_ZN12media_player12repositories17LibraryRepository18deserializeLibraryEv
FNDA:36,_ZN12media_player12repositories17LibraryRepository4saveERKNS_6models14MediaFileModelE
FNDA:58,_ZN12media_player12repositories17LibraryRepository28ensureStorageDirectoryExistsEv
FNDA:43,_ZNK12media_player12repositories17LibraryRepository10generateIdERKNSt7__cxx1112basic_stringIcSt11char_traitsIcESaIcEEE
FNDA:2,_ZN12media_player12repositories17LibraryRepository8findByIdERKNSt7__cxx1112basic_stringIcSt11char_traitsIcESaIcEEE
FNDA:5,_ZN12media_player12repositories17LibraryRepository7findAllEv
FNDA:2,_ZN12media_player12repositories17LibraryRepository6updateERKNS_6models14MediaFileModelE
FNDA:2,_ZN12media_player12repositories17LibraryRepository6removeERKNSt7__cxx1112basic_stringIcSt11char_traitsIcESaIcEEE
FNF:24
FNH:22
BRDA:18,0,0,58
BRDA:18,e0,1,0
BRDA:20,0,0,58
BRDA:20,e0,1,0
BRDA:21,0,0,58
BRDA:21,e0,1,0
BRDA:31,0,0,36
BRDA:31,e0,1,0
BRDA:33,0,0,36
BRDA:33,e0,1,0
BRDA:33,0,2,36
BRDA:33,e0,3,0
BRDA:34,0,0,36
BRDA:34,e0,1,0
BRDA:34,0,2,36
BRDA:34,e0,3,0
BRDA:41,0,0,2
BRDA:41,e0,1,0
BRDA:43,0,0,2
BRDA:43,e0,1,0
BRDA:45,0,0,1
BRDA:45,0,1,1
BRDA:47,0,0,1
BRDA:47,e0,1,0
BRDA:55,0,0,5
BRDA:55,e0,1,0
BRDA:58,0,0,5
BRDA:58,e0,1,0
BRDA:60,0,0,4
BRDA:60,0,1,5
BRDA:62,0,0,4
BRDA:62,e0,1,0
BRDA:70,0,0,2
BRDA:70,e0,1,0
BRDA:72,0,0,2
BRDA:72,e0,1,0
BRDA:72,0,2,2
BRDA:72,e0,3,0
BRDA:74,0,0,2
BRDA:74,e0,1,0
BRDA:74,0,2,1
BRDA:74,0,3,1
BRDA:79,0,0,1
BRDA:79,e0,1,0
BRDA:79,0,2,1
BRDA:79,e0,3,0
BRDA:86,0,0,2
BRDA:86,e0,1,0
BRDA:88,0,0,2
BRDA:88,e0,1,0
BRDA:90,0,0,1
BRDA:90,0,1,1
BRDA:95,0,0,1
BRDA:95,e0,1,0
BRDA:102,0,0,2
BRDA:102,e0,1,0
BRDA:103,0,0,2
BRDA:103,e0,1,0
BRDA:108,0,0,2
BRDA:108,e0,1,0
BRDA:110,0,0,3
BRDA:110,0,1,2
BRDA:112,0,0,3
BRDA:112,e0,1,0
BRDA:112,0,2,3
BRDA:112,e0,3,0
BRDA:113,0,0,3
BRDA:113,e0,1,0
BRDA:113,0,2,3
BRDA:113,e0,3,0
BRDA:121,0,0,1
BRDA:121,e0,1,0
BRDA:128,0,0,11
BRDA:128,e0,1,0
BRDA:134,0,0,-
BRDA:134,e0,1,-
BRDA:136,0,0,-
BRDA:136,e0,1,-
BRDA:137,0,0,-
BRDA:137,e0,1,-
BRDA:142,0,0,4
BRDA:142,e0,1,0
BRDA:146,0,0,7
BRDA:146,0,1,4
BRDA:148,0,0,6
BRDA:148,0,1,1
BRDA:150,0,0,6
BRDA:150,e0,1,0
BRDA:159,0,0,4
BRDA:159,e0,1,0
BRDA:162,0,0,4
BRDA:162,e0,1,0
BRDA:165,0,0,5
BRDA:165,0,1,4
BRDA:167,0,0,5
BRDA:167,e0,1,0
BRDA:170,0,0,3
BRDA:170,0,1,2
BRDA:172,0,0,3
BRDA:172,e0,1,0
BRDA:181,0,0,3
BRDA:181,e0,1,0
BRDA:185,0,0,5
BRDA:185,0,1,3
BRDA:187,0,0,4
BRDA:187,0,1,1
BRDA:198,0,0,2
BRDA:198,e0,1,0
BRDA:202,0,0,2
BRDA:202,0,1,2
BRDA:212,0,0,58
BRDA:212,e0,1,0
BRDA:214,0,0,58
BRDA:214,e0,1,0
BRDA:219,0,0,59
BRDA:219,e0,1,0
BRDA:221,0,0,59
BRDA:221,e0,1,0
BRDA:233,0,0,59
BRDA:233,e0,1,0
BRDA:234,0,0,59
BRDA:234,e0,1,0
BRDA:236,0,0,0
BRDA:236,0,1,59
BRDA:241,0,0,59
BRDA:241,e0,1,0
BRDA:242,0,0,59
BRDA:242,e0,1,0
BRDA:242,0,2,59
BRDA:242,e0,3,0
BRDA:242,0,4,59
BRDA:242,e0,5,0
BRDA:243,0,0,59
BRDA:243,e0,1,0
BRDA:245,0,0,38
BRDA:245,0,1,59
BRDA:248,0,0,38
BRDA:248,e0,1,0
BRDA:250,0,0,38
BRDA:250,e0,1,0
BRDA:250,0,2,38
BRDA:250,e0,3,0
BRDA:250,0,4,38
BRDA:250,e0,5,0
BRDA:250,0,6,38
BRDA:250,e0,7,0
BRDA:250,0,8,38
BRDA:250,e0,9,0
BRDA:250,0,10,38
BRDA:250,e0,11,0
BRDA:250,0,12,38
BRDA:250,e0,13,0
BRDA:250,0,14,38
BRDA:250,e0,15,0
BRDA:251,0,0,38
BRDA:251,e0,1,0
BRDA:251,0,2,38
BRDA:251,e0,3,0
BRDA:252,0,0,38
BRDA:252,e0,1,0
BRDA:252,0,2,38
BRDA:252,e0,3,0
BRDA:255,0,0,59
BRDA:255,e0,1,0
BRDA:259,0,0,0
BRDA:259,0,1,0
BRDA:270,0,0,58
BRDA:270,e0,1,0
BRDA:272,0,0,58
BRDA:272,e0,1,0
BRDA:272,0,2,58
BRDA:272,e0,3,0
BRDA:272,0,4,34
BRDA:272,0,5,24
BRDA:277,0,0,24
BRDA:277,e0,1,0
BRDA:279,0,0,0
BRDA:279,0,1,24
BRDA:288,0,0,98
BRDA:288,e0,1,0
BRDA:288,0,2,98
BRDA:288,e0,3,0
BRDA:288,0,4,74
BRDA:288,0,5,24
BRDA:290,0,0,0
BRDA:290,0,1,74
BRDA:295,0,0,74
BRDA:295,e0,1,0
BRDA:295,0,2,24
BRDA:295,0,3,50
BRDA:301,0,0,2
BRDA:301,0,1,48
BRDA:304,0,0,2
BRDA:304,e0,1,0
BRDA:307,0,0,2
BRDA:307,e0,1,0
BRDA:307,0,2,2
BRDA:307,e0,3,0
BRDA:307,0,4,2
BRDA:307,0,5,0
BRDA:309,0,0,2
BRDA:309,e0,1,0
BRDA:311,0,0,2
BRDA:311,e0,1,0
BRDA:311,0,2,2
BRDA:311,0,3,0
BRDA:313,0,0,2
BRDA:313,e0,1,0
BRDA:314,0,0,2
BRDA:314,e0,1,0
BRDA:314,0,2,2
BRDA:314,e0,3,0
BRDA:321,0,0,24
BRDA:321,e0,1,0
BRDA:325,0,0,0
BRDA:325,0,1,0
BRDA:336,0,0,58
BRDA:336,e0,1,0
BRDA:336,0,2,58
BRDA:336,e0,3,0
BRDA:336,0,4,34
BRDA:336,0,5,24
BRDA:338,0,0,34
BRDA:338,e0,1,0
BRDA:338,0,2,34
BRDA:338,e0,3,0
BRDA:341,0,0,0
BRDA:341,0,1,0
BRDA:353,0,0,43
BRDA:353,e0,1,0
BRDA:353,0,2,43
BRDA:353,e0,3,0
BRF:232
BRH:128
DA:17,58
DA:18,58
DA:20,58
DA:21,58
DA:22,58
DA:24,58
DA:26,58
DA:27,58
DA:29,36
DA:31,36
DA:33,36
DA:34,36
DA:36,36
DA:37,36
DA:39,2
DA:41,2
DA:43,2
DA:45,2
DA:47,1
DA:50,1
DA:51,2
DA:53,5
DA:55,5
DA:57,5
DA:58,5
DA:60,9
DA:62,4
DA:65,10
DA:66,5
DA:68,2
DA:70,2
DA:72,2
DA:74,2
DA:76,1
DA:79,1
DA:81,1
DA:82,2
DA:84,2
DA:86,2
DA:88,2
DA:90,2
DA:92,1
DA:95,1
DA:97,1
DA:98,2
DA:100,2
DA:102,2
DA:103,4
DA:104,2
DA:106,2
DA:108,2
DA:110,5
DA:112,3
DA:113,3
DA:114,3
DA:116,2
DA:117,2
DA:119,1
DA:121,1
DA:123,1
DA:124,1
DA:126,11
DA:128,11
DA:129,22
DA:130,11
DA:132,0
DA:134,0
DA:136,0
DA:137,0
DA:138,0
DA:140,4
DA:142,4
DA:144,4
DA:146,11
DA:148,7
DA:150,6
DA:154,8
DA:155,4
DA:157,4
DA:159,4
DA:161,4
DA:162,4
DA:163,4
DA:165,9
DA:167,5
DA:168,5
DA:170,5
DA:172,3
DA:174,5
DA:176,8
DA:177,4
DA:179,3
DA:181,3
DA:183,3
DA:185,8
DA:187,5
DA:189,4
DA:193,3
DA:194,3
DA:196,2
DA:198,2
DA:200,2
DA:202,4
DA:204,2
DA:207,2
DA:208,2
DA:210,58
DA:212,58
DA:214,116
DA:215,58
DA:217,59
DA:219,59
DA:221,118
DA:222,59
DA:224,117
DA:226,117
DA:229,59
DA:233,59
DA:234,59
DA:236,59
DA:238,0
DA:241,59
DA:242,59
DA:243,59
DA:245,97
DA:247,38
DA:248,76
DA:249,38
DA:250,76
DA:251,38
DA:252,38
DA:255,59
DA:257,59
DA:258,59
DA:259,0
DA:262,0
DA:263,0
DA:266,58
DA:270,58
DA:272,58
DA:274,34
DA:277,24
DA:279,24
DA:281,0
DA:284,24
DA:285,24
DA:286,24
DA:288,98
DA:290,74
DA:292,0
DA:295,74
DA:297,24
DA:298,24
DA:301,50
DA:304,2
DA:305,2
DA:307,2
DA:309,2
DA:311,2
DA:313,2
DA:314,2
DA:315,2
DA:316,2
DA:317,2
DA:318,2
DA:321,24
DA:323,24
DA:324,58
DA:325,0
DA:328,0
DA:329,0
DA:332,58
DA:336,58
DA:338,34
DA:341,0
DA:344,0
DA:345,58
DA:347,43
DA:351,43
DA:353,43
LF:180
LH:164
end_of_record
TN:
SF:/home/duong/MediaPlayerApp/src/repositories/PlaylistRepository.cpp
FN:116,148,_ZN12media_player12repositories18PlaylistRepository6removeERKNSt7__cxx1112basic_stringIcSt11char_traitsIcESaIcEEE
FN:150,154,_ZN12media_player12repositories18PlaylistRepository6existsERKNSt7__cxx1112basic_stringIcSt11char_traitsIcESaIcEEE
FN:156,169,_ZN12media_player12repositories18PlaylistRepository7saveAllERKSt6vectorINS_6models13PlaylistModelESaIS4_EE
FN:17,22,_ZN12media_player12repositories18PlaylistRepositoryC2ERKNSt7__cxx1112basic_stringIcSt11char_traitsIcESaIcEEE
FN:171,193,_ZN12media_player12repositories18PlaylistRepository5clearEv
FN:195,199,_ZNK12media_player12repositories18PlaylistRepository5countEv
FN:201,214,_ZN12media_player12repositories18PlaylistRepository10findByNameERKNSt7__cxx1112basic_stringIcSt11char_traitsIcESaIcEEE
FN:216,236,_ZN12media_player12repositories18PlaylistRepository12searchByNameERKNSt7__cxx1112basic_stringIcSt11char_traitsIcESaIcEEE
FN:238,272,_ZN12media_player12repositories18PlaylistRepository12loadFromDiskEv
FN:24,27,_ZN12media_player12repositories18PlaylistRepositoryD0Ev
FN:24,27,_ZN12media_player12repositories18PlaylistRepositoryD2Ev
FN:274,294,_ZN12media_player12repositories18PlaylistRepository10saveToDiskEv
FN:29,59,_ZN12media_player12repositories18PlaylistRepository4saveERKNS_6models13PlaylistModelE
FN:296,299,_ZNK12media_player12repositories18PlaylistRepository19getPlaylistFilePathERKNSt7__cxx1112basic_stringIcSt11char_traitsIcESaIcEEE
FN:301,336,_ZN12media_player12repositories18PlaylistRepository17serializePlaylistERKNS_6models13PlaylistModelERKNSt7__cxx1112basic_stringIcSt11char_traitsIcESaIcEEE
FN:338,438,_ZN12media_player12repositories18PlaylistRepository19deserializePlaylistERKNSt7__cxx1112basic_stringIcSt11char_traitsIcESaIcEEE
FN:440,453,_ZN12media_player12repositories18PlaylistRepository28ensureStorageDirectoryExistsEv
FN:61,73,_ZN12media_player12repositories18PlaylistRepository8findByIdERKNSt7__cxx1112basic_stringIcSt11char_traitsIcESaIcEEE
FN:75,88,_ZN12media_player12repositories18PlaylistRepository7findAllEv
FN:90,114,_ZN12media_player12repositories18PlaylistRepository6updateERKNS_6models13PlaylistModelE
FNDA:5,_ZN12media_player12repositories18PlaylistRepository6removeERKNSt7__cxx1112basic_stringIcSt11char_traitsIcESaIcEEE
FNDA:2,_ZN12media_player12repositories18PlaylistRepository6existsERKNSt7__cxx1112basic_stringIcSt11char_traitsIcESaIcEEE
FNDA:2,_ZN12media_player12repositories18PlaylistRepository7saveAllERKSt6vectorINS_6models13PlaylistModelESaIS4_EE
FNDA:34,_ZN12media_player12repositories18PlaylistRepositoryC2ERKNSt7__cxx1112basic_stringIcSt11char_traitsIcESaIcEEE
FNDA:2,_ZN12media_player12repositories18PlaylistRepository5clearEv
FNDA:12,_ZNK12media_player12repositories18PlaylistRepository5countEv
FNDA:9,_ZN12media_player12repositories18PlaylistRepository10findByNameERKNSt7__cxx1112basic_stringIcSt11char_traitsIcESaIcEEE
FNDA:4,_ZN12media_player12repositories18PlaylistRepository12searchByNameERKNSt7__cxx1112basic_stringIcSt11char_traitsIcESaIcEEE
FNDA:35,_ZN12media_player12repositories18PlaylistRepository12loadFromDiskEv
FNDA:0,_ZN12media_player12repositories18PlaylistRepositoryD0Ev
FNDA:34,_ZN12media_player12repositories18PlaylistRepositoryD2Ev
FNDA:35,_ZN12media_player12repositories18PlaylistRepository10saveToDiskEv
FNDA:32,_ZN12media_player12repositories18PlaylistRepository4saveERKNS_6models13PlaylistModelE
FNDA:71,_ZNK12media_player12repositories18PlaylistRepository19getPlaylistFilePathERKNSt7__cxx1112basic_stringIcSt11char_traitsIcESaIcEEE
FNDA:65,_ZN12media_player12repositories18PlaylistRepository17serializePlaylistERKNS_6models13PlaylistModelERKNSt7__cxx1112basic_stringIcSt11char_traitsIcESaIcEEE
FNDA:3,_ZN12media_player12repositories18PlaylistRepository19deserializePlaylistERKNSt7__cxx1112basic_stringIcSt11char_traitsIcESaIcEEE
FNDA:69,_ZN12media_player12repositories18PlaylistRepository28ensureStorageDirectoryExistsEv
FNDA:21,_ZN12media_player12repositories18PlaylistRepository8findByIdERKNSt7__cxx1112basic_stringIcSt11char_traitsIcESaIcEEE
FNDA:5,_ZN12media_player12repositories18PlaylistRepository7findAllEv
FNDA:7,_ZN12media_player12repositories18PlaylistRepository6updateERKNS_6models13PlaylistModelE
FNF:20
FNH:19
BRDA:18,0,0,34
BRDA:18,e0,1,0
BRDA:20,0,0,34
BRDA:20,e0,1,0
BRDA:21,0,0,34
BRDA:21,e0,1,0
BRDA:31,0,0,32
BRDA:31,e0,1,0
BRDA:35,0,0,32
BRDA:35,e0,1,0
BRDA:37,0,0,1
BRDA:37,0,1,31
BRDA:43,0,0,31
BRDA:43,e0,1,0
BRDA:43,0,2,31
BRDA:43,e0,3,0
BRDA:46,0,0,31
BRDA:46,e0,1,0
BRDA:48,0,0,31
BRDA:48,e0,1,0
BRDA:48,0,2,0
BRDA:48,0,3,31
BRDA:55,0,0,0
BRDA:55,0,1,0
BRDA:63,0,0,21
BRDA:63,e0,1,0
BRDA:65,0,0,21
BRDA:65,e0,1,0
BRDA:67,0,0,14
BRDA:67,0,1,7
BRDA:69,0,0,14
BRDA:69,e0,1,0
BRDA:77,0,0,5
BRDA:77,e0,1,0
BRDA:80,0,0,5
BRDA:80,e0,1,0
BRDA:82,0,0,3
BRDA:82,0,1,5
BRDA:84,0,0,3
BRDA:84,e0,1,0
BRDA:92,0,0,7
BRDA:92,e0,1,0
BRDA:94,0,0,7
BRDA:94,e0,1,0
BRDA:97,0,0,7
BRDA:97,e0,1,0
BRDA:97,0,2,1
BRDA:97,0,3,6
BRDA:103,0,0,6
BRDA:103,e0,1,0
BRDA:103,0,2,6
BRDA:103,e0,3,0
BRDA:106,0,0,6
BRDA:106,e0,1,0
BRDA:108,0,0,6
BRDA:108,e0,1,0
BRDA:108,0,2,0
BRDA:108,0,3,6
BRDA:118,0,0,5
BRDA:118,e0,1,0
BRDA:120,0,0,5
BRDA:120,e0,1,0
BRDA:122,0,0,2
BRDA:122,0,1,3
BRDA:127,0,0,3
BRDA:127,e0,1,0
BRDA:130,0,0,3
BRDA:130,e0,1,0
BRDA:133,0,0,3
BRDA:133,e0,1,0
BRDA:137,0,0,3
BRDA:137,e0,1,0
BRDA:137,0,2,3
BRDA:137,e0,3,0
BRDA:137,0,4,3
BRDA:137,0,5,0
BRDA:139,0,0,3
BRDA:139,e0,1,0
BRDA:139,0,2,3
BRDA:139,e0,3,0
BRDA:144,0,0,0
BRDA:144,0,1,0
BRDA:147,0,0,0
BRDA:147,e0,1,0
BRDA:152,0,0,2
BRDA:152,e0,1,0
BRDA:153,0,0,2
BRDA:153,e0,1,0
BRDA:160,0,0,2
BRDA:160,0,1,2
BRDA:162,0,0,2
BRDA:162,e0,1,0
BRDA:162,0,2,0
BRDA:162,0,3,2
BRDA:173,0,0,2
BRDA:173,e0,1,0
BRDA:178,0,0,3
BRDA:178,0,1,2
BRDA:180,0,0,3
BRDA:180,e0,1,0
BRDA:182,0,0,3
BRDA:182,e0,1,0
BRDA:182,0,2,3
BRDA:182,e0,3,0
BRDA:182,0,4,3
BRDA:182,0,5,0
BRDA:184,0,0,3
BRDA:184,e0,1,0
BRDA:184,0,2,3
BRDA:184,e0,3,0
BRDA:188,0,0,0
BRDA:188,0,1,0
BRDA:190,0,0,0
BRDA:190,e0,1,0
BRDA:197,0,0,12
BRDA:197,e0,1,0
BRDA:203,0,0,9
BRDA:203,e0,1,0
BRDA:205,0,0,7
BRDA:205,0,1,3
BRDA:207,0,0,7
BRDA:207,e0,1,0
BRDA:207,0,2,6
BRDA:207,0,3,1
BRDA:209,0,0,6
BRDA:209,e0,1,0
BRDA:218,0,0,4
BRDA:218,e0,1,0
BRDA:221,0,0,4
BRDA:221,e0,1,0
BRDA:224,0,0,5
BRDA:224,0,1,4
BRDA:226,0,0,5
BRDA:226,e0,1,0
BRDA:229,0,0,3
BRDA:229,0,1,2
BRDA:231,0,0,3
BRDA:231,e0,1,0
BRDA:240,0,0,35
BRDA:240,e0,1,0
BRDA:244,0,0,35
BRDA:244,e0,1,0
BRDA:244,0,2,35
BRDA:244,e0,3,0
BRDA:244,0,4,0
BRDA:244,0,5,35
BRDA:246,0,0,-
BRDA:246,e0,1,-
BRDA:252,0,0,35
BRDA:252,e0,1,0
BRDA:252,0,2,35
BRDA:252,e0,3,0
BRDA:252,0,4,3
BRDA:252,e0,5,0
BRDA:252,0,6,3
BRDA:252,0,7,35
BRDA:254,0,0,3
BRDA:254,e0,1,0
BRDA:254,0,2,3
BRDA:254,0,3,0
BRDA:254,0,4,3
BRDA:254,e0,5,0
BRDA:254,0,6,3
BRDA:254,e0,7,0
BRDA:254,0,8,3
BRDA:254,0,9,0
BRDA:254,0,10,3
BRDA:254,0,11,0
BRDA:254,0,12,3
BRDA:254,0,13,0
BRDA:254,0,14,3
BRDA:254,0,15,0
BRDA:254,0,16,0
BRDA:254,0,17,0
BRDA:254,0,18,0
BRDA:254,0,19,0
BRDA:256,0,0,3
BRDA:256,e0,1,0
BRDA:256,0,2,3
BRDA:256,e0,3,0
BRDA:258,0,0,3
BRDA:258,0,1,0
BRDA:260,0,0,3
BRDA:260,e0,1,0
BRDA:260,0,2,3
BRDA:260,e0,3,0
BRDA:260,0,4,3
BRDA:260,e0,5,0
BRDA:268,0,0,0
BRDA:268,0,1,0
BRDA:271,0,0,0
BRDA:271,e0,1,0
BRDA:276,0,0,35
BRDA:276,e0,1,0
BRDA:280,0,0,35
BRDA:280,e0,1,0
BRDA:282,0,0,28
BRDA:282,0,1,35
BRDA:284,0,0,28
BRDA:284,e0,1,0
BRDA:285,0,0,28
BRDA:285,e0,1,0
BRDA:290,0,0,0
BRDA:290,0,1,0
BRDA:298,0,0,71
BRDA:298,e0,1,0
BRDA:298,0,2,71
BRDA:298,e0,3,0
BRDA:298,0,4,71
BRDA:298,e0,5,0
BRDA:306,0,0,65
BRDA:306,e0,1,0
BRDA:308,0,0,0
BRDA:308,0,1,65
BRDA:314,0,0,65
BRDA:314,e0,1,0
BRDA:314,0,2,65
BRDA:314,e0,3,0
BRDA:314,0,4,65
BRDA:314,e0,5,0
BRDA:314,0,6,65
BRDA:314,e0,7,0
BRDA:315,0,0,65
BRDA:315,e0,1,0
BRDA:315,0,2,65
BRDA:315,e0,3,0
BRDA:315,0,4,65
BRDA:315,e0,5,0
BRDA:315,0,6,65
BRDA:315,e0,7,0
BRDA:316,0,0,65
BRDA:316,e0,1,0
BRDA:316,0,2,65
BRDA:316,e0,3,0
BRDA:316,0,4,65
BRDA:316,e0,5,0
BRDA:317,0,0,65
BRDA:317,e0,1,0
BRDA:320,0,0,65
BRDA:320,e0,1,0
BRDA:320,0,2,17
BRDA:320,0,3,65
BRDA:322,0,0,17
BRDA:322,e0,1,0
BRDA:323,0,0,17
BRDA:323,e0,1,0
BRDA:324,0,0,46
BRDA:324,0,1,0
BRDA:324,0,2,46
BRDA:324,0,3,0
BRDA:324,0,4,0
BRDA:324,0,5,46
BRDA:324,0,6,46
BRDA:324,0,7,17
BRDA:325,0,0,53
BRDA:325,0,1,0
BRDA:325,0,2,53
BRDA:325,0,3,0
BRDA:325,0,4,0
BRDA:325,0,5,53
BRDA:325,0,6,53
BRDA:325,0,7,17
BRDA:326,0,0,17
BRDA:326,e0,1,0
BRDA:326,0,2,17
BRDA:326,e0,3,0
BRDA:326,0,4,17
BRDA:326,e0,5,0
BRDA:326,0,6,17
BRDA:326,e0,7,0
BRDA:326,0,8,17
BRDA:326,e0,9,0
BRDA:326,0,10,17
BRDA:326,e0,11,0
BRDA:326,0,12,17
BRDA:326,e0,13,0
BRDA:329,0,0,65
BRDA:329,e0,1,0
BRDA:332,0,0,0
BRDA:332,0,1,0
BRDA:342,0,0,3
BRDA:342,e0,1,0
BRDA:344,0,0,0
BRDA:344,0,1,3
BRDA:356,0,0,18
BRDA:356,e0,1,0
BRDA:356,0,2,18
BRDA:356,e0,3,0
BRDA:356,0,4,15
BRDA:356,0,5,3
BRDA:358,0,0,0
BRDA:358,0,1,15
BRDA:363,0,0,15
BRDA:363,e0,1,0
BRDA:363,0,2,3
BRDA:363,0,3,12
BRDA:369,0,0,3
BRDA:369,0,1,9
BRDA:373,0,0,3
BRDA:373,0,1,0
BRDA:374,0,0,3
BRDA:374,e0,1,0
BRDA:376,0,0,3
BRDA:376,0,1,0
BRDA:377,0,0,3
BRDA:377,e0,1,0
BRDA:378,0,0,3
BRDA:378,e0,1,0
BRDA:380,0,0,-
BRDA:380,e0,1,-
BRDA:383,0,0,-
BRDA:383,e0,1,-
BRDA:385,0,0,3
BRDA:385,e0,1,0
BRDA:391,0,0,9
BRDA:391,0,1,0
BRDA:393,0,0,9
BRDA:393,e0,1,0
BRDA:394,0,0,9
BRDA:394,e0,1,0
BRDA:396,0,0,9
BRDA:396,e0,1,0
BRDA:396,0,2,3
BRDA:396,0,3,6
BRDA:398,0,0,3
BRDA:398,e0,1,0
BRDA:400,0,0,6
BRDA:400,e0,1,0
BRDA:400,0,2,3
BRDA:400,0,3,3
BRDA:402,0,0,3
BRDA:402,e0,1,0
BRDA:408,0,0,3
BRDA:408,e0,1,0
BRDA:410,0,0,3
BRDA:410,0,1,0
BRDA:410,0,2,0
BRDA:410,0,3,3
BRDA:410,0,4,0
BRDA:410,0,5,3
BRDA:416,0,0,3
BRDA:416,e0,1,0
BRDA:417,0,0,3
BRDA:417,e0,1,0
BRDA:420,0,0,3
BRDA:420,0,1,3
BRDA:422,0,0,0
BRDA:422,0,1,3
BRDA:423,0,0,3
BRDA:423,e0,1,0
BRDA:424,0,0,3
BRDA:424,e0,1,0
BRDA:424,0,2,2
BRDA:424,0,3,1
BRDA:426,0,0,1
BRDA:426,0,1,1
BRDA:426,0,2,1
BRDA:426,e0,3,0
BRDA:427,0,0,1
BRDA:427,0,1,1
BRDA:427,0,2,1
BRDA:427,e0,3,0
BRDA:428,0,0,2
BRDA:428,e0,1,0
BRDA:434,0,0,0
BRDA:434,0,1,0
BRDA:444,0,0,69
BRDA:444,e0,1,0
BRDA:444,0,2,69
BRDA:444,e0,3,0
BRDA:444,0,4,30
BRDA:444,0,5,39
BRDA:446,0,0,30
BRDA:446,e0,1,0
BRDA:446,0,2,30
BRDA:446,e0,3,0
BRDA:449,0,0,0
BRDA:449,0,1,0
BRF:378
BRH:199
DA:17,34
DA:18,34
DA:20,34
DA:21,34
DA:22,34
DA:24,34
DA:26,34
DA:27,34
DA:29,32
DA:31,32
DA:35,32
DA:37,32
DA:39,1
DA:43,31
DA:46,31
DA:48,31
DA:50,0
DA:53,31
DA:54,32
DA:55,0
DA:57,0
DA:58,0
DA:59,32
DA:61,21
DA:63,21
DA:65,21
DA:67,21
DA:69,14
DA:72,7
DA:73,21
DA:75,5
DA:77,5
DA:79,5
DA:80,5
DA:82,8
DA:84,3
DA:87,10
DA:88,5
DA:90,7
DA:92,7
DA:94,7
DA:97,7
DA:99,1
DA:103,6
DA:106,6
DA:108,6
DA:110,0
DA:113,6
DA:114,7
DA:116,5
DA:118,5
DA:120,5
DA:122,5
DA:124,2
DA:127,3
DA:130,3
DA:133,3
DA:137,3
DA:139,3
DA:142,3
DA:144,0
DA:146,0
DA:147,0
DA:148,5
DA:150,2
DA:152,2
DA:153,4
DA:154,2
DA:156,2
DA:158,2
DA:160,4
DA:162,2
DA:164,0
DA:168,2
DA:171,2
DA:173,2
DA:178,5
DA:180,3
DA:182,3
DA:184,3
DA:186,3
DA:188,0
DA:190,0
DA:192,2
DA:193,2
DA:195,12
DA:197,12
DA:198,24
DA:199,12
DA:201,9
DA:203,9
DA:205,10
DA:207,7
DA:209,6
DA:213,3
DA:214,9
DA:216,4
DA:218,4
DA:220,4
DA:221,4
DA:222,4
DA:224,9
DA:226,5
DA:227,5
DA:229,5
DA:231,3
DA:233,5
DA:235,8
DA:236,4
DA:238,35
DA:240,35
DA:244,35
DA:246,0
DA:247,0
DA:250,35
DA:252,38
DA:254,3
DA:256,3
DA:258,3
DA:260,3
DA:261,3
DA:263,3
DA:264,35
DA:266,35
DA:268,0
DA:270,0
DA:271,0
DA:272,35
DA:274,35
DA:276,35
DA:280,35
DA:282,63
DA:284,28
DA:285,28
DA:286,28
DA:288,35
DA:290,0
DA:292,0
DA:293,0
DA:294,35
DA:296,71
DA:298,71
DA:301,65
DA:306,65
DA:308,65
DA:310,0
DA:314,65
DA:315,65
DA:316,65
DA:317,65
DA:319,65
DA:320,82
DA:322,17
DA:323,17
DA:324,63
DA:325,70
DA:326,17
DA:327,82
DA:329,65
DA:330,65
DA:331,65
DA:332,0
DA:334,0
DA:335,0
DA:338,3
DA:342,3
DA:344,3
DA:346,0
DA:349,3
DA:350,3
DA:352,3
DA:354,3
DA:356,18
DA:358,15
DA:360,0
DA:363,15
DA:365,3
DA:366,3
DA:369,12
DA:371,3
DA:372,3
DA:373,3
DA:374,3
DA:375,3
DA:376,3
DA:377,3
DA:378,3
DA:380,0
DA:383,0
DA:385,3
DA:386,3
DA:389,9
DA:391,9
DA:393,9
DA:394,9
DA:396,9
DA:398,3
DA:400,6
DA:402,3
DA:404,9
DA:408,3
DA:410,3
DA:412,0
DA:416,3
DA:417,3
DA:420,6
DA:422,3
DA:423,3
DA:424,3
DA:426,2
DA:427,2
DA:428,2
DA:430,3
DA:432,3
DA:433,3
DA:434,0
DA:436,0
DA:437,0
DA:440,69
DA:444,69
DA:446,30
DA:449,0
DA:452,0
DA:453,69
LF:224
LH:191
end_of_record
TN:
SF:/usr/include/c++/13/bits/alloc_traits.h
FNF:0
FNH:0
BRDA:482,0,0,95
BRDA:482,e0,1,0
BRDA:948,0,0,0
BRDA:948,e0,1,0
BRDA:948,0,2,0
BRDA:948,e0,3,0
BRF:6
BRH:1
DA:482,494
DA:517,0
DA:538,0
DA:542,0
DA:562,0
DA:574,0
DA:588,0
DA:722,0
DA:948,445
DA:949,0
LF:10
LH:2
end_of_record
TN:
SF:/usr/include/c++/13/bits/allocator.h
FNF:0
FNH:0
DA:163,0
DA:168,0
DA:178,190
DA:184,0
DA:223,0
LF:5
LH:1
end_of_record
TN:
SF:/usr/include/c++/13/bits/basic_string.h
FN:3528,3541,_ZSt12__str_concatINSt7__cxx1112basic_stringIcSt11char_traitsIcESaIcEEEET_PKNS6_10value_typeENS6_9size_typeES9_SA_RKNS6_14allocator_typeE
FN:3607,3615,_ZStplIcSt11char_traitsIcESaIcEENSt7__cxx1112basic_stringIT_T0_T1_EERKS8_PKS5_
FN:3637,3639,_ZStplIcSt11char_traitsIcESaIcEENSt7__cxx1112basic_stringIT_T0_T1_EEOS8_RKS8_
FN:3674,3676,_ZStplIcSt11char_traitsIcESaIcEENSt7__cxx1112basic_stringIT_T0_T1_EEPKS5_OS8_
FN:3688,3690,_ZStplIcSt11char_traitsIcESaIcEENSt7__cxx1112basic_stringIT_T0_T1_EEOS8_PKS5_
FN:3710,3716,_ZSteqIcSt11char_traitsIcESaIcEEbRKNSt7__cxx1112basic_stringIT_T0_T1_EESA_
FN:3727,3732,_ZSteqIcSt11char_traitsIcESaIcEEbRKNSt7__cxx1112basic_stringIT_T0_T1_EEPKS5_
FN:3829,3832,_ZStltIcSt11char_traitsIcESaIcEEbRKNSt7__cxx1112basic_stringIT_T0_T1_EESA_
FN:4135,4137,_ZNSt7__cxx115stollERKNS_12basic_stringIcSt11char_traitsIcESaIcEEEPmi
FN:4204,4212,_ZNSt7__cxx119to_stringEm
FN:4407,4408,_ZNKSt15__str_hash_baseIcSaIcENSt7__cxx1112basic_stringIcSt11char_traitsIcES0_EEEclERKS5_
FN:664,666,_ZNSt7__cxx1112basic_stringIcSt11char_traitsIcESaIcEEC2IS3_EEmcRKS3_
FN:795,796,_ZNSt7__cxx1112basic_stringIcSt11char_traitsIcESaIcEEC2ISt17basic_string_viewIcS2_EvEERKT_RKS3_
FNDA:0,_ZSt12__str_concatINSt7__cxx1112basic_stringIcSt11char_traitsIcESaIcEEEET_PKNS6_10value_typeENS6_9size_typeES9_SA_RKNS6_14allocator_typeE
FNDA:0,_ZStplIcSt11char_traitsIcESaIcEENSt7__cxx1112basic_stringIT_T0_T1_EERKS8_PKS5_
FNDA:0,_ZStplIcSt11char_traitsIcESaIcEENSt7__cxx1112basic_stringIT_T0_T1_EEOS8_RKS8_
FNDA:0,_ZStplIcSt11char_traitsIcESaIcEENSt7__cxx1112basic_stringIT_T0_T1_EEPKS5_OS8_
FNDA:0,_ZStplIcSt11char_traitsIcESaIcEENSt7__cxx1112basic_stringIT_T0_T1_EEOS8_PKS5_
FNDA:0,_ZSteqIcSt11char_traitsIcESaIcEEbRKNSt7__cxx1112basic_stringIT_T0_T1_EESA_
FNDA:0,_ZSteqIcSt11char_traitsIcESaIcEEbRKNSt7__cxx1112basic_stringIT_T0_T1_EEPKS5_
FNDA:0,_ZStltIcSt11char_traitsIcESaIcEEbRKNSt7__cxx1112basic_stringIT_T0_T1_EESA_
FNDA:306,_ZNSt7__cxx115stollERKNS_12basic_stringIcSt11char_traitsIcESaIcEEEPmi
FNDA:0,_ZNSt7__cxx119to_stringEm
FNDA:0,_ZNKSt15__str_hash_baseIcSaIcENSt7__cxx1112basic_stringIcSt11char_traitsIcES0_EEEclERKS5_
FNDA:0,_ZNSt7__cxx1112basic_stringIcSt11char_traitsIcESaIcEEC2IS3_EEmcRKS3_
FNDA:0,_ZNSt7__cxx1112basic_stringIcSt11char_traitsIcESaIcEEC2ISt17basic_string_viewIcS2_EvEERKT_RKS3_
FNF:13
FNH:1
BRDA:666,0,0,-
BRDA:666,e0,1,-
BRDA:796,0,0,-
BRDA:796,e0,1,-
BRDA:3537,0,0,-
BRDA:3537,e0,1,-
BRDA:3538,0,0,-
BRDA:3538,e0,1,-
BRDA:3539,0,0,-
BRDA:3539,e0,1,-
BRDA:3614,0,0,-
BRDA:3614,e0,1,-
BRDA:3614,0,2,-
BRDA:3614,e0,3,-
BRDA:3715,0,0,-
BRDA:3715,0,1,-
BRDA:3715,0,2,-
BRDA:3715,0,3,-
BRDA:3731,0,0,-
BRDA:3731,0,1,-
BRDA:3731,0,2,-
BRDA:3731,0,3,-
BRDA:4209,0,0,-
BRDA:4209,e0,1,-
BRDA:4210,0,0,-
BRDA:4210,e0,1,-
BRF:26
BRH:0
DA:355,0
DA:664,0
DA:665,0
DA:666,0
DA:795,0
DA:796,0
DA:3528,0
DA:3536,0
DA:3537,0
DA:3538,0
DA:3539,0
DA:3540,0
DA:3541,0
DA:3607,0
DA:3614,0
DA:3637,0
DA:3639,0
DA:3674,0
DA:3676,0
DA:3688,0
DA:3690,0
DA:3710,0
DA:3714,0
DA:3715,0
DA:3727,0
DA:3730,0
DA:3731,0
DA:3829,0
DA:3832,0
DA:4135,306
DA:4136,306
DA:4137,306
DA:4204,0
DA:4209,0
DA:4210,0
DA:4211,0
DA:4212,0
DA:4407,0
DA:4408,0
LF:39
LH:3
end_of_record
TN:
SF:/usr/include/c++/13/bits/basic_string.tcc
FN:221,252,_ZNSt7__cxx1112basic_stringIcSt11char_traitsIcESaIcEE12_M_constructIPKcEEvT_S8_St20forward_iterator_tag
FN:221,252,_ZNSt7__cxx1112basic_stringIcSt11char_traitsIcESaIcEE12_M_constructIPcEEvT_S7_St20forward_iterator_tag
FN:239,239,_ZZNSt7__cxx1112basic_stringIcSt11char_traitsIcESaIcEE12_M_constructIPKcEEvT_S8_St20forward_iterator_tagEN6_GuardC2EPS4_
FN:239,239,_ZZNSt7__cxx1112basic_stringIcSt11char_traitsIcESaIcEE12_M_constructIPcEEvT_S7_St20forward_iterator_tagEN6_GuardC2EPS4_
FN:242,242,_ZZNSt7__cxx1112basic_stringIcSt11char_traitsIcESaIcEE12_M_constructIPKcEEvT_S8_St20forward_iterator_tagEN6_GuardD2Ev
FN:242,242,_ZZNSt7__cxx1112basic_stringIcSt11char_traitsIcESaIcEE12_M_constructIPcEEvT_S7_St20forward_iterator_tagEN6_GuardD2Ev
FNDA:0,_ZNSt7__cxx1112basic_stringIcSt11char_traitsIcESaIcEE12_M_constructIPKcEEvT_S8_St20forward_iterator_tag
FNDA:0,_ZNSt7__cxx1112basic_stringIcSt11char_traitsIcESaIcEE12_M_constructIPcEEvT_S7_St20forward_iterator_tag
FNDA:0,_ZZNSt7__cxx1112basic_stringIcSt11char_traitsIcESaIcEE12_M_constructIPKcEEvT_S8_St20forward_iterator_tagEN6_GuardC2EPS4_
FNDA:0,_ZZNSt7__cxx1112basic_stringIcSt11char_traitsIcESaIcEE12_M_constructIPcEEvT_S7_St20forward_iterator_tagEN6_GuardC2EPS4_
FNDA:0,_ZZNSt7__cxx1112basic_stringIcSt11char_traitsIcESaIcEE12_M_constructIPKcEEvT_S8_St20forward_iterator_tagEN6_GuardD2Ev
FNDA:0,_ZZNSt7__cxx1112basic_stringIcSt11char_traitsIcESaIcEE12_M_constructIPcEEvT_S7_St20forward_iterator_tagEN6_GuardD2Ev
FNF:6
FNH:0
BRDA:227,0,0,-
BRDA:227,0,1,-
BRDA:229,0,0,-
BRDA:229,e0,1,-
BRDA:242,0,0,-
BRDA:242,0,1,-
BRF:6
BRH:0
DA:221,0
DA:225,0
DA:227,0
DA:229,0
DA:230,0
DA:239,0
DA:242,0
DA:245,0
DA:247,0
DA:249,0
DA:251,0
DA:252,0
LF:12
LH:0
end_of_record
TN:
SF:/usr/include/c++/13/bits/char_traits.h
FN:136,137,_ZN9__gnu_cxx11char_traitsIcE2eqERKcS3_
FN:199,206,_ZN9__gnu_cxx11char_traitsIcE6lengthEPKc
FN:366,371,_ZNSt11char_traitsIcE2ltERKcS2_
FN:374,390,_ZNSt11char_traitsIcE7compareEPKcS2_m
FN:393,400,_ZNSt11char_traitsIcE6lengthEPKc
FN:427,436,_ZNSt11char_traitsIcE4copyEPcPKcm
FNDA:0,_ZN9__gnu_cxx11char_traitsIcE2eqERKcS3_
FNDA:0,_ZN9__gnu_cxx11char_traitsIcE6lengthEPKc
FNDA:0,_ZNSt11char_traitsIcE2ltERKcS2_
FNDA:0,_ZNSt11char_traitsIcE7compareEPKcS2_m
FNDA:0,_ZNSt11char_traitsIcE6lengthEPKc
FNDA:0,_ZNSt11char_traitsIcE4copyEPcPKcm
FNF:6
FNH:0
BRDA:203,0,0,-
BRDA:203,0,1,-
BRDA:376,0,0,-
BRDA:376,0,1,-
BRDA:379,0,0,-
BRDA:379,0,1,-
BRDA:381,0,0,-
BRDA:381,0,1,-
BRDA:382,0,0,-
BRDA:382,0,1,-
BRDA:384,0,0,-
BRDA:384,0,1,-
BRDA:396,0,0,-
BRDA:396,0,1,-
BRDA:429,0,0,-
BRDA:429,0,1,-
BRF:16
BRH:0
DA:136,0
DA:137,0
DA:199,0
DA:202,0
DA:203,0
DA:204,0
DA:205,0
DA:366,0
DA:369,0
DA:370,0
DA:374,0
DA:376,0
DA:377,0
DA:379,0
DA:381,0
DA:382,0
DA:383,0
DA:384,0
DA:385,0
DA:386,0
DA:389,0
DA:393,0
DA:396,0
DA:397,0
DA:399,0
DA:427,0
DA:429,0
DA:430,0
DA:435,0
LF:29
LH:0
end_of_record
TN:
SF:/usr/include/c++/13/bits/charconv.h
FN:55,74,_ZNSt8__detail14__to_chars_lenImEEjT_i
FN:81,110,_ZNSt8__detail18__to_chars_10_implImEEvPcjT_
FNDA:0,_ZNSt8__detail14__to_chars_lenImEEjT_i
FNDA:0,_ZNSt8__detail18__to_chars_10_implImEEvPcjT_
FNF:2
FNH:0
BRDA:67,0,0,-
BRDA:67,0,1,-
BRDA:68,0,0,-
BRDA:68,0,1,-
BRDA:69,0,0,-
BRDA:69,0,1,-
BRDA:70,0,0,-
BRDA:70,0,1,-
BRDA:94,0,0,-
BRDA:94,0,1,-
BRDA:102,0,0,-
BRDA:102,0,1,-
BRF:12
BRH:0
DA:55,0
DA:61,0
DA:62,0
DA:63,0
DA:64,0
DA:67,0
DA:68,0
DA:69,0
DA:70,0
DA:71,0
DA:72,0
DA:81,0
DA:87,0
DA:93,0
DA:94,0
DA:96,0
DA:97,0
DA:98,0
DA:99,0
DA:100,0
DA:102,0
DA:104,0
DA:105,0
DA:106,0
DA:109,0
DA:110,0
LF:26
LH:0
end_of_record
TN:
SF:/usr/include/c++/13/bits/chrono.h
FN:1019,1023,_ZNSt6chrono15time_point_castINS_8durationIlSt5ratioILl1ELl1000000000EEEENS_3_V212system_clockENS1_IlS2_ILl1ELl1EEEEEENSt9enable_ifIXsrNS_13__is_durationIT_EE5valueENS_10time_pointIT0_SB_EEE4typeERKNSD_ISE_T1_EE
FN:1129,1136,_ZNSt6chronomiINS_3_V212system_clockENS_8durationIlSt5ratioILl1ELl1000000000EEEElS4_ILl60ELl1EEEENS_10time_pointIT_NSt11common_typeIJT0_NS3_IT1_T2_EEEE4typeEEERKNS8_IS9_SB_EERKSE_
FN:1174,1176,_ZNSt6chronoltINS_3_V212system_clockENS_8durationIlSt5ratioILl1ELl1000000000EEEES6_EEbRKNS_10time_pointIT_T0_EERKNS7_IS8_T1_EE
FN:1192,1194,_ZNSt6chronogeINS_3_V212system_clockENS_8durationIlSt5ratioILl1ELl1000000000EEEES6_EEbRKNS_10time_pointIT_T0_EERKNS7_IS8_T1_EE
FN:1244,1248,_ZNSt6chrono3_V212system_clock9to_time_tERKNS_10time_pointIS1_NS_8durationIlSt5ratioILl1ELl1000000000EEEEEE
FN:1252,1257,_ZNSt6chrono3_V212system_clock11from_time_tEl
FN:208,213,_ZNSt6chrono20__duration_cast_implINS_8durationIlSt5ratioILl1ELl1EEEES2_ILl1ELl1000000000EElLb1ELb0EE6__castIlS5_EES4_RKNS1_IT_T0_EE
FN:221,226,_ZNSt6chrono20__duration_cast_implINS_8durationIlSt5ratioILl1ELl1000000000EEEES2_ILl1000000000ELl1EElLb0ELb1EE6__castIlS2_ILl1ELl1EEEES4_RKNS1_IT_T0_EE
FN:221,226,_ZNSt6chrono20__duration_cast_implINS_8durationIlSt5ratioILl1ELl1000000000EEEES2_ILl60000000000ELl1EElLb0ELb1EE6__castIlS2_ILl60ELl1EEEES4_RKNS1_IT_T0_EE
FN:273,291,_ZNSt6chrono13duration_castINS_8durationIlSt5ratioILl1ELl1000000000EEEElS2_ILl1ELl1EEEENSt9enable_ifIXsrNS_13__is_durationIT_EE5valueES8_E4typeERKNS1_IT0_T1_EE
FN:273,291,_ZNSt6chrono13duration_castINS_8durationIlSt5ratioILl1ELl1000000000EEEElS2_ILl60ELl1EEEENSt9enable_ifIXsrNS_13__is_durationIT_EE5valueES8_E4typeERKNS1_IT0_T1_EE
FN:273,291,_ZNSt6chrono13duration_castINS_8durationIlSt5ratioILl1ELl1EEEElS2_ILl1ELl1000000000EEEENSt9enable_ifIXsrNS_13__is_durationIT_EE5valueES8_E4typeERKNS1_IT0_T1_EE
FN:498,499,_ZNSt6chrono15duration_valuesIlE4zeroEv
FN:573,574,_ZNSt6chrono8durationIlSt5ratioILl1ELl1000000000EEEC1IlvEERKT_
FN:573,574,_ZNSt6chrono8durationIlSt5ratioILl1ELl1EEEC1IlvEERKT_
FN:573,574,_ZNSt6chrono8durationIlSt5ratioILl60ELl1EEEC1IivEERKT_
FN:581,582,_ZNSt6chrono8durationIlSt5ratioILl1ELl1000000000EEEC2IlS1_ILl60ELl1EEvEERKNS0_IT_T0_EE
FN:589,590,_ZNKSt6chrono8durationIlSt5ratioILl1ELl1000000000EEE5countEv
FN:589,590,_ZNKSt6chrono8durationIlSt5ratioILl1ELl1EEE5countEv
FN:589,590,_ZNKSt6chrono8durationIlSt5ratioILl60ELl1EEE5countEv
FN:673,674,_ZNSt6chrono8durationIlSt5ratioILl1ELl1000000000EEE4zeroEv
FN:710,717,_ZNSt6chronomiIlSt5ratioILl1ELl1000000000EElS1_ILl60ELl1EEEENSt11common_typeIJNS_8durationIT_T0_EENS5_IT1_T2_EEEE4typeERKS8_RKSB_
FN:822,829,_ZNSt6chronoltIlSt5ratioILl1ELl1000000000EElS2_EEbRKNS_8durationIT_T0_EERKNS3_IT1_T2_EE
FN:933,934,_ZNSt6chrono10time_pointINS_3_V212system_clockENS_8durationIlSt5ratioILl1ELl1000000000EEEEEC2Ev
FN:936,938,_ZNSt6chrono10time_pointINS_3_V212system_clockENS_8durationIlSt5ratioILl1ELl1000000000EEEEEC2ERKS6_
FN:936,938,_ZNSt6chrono10time_pointINS_3_V212system_clockENS_8durationIlSt5ratioILl1ELl1EEEEEC2ERKS6_
FN:949,950,_ZNKSt6chrono10time_pointINS_3_V212system_clockENS_8durationIlSt5ratioILl1ELl1000000000EEEEE16time_since_epochEv
FN:949,950,_ZNKSt6chrono10time_pointINS_3_V212system_clockENS_8durationIlSt5ratioILl1ELl1EEEEE16time_since_epochEv
FNDA:306,_ZNSt6chrono15time_point_castINS_8durationIlSt5ratioILl1ELl1000000000EEEENS_3_V212system_clockENS1_IlS2_ILl1ELl1EEEEEENSt9enable_ifIXsrNS_13__is_durationIT_EE5valueENS_10time_pointIT0_SB_EEE4typeERKNSD_ISE_T1_EE
FNDA:0,_ZNSt6chronomiINS_3_V212system_clockENS_8durationIlSt5ratioILl1ELl1000000000EEEElS4_ILl60ELl1EEEENS_10time_pointIT_NSt11common_typeIJT0_NS3_IT1_T2_EEEE4typeEEERKNS8_IS9_SB_EERKSE_
FNDA:0,_ZNSt6chronoltINS_3_V212system_clockENS_8durationIlSt5ratioILl1ELl1000000000EEEES6_EEbRKNS_10time_pointIT_T0_EERKNS7_IS8_T1_EE
FNDA:0,_ZNSt6chronogeINS_3_V212system_clockENS_8durationIlSt5ratioILl1ELl1000000000EEEES6_EEbRKNS_10time_pointIT_T0_EERKNS7_IS8_T1_EE
FNDA:0,_ZNSt6chrono3_V212system_clock9to_time_tERKNS_10time_pointIS1_NS_8durationIlSt5ratioILl1ELl1000000000EEEEEE
FNDA:306,_ZNSt6chrono3_V212system_clock11from_time_tEl
FNDA:0,_ZNSt6chrono20__duration_cast_implINS_8durationIlSt5ratioILl1ELl1EEEES2_ILl1ELl1000000000EElLb1ELb0EE6__castIlS5_EES4_RKNS1_IT_T0_EE
FNDA:0,_ZNSt6chrono20__duration_cast_implINS_8durationIlSt5ratioILl1ELl1000000000EEEES2_ILl1000000000ELl1EElLb0ELb1EE6__castIlS2_ILl1ELl1EEEES4_RKNS1_IT_T0_EE
FNDA:0,_ZNSt6chrono20__duration_cast_implINS_8durationIlSt5ratioILl1ELl1000000000EEEES2_ILl60000000000ELl1EElLb0ELb1EE6__castIlS2_ILl60ELl1EEEES4_RKNS1_IT_T0_EE
FNDA:0,_ZNSt6chrono13duration_castINS_8durationIlSt5ratioILl1ELl1000000000EEEElS2_ILl1ELl1EEEENSt9enable_ifIXsrNS_13__is_durationIT_EE5valueES8_E4typeERKNS1_IT0_T1_EE
FNDA:0,_ZNSt6chrono13duration_castINS_8durationIlSt5ratioILl1ELl1000000000EEEElS2_ILl60ELl1EEEENSt9enable_ifIXsrNS_13__is_durationIT_EE5valueES8_E4typeERKNS1_IT0_T1_EE
FNDA:0,_ZNSt6chrono13duration_castINS_8durationIlSt5ratioILl1ELl1EEEElS2_ILl1ELl1000000000EEEENSt9enable_ifIXsrNS_13__is_durationIT_EE5valueES8_E4typeERKNS1_IT0_T1_EE
FNDA:0,_ZNSt6chrono15duration_valuesIlE4zeroEv
FNDA:0,_ZNSt6chrono8durationIlSt5ratioILl1ELl1000000000EEEC1IlvEERKT_
FNDA:0,_ZNSt6chrono8durationIlSt5ratioILl1ELl1EEEC1IlvEERKT_
FNDA:0,_ZNSt6chrono8durationIlSt5ratioILl60ELl1EEEC1IivEERKT_
FNDA:0,_ZNSt6chrono8durationIlSt5ratioILl1ELl1000000000EEEC2IlS1_ILl60ELl1EEvEERKNS0_IT_T0_EE
FNDA:0,_ZNKSt6chrono8durationIlSt5ratioILl1ELl1000000000EEE5countEv
FNDA:0,_ZNKSt6chrono8durationIlSt5ratioILl1ELl1EEE5countEv
FNDA:0,_ZNKSt6chrono8durationIlSt5ratioILl60ELl1EEE5countEv
FNDA:0,_ZNSt6chrono8durationIlSt5ratioILl1ELl1000000000EEE4zeroEv
FNDA:0,_ZNSt6chronomiIlSt5ratioILl1ELl1000000000EElS1_ILl60ELl1EEEENSt11common_typeIJNS_8durationIT_T0_EENS5_IT1_T2_EEEE4typeERKS8_RKSB_
FNDA:0,_ZNSt6chronoltIlSt5ratioILl1ELl1000000000EElS2_EEbRKNS_8durationIT_T0_EERKNS3_IT1_T2_EE
FNDA:0,_ZNSt6chrono10time_pointINS_3_V212system_clockENS_8durationIlSt5ratioILl1ELl1000000000EEEEEC2Ev
FNDA:0,_ZNSt6chrono10time_pointINS_3_V212system_clockENS_8durationIlSt5ratioILl1ELl1000000000EEEEEC2ERKS6_
FNDA:306,_ZNSt6chrono10time_pointINS_3_V212system_clockENS_8durationIlSt5ratioILl1ELl1EEEEEC2ERKS6_
FNDA:0,_ZNKSt6chrono10time_pointINS_3_V212system_clockENS_8durationIlSt5ratioILl1ELl1000000000EEEEE16time_since_epochEv
FNDA:306,_ZNKSt6chrono10time_pointINS_3_V212system_clockENS_8durationIlSt5ratioILl1ELl1EEEEE16time_since_epochEv
FNF:28
FNH:4
BRDA:582,0,0,-
BRDA:582,e0,1,-
BRDA:716,0,0,-
BRDA:716,e0,1,-
BRDA:1022,0,0,306
BRDA:1022,e0,1,0
BRDA:1135,0,0,-
BRDA:1135,e0,1,-
BRDA:1176,0,0,-
BRDA:1176,e0,1,-
BRF:10
BRH:1
DA:208,0
DA:211,0
DA:212,0
DA:221,0
DA:224,0
DA:225,0
DA:273,0
DA:287,0
DA:498,0
DA:499,0
DA:573,0
DA:574,0
DA:581,0
DA:582,0
DA:589,0
DA:590,0
DA:673,0
DA:674,0
DA:710,0
DA:716,0
DA:822,0
DA:828,0
DA:933,0
DA:934,0
DA:936,306
DA:937,306
DA:938,306
DA:949,306
DA:950,306
DA:1019,306
DA:1022,306
DA:1129,0
DA:1135,0
DA:1174,0
DA:1176,0
DA:1192,0
DA:1194,0
DA:1244,0
DA:1247,0
DA:1252,306
DA:1256,306
LF:41
LH:9
end_of_record
TN:
SF:/usr/include/c++/13/bits/cpp_type_traits.h
FN:607,608,_ZSt12__miter_baseIN9__gnu_cxx17__normal_iteratorIPKN12media_player6models14MediaFileModelESt6vectorIS4_SaIS4_EEEEET_SB_
FN:607,608,_ZSt12__miter_baseIPN12media_player6models14MediaFileModelEET_S4_
FN:607,608,_ZSt12__miter_baseIPPN12media_player12repositories20PlaybackHistoryEntryEET_S5_
FN:607,608,_ZSt12__miter_baseISt15_Deque_iteratorIN12media_player12repositories20PlaybackHistoryEntryERS3_PS3_EET_S7_
FNDA:0,_ZSt12__miter_baseIN9__gnu_cxx17__normal_iteratorIPKN12media_player6models14MediaFileModelESt6vectorIS4_SaIS4_EEEEET_SB_
FNDA:0,_ZSt12__miter_baseIPN12media_player6models14MediaFileModelEET_S4_
FNDA:34,_ZSt12__miter_baseIPPN12media_player12repositories20PlaybackHistoryEntryEET_S5_
FNDA:0,_ZSt12__miter_baseISt15_Deque_iteratorIN12media_player12repositories20PlaybackHistoryEntryERS3_PS3_EET_S7_
FNF:4
FNH:1
DA:607,34
DA:608,34
LF:2
LH:2
end_of_record
TN:
SF:/usr/include/c++/13/bits/deque.tcc
FN:1003,1027,_ZSt15__copy_move_ditILb1EN12media_player12repositories20PlaybackHistoryEntryERS2_PS2_St15_Deque_iteratorIS2_S3_S4_EET3_S5_IT0_T1_T2_ESB_S7_
FN:1040,1043,_ZSt14__copy_move_a1ILb1EN12media_player12repositories20PlaybackHistoryEntryERS2_PS2_S2_ESt15_Deque_iteratorIT3_RS6_PS6_ES5_IT0_T1_T2_ESD_S9_
FN:1049,1069,_ZSt14__copy_move_a1ILb1EPN12media_player12repositories20PlaybackHistoryEntryES2_EN9__gnu_cxx11__enable_ifIXsrSt23__is_random_access_iterIT0_NSt15iterator_traitsIS7_E17iterator_categoryEE7__valueESt15_Deque_iteratorIT1_RSD_PSD_EE6__typeES7_S7_SG_
FN:1125,1147,_ZSt24__copy_move_backward_ditILb1EN12media_player12repositories20PlaybackHistoryEntryERS2_PS2_St15_Deque_iteratorIS2_S3_S4_EET3_S5_IT0_T1_T2_ESB_S7_
FN:1161,1165,_ZSt23__copy_move_backward_a1ILb1EN12media_player12repositories20PlaybackHistoryEntryERS2_PS2_S2_ESt15_Deque_iteratorIT3_RS6_PS6_ES5_IT0_T1_T2_ESD_S9_
FN:1171,1197,_ZSt23__copy_move_backward_a1ILb1EPN12media_player12repositories20PlaybackHistoryEntryES2_EN9__gnu_cxx11__enable_ifIXsrSt23__is_random_access_iterIT0_NSt15iterator_traitsIS7_E17iterator_categoryEE7__valueESt15_Deque_iteratorIT1_RSD_PSD_EE6__typeES7_S7_SG_
FN:140,155,_ZNSt5dequeIN12media_player12repositories20PlaybackHistoryEntryESaIS2_EE13emplace_frontIJS2_EEERS2_DpOT_
FN:235,254,_ZNSt5dequeIN12media_player12repositories20PlaybackHistoryEntryESaIS2_EE8_M_eraseESt15_Deque_iteratorIS2_RS2_PS2_E
FN:258,286,_ZNSt5dequeIN12media_player12repositories20PlaybackHistoryEntryESaIS2_EE8_M_eraseESt15_Deque_iteratorIS2_RS2_PS2_ES8_
FN:484,516,_ZNSt5dequeIN12media_player12repositories20PlaybackHistoryEntryESaIS2_EE16_M_push_back_auxIJRKS2_EEEvDpOT_
FN:523,556,_ZNSt5dequeIN12media_player12repositories20PlaybackHistoryEntryESaIS2_EE17_M_push_front_auxIJS2_EEEvDpOT_
FN:560,568,_ZNSt5dequeIN12media_player12repositories20PlaybackHistoryEntryESaIS2_EE15_M_pop_back_auxEv
FN:576,584,_ZNSt5dequeIN12media_player12repositories20PlaybackHistoryEntryESaIS2_EE16_M_pop_front_auxEv
FN:859,877,_ZNSt5dequeIN12media_player12repositories20PlaybackHistoryEntryESaIS2_EE19_M_destroy_data_auxESt15_Deque_iteratorIS2_RS2_PS2_ES8_
FN:931,973,_ZNSt5dequeIN12media_player12repositories20PlaybackHistoryEntryESaIS2_EE17_M_reallocate_mapEmb
FNDA:0,_ZSt15__copy_move_ditILb1EN12media_player12repositories20PlaybackHistoryEntryERS2_PS2_St15_Deque_iteratorIS2_S3_S4_EET3_S5_IT0_T1_T2_ESB_S7_
FNDA:0,_ZSt14__copy_move_a1ILb1EN12media_player12repositories20PlaybackHistoryEntryERS2_PS2_S2_ESt15_Deque_iteratorIT3_RS6_PS6_ES5_IT0_T1_T2_ESD_S9_
FNDA:0,_ZSt14__copy_move_a1ILb1EPN12media_player12repositories20PlaybackHistoryEntryES2_EN9__gnu_cxx11__enable_ifIXsrSt23__is_random_access_iterIT0_NSt15iterator_traitsIS7_E17iterator_categoryEE7__valueESt15_Deque_iteratorIT1_RSD_PSD_EE6__typeES7_S7_SG_
FNDA:0,_ZSt24__copy_move_backward_ditILb1EN12media_player12repositories20PlaybackHistoryEntryERS2_PS2_St15_Deque_iteratorIS2_S3_S4_EET3_S5_IT0_T1_T2_ESB_S7_
FNDA:0,_ZSt23__copy_move_backward_a1ILb1EN12media_player12repositories20PlaybackHistoryEntryERS2_PS2_S2_ESt15_Deque_iteratorIT3_RS6_PS6_ES5_IT0_T1_T2_ESD_S9_
FNDA:0,_ZSt23__copy_move_backward_a1ILb1EPN12media_player12repositories20PlaybackHistoryEntryES2_EN9__gnu_cxx11__enable_ifIXsrSt23__is_random_access_iterIT0_NSt15iterator_traitsIS7_E17iterator_categoryEE7__valueESt15_Deque_iteratorIT1_RSD_PSD_EE6__typeES7_S7_SG_
FNDA:48,_ZNSt5dequeIN12media_player12repositories20PlaybackHistoryEntryESaIS2_EE13emplace_frontIJS2_EEERS2_DpOT_
FNDA:1,_ZNSt5dequeIN12media_player12repositories20PlaybackHistoryEntryESaIS2_EE8_M_eraseESt15_Deque_iteratorIS2_RS2_PS2_E
FNDA:1,_ZNSt5dequeIN12media_player12repositories20PlaybackHistoryEntryESaIS2_EE8_M_eraseESt15_Deque_iteratorIS2_RS2_PS2_ES8_
FNDA:287,_ZNSt5dequeIN12media_player12repositories20PlaybackHistoryEntryESaIS2_EE16_M_push_back_auxIJRKS2_EEEvDpOT_
FNDA:34,_ZNSt5dequeIN12media_player12repositories20PlaybackHistoryEntryESaIS2_EE17_M_push_front_auxIJS2_EEEvDpOT_
FNDA:1,_ZNSt5dequeIN12media_player12repositories20PlaybackHistoryEntryESaIS2_EE15_M_pop_back_auxEv
FNDA:1,_ZNSt5dequeIN12media_player12repositories20PlaybackHistoryEntryESaIS2_EE16_M_pop_front_auxEv
FNDA:123,_ZNSt5dequeIN12media_player12repositories20PlaybackHistoryEntryESaIS2_EE19_M_destroy_data_auxESt15_Deque_iteratorIS2_RS2_PS2_ES8_
FNDA:17,_ZNSt5dequeIN12media_player12repositories20PlaybackHistoryEntryESaIS2_EE17_M_reallocate_mapEmb
FNF:15
FNH:9
BRDA:143,0,0,14
BRDA:143,0,1,34
BRDA:241,0,0,1
BRDA:241,0,1,0
BRDA:243,0,0,0
BRDA:243,0,1,1
BRDA:244,0,0,-
BRDA:244,e0,1,-
BRDA:249,0,0,-
BRDA:249,0,1,-
BRDA:250,0,0,-
BRDA:250,e0,1,-
BRDA:261,0,0,0
BRDA:261,0,1,1
BRDA:263,0,0,0
BRDA:263,0,1,1
BRDA:263,0,2,0
BRDA:263,0,3,0
BRDA:263,0,4,0
BRDA:263,0,5,1
BRDA:272,0,0,0
BRDA:272,0,1,1
BRDA:274,0,0,-
BRDA:274,0,1,-
BRDA:275,0,0,-
BRDA:275,e0,1,-
BRDA:276,0,0,-
BRDA:276,e0,1,-
BRDA:280,0,0,0
BRDA:280,0,1,1
BRDA:281,0,0,-
BRDA:281,e0,1,-
BRDA:282,0,0,1
BRDA:282,e0,1,0
BRDA:492,0,0,0
BRDA:492,0,1,287
BRDA:531,0,0,0
BRDA:531,0,1,34
BRDA:863,0,0,239
BRDA:863,0,1,123
BRDA:867,0,0,80
BRDA:867,0,1,43
BRDA:939,0,0,0
BRDA:939,0,1,17
BRDA:943,0,0,-
BRDA:943,0,1,-
BRDA:944,0,0,-
BRDA:944,0,1,-
BRDA:961,0,0,0
BRDA:961,0,1,17
BRDA:1008,0,0,-
BRDA:1008,0,1,-
BRDA:1010,0,0,-
BRDA:1010,e0,1,-
BRDA:1015,0,0,-
BRDA:1015,0,1,-
BRDA:1018,0,0,-
BRDA:1018,e0,1,-
BRDA:1022,0,0,-
BRDA:1022,e0,1,-
BRDA:1026,0,0,-
BRDA:1026,e0,1,-
BRDA:1043,0,0,-
BRDA:1043,e0,1,-
BRDA:1056,0,0,-
BRDA:1056,0,1,-
BRDA:1060,0,0,-
BRDA:1060,e0,1,-
BRDA:1131,0,0,-
BRDA:1131,0,1,-
BRDA:1133,0,0,-
BRDA:1133,e0,1,-
BRDA:1137,0,0,-
BRDA:1137,0,1,-
BRDA:1139,0,0,-
BRDA:1139,e0,1,-
BRDA:1142,0,0,-
BRDA:1142,e0,1,-
BRDA:1146,0,0,-
BRDA:1146,e0,1,-
BRDA:1165,0,0,-
BRDA:1165,e0,1,-
BRDA:1178,0,0,-
BRDA:1178,0,1,-
BRDA:1182,0,0,-
BRDA:1182,0,1,-
BRDA:1189,0,0,-
BRDA:1189,e0,1,-
BRF:88
BRH:18
DA:140,48
DA:143,48
DA:145,14
DA:146,14
DA:148,14
DA:151,34
DA:153,48
DA:235,1
DA:238,1
DA:239,1
DA:240,1
DA:241,1
DA:243,1
DA:244,0
DA:245,1
DA:249,0
DA:250,0
DA:251,0
DA:253,1
DA:258,1
DA:261,1
DA:262,0
DA:263,1
DA:265,0
DA:266,0
DA:270,1
DA:271,1
DA:272,1
DA:274,0
DA:275,0
DA:276,0
DA:280,1
DA:281,0
DA:282,1
DA:284,1
DA:484,287
DA:492,287
DA:493,0
DA:496,287
DA:497,287
DA:501,287
DA:507,287
DA:509,287
DA:511,0
DA:513,0
DA:514,0
DA:516,287
DA:523,34
DA:531,34
DA:532,0
DA:535,34
DA:536,34
DA:539,34
DA:541,34
DA:543,34
DA:556,34
DA:560,1
DA:563,1
DA:564,1
DA:565,1
DA:566,1
DA:568,1
DA:576,1
DA:579,1
DA:581,1
DA:582,1
DA:583,1
DA:584,1
DA:859,123
DA:862,362
DA:863,362
DA:864,239
DA:865,239
DA:867,123
DA:869,80
DA:870,80
DA:871,80
DA:872,80
DA:875,43
DA:876,43
DA:877,123
DA:931,17
DA:934,17
DA:935,17
DA:936,17
DA:939,17
DA:941,0
DA:942,0
DA:943,0
DA:944,0
DA:945,0
DA:946,0
DA:949,0
DA:950,0
DA:951,0
DA:955,34
DA:956,17
DA:959,17
DA:960,34
DA:961,17
DA:962,17
DA:963,17
DA:965,17
DA:967,17
DA:968,17
DA:971,17
DA:972,17
DA:973,17
DA:1003,0
DA:1008,0
DA:1010,0
DA:1014,0
DA:1015,0
DA:1016,0
DA:1018,0
DA:1022,0
DA:1026,0
DA:1040,0
DA:1043,0
DA:1049,0
DA:1055,0
DA:1056,0
DA:1058,0
DA:1059,0
DA:1060,0
DA:1063,0
DA:1064,0
DA:1065,0
DA:1068,0
DA:1125,0
DA:1131,0
DA:1133,0
DA:1136,0
DA:1137,0
DA:1138,0
DA:1139,0
DA:1142,0
DA:1146,0
DA:1161,0
DA:1165,0
DA:1171,0
DA:1177,0
DA:1178,0
DA:1180,0
DA:1181,0
DA:1182,0
DA:1184,0
DA:1185,0
DA:1188,0
DA:1189,0
DA:1191,0
DA:1192,0
DA:1193,0
DA:1196,0
LF:154
LH:83
end_of_record
TN:
SF:/usr/include/c++/13/bits/fs_dir.h
FN:169,169,_ZNKSt10filesystem7__cxx1115directory_entry4pathEv
FN:221,222,_ZNKSt10filesystem7__cxx1115directory_entry15is_regular_fileEv
FN:278,279,_ZNKSt10filesystem7__cxx1115directory_entry6statusEv
FN:342,347,_ZNKSt10filesystem7__cxx1115directory_entry12_M_file_typeEv
FN:403,403,_ZNSt10filesystem7__cxx1118directory_iteratorC2Ev
FN:406,407,_ZNSt10filesystem7__cxx1118directory_iteratorC2ERKNS0_4pathE
FN:419,419,_ZNSt10filesystem7__cxx1118directory_iteratorC2ERKS1_
FN:421,421,_ZNSt10filesystem7__cxx1118directory_iteratorC2EOS1_
FN:423,423,_ZNSt10filesystem7__cxx1118directory_iteratorD2Ev
FN:444,449,_ZNSt10filesystem7__cxx11eqERKNS0_18directory_iteratorES3_
FN:460,462,_ZNSt10filesystem7__cxx11neERKNS0_18directory_iteratorES3_
FN:484,485,_ZNSt10filesystem7__cxx115beginENS0_18directory_iteratorE
FN:489,490,_ZNSt10filesystem7__cxx113endENS0_18directory_iteratorE
FN:77,77,_ZNKSt10filesystem11file_status4typeEv
FNDA:0,_ZNKSt10filesystem7__cxx1115directory_entry4pathEv
FNDA:0,_ZNKSt10filesystem7__cxx1115directory_entry15is_regular_fileEv
FNDA:0,_ZNKSt10filesystem7__cxx1115directory_entry6statusEv
FNDA:0,_ZNKSt10filesystem7__cxx1115directory_entry12_M_file_typeEv
FNDA:0,_ZNSt10filesystem7__cxx1118directory_iteratorC2Ev
FNDA:0,_ZNSt10filesystem7__cxx1118directory_iteratorC2ERKNS0_4pathE
FNDA:0,_ZNSt10filesystem7__cxx1118directory_iteratorC2ERKS1_
FNDA:0,_ZNSt10filesystem7__cxx1118directory_iteratorC2EOS1_
FNDA:0,_ZNSt10filesystem7__cxx1118directory_iteratorD2Ev
FNDA:0,_ZNSt10filesystem7__cxx11eqERKNS0_18directory_iteratorES3_
FNDA:0,_ZNSt10filesystem7__cxx11neERKNS0_18directory_iteratorES3_
FNDA:0,_ZNSt10filesystem7__cxx115beginENS0_18directory_iteratorE
FNDA:0,_ZNSt10filesystem7__cxx113endENS0_18directory_iteratorE
FNDA:0,_ZNKSt10filesystem11file_status4typeEv
FNF:14
FNH:0
BRDA:344,0,0,-
BRDA:344,0,1,-
BRDA:344,0,2,-
BRDA:344,0,3,-
BRDA:346,0,0,-
BRDA:346,e0,1,-
BRDA:448,0,0,-
BRDA:448,0,1,-
BRDA:448,0,2,-
BRDA:448,0,3,-
BRF:10
BRH:0
DA:77,0
DA:169,0
DA:221,0
DA:222,0
DA:278,0
DA:279,0
DA:342,0
DA:344,0
DA:345,0
DA:346,0
DA:403,0
DA:406,0
DA:407,0
DA:419,0
DA:421,0
DA:423,0
DA:444,0
DA:447,0
DA:448,0
DA:460,0
DA:462,0
DA:484,0
DA:485,0
DA:489,0
DA:490,0
LF:25
LH:0
end_of_record
TN:
SF:/usr/include/c++/13/bits/fs_ops.h
FN:128,129,_ZNSt10filesystem6existsENS_11file_statusE
FN:133,134,_ZNSt10filesystem6existsERKNS_7__cxx114pathE
FN:363,364,_ZNSt10filesystem12status_knownENS_11file_statusE
FNDA:0,_ZNSt10filesystem6existsENS_11file_statusE
FNDA:0,_ZNSt10filesystem6existsERKNS_7__cxx114pathE
FNDA:0,_ZNSt10filesystem12status_knownENS_11file_statusE
FNF:3
FNH:0
BRDA:129,0,0,-
BRDA:129,0,1,-
BRDA:129,0,2,-
BRDA:129,0,3,-
BRF:4
BRH:0
DA:128,0
DA:129,0
DA:133,0
DA:134,0
DA:363,0
DA:364,0
LF:6
LH:0
end_of_record
TN:
SF:/usr/include/c++/13/bits/fs_path.h
FN:1161,1167,_ZNKSt10filesystem7__cxx114path6stringIcSt11char_traitsIcESaIcEEENSt7__cxx1112basic_stringIT_T0_T1_EERKSA_
FN:1170,1170,_ZNKSt10filesystem7__cxx114path6stringEv
FN:1310,1316,_ZNKSt10filesystem7__cxx114path9extensionEv
FN:183,185,_ZNSt10filesystem7__cxx118__detail17__effective_rangeIcSt11char_traitsIcESaIcEEESt17basic_string_viewIT_S3_IS7_EERKNSt7__cxx1112basic_stringIS7_T0_T1_EE
FN:196,214,_ZNSt10filesystem7__cxx118__detail17__effective_rangeIA10_cEEDaRKT_
FN:315,315,_ZNSt10filesystem7__cxx114pathC2Ev
FN:324,326,_ZNSt10filesystem7__cxx114pathC2EONSt7__cxx1112basic_stringIcSt11char_traitsIcESaIcEEENS1_6formatE
FN:330,332,_ZNSt10filesystem7__cxx114pathC2IA10_cS1_EERKT_NS1_6formatE
FN:330,332,_ZNSt10filesystem7__cxx114pathC2INSt7__cxx1112basic_stringIcSt11char_traitsIcESaIcEEES1_EERKT_NS1_6formatE
FN:355,355,_ZNSt10filesystem7__cxx114pathD2Ev
FN:560,561,_ZNSt10filesystem7__cxx11eqERKNS0_4pathES3_
FN:618,633,_ZNSt10filesystem7__cxx114path10_S_convertISt17basic_string_viewIcSt11char_traitsIcEEEEDaT_
FN:689,689,_ZNSt10filesystem7__cxx114path5_ListD2Ev
FNDA:0,_ZNKSt10filesystem7__cxx114path6stringIcSt11char_traitsIcESaIcEEENSt7__cxx1112basic_stringIT_T0_T1_EERKSA_
FNDA:0,_ZNKSt10filesystem7__cxx114path6stringEv
FNDA:0,_ZNKSt10filesystem7__cxx114path9extensionEv
FNDA:0,_ZNSt10filesystem7__cxx118__detail17__effective_rangeIcSt11char_traitsIcESaIcEEESt17basic_string_viewIT_S3_IS7_EERKNSt7__cxx1112basic_stringIS7_T0_T1_EE
FNDA:0,_ZNSt10filesystem7__cxx118__detail17__effective_rangeIA10_cEEDaRKT_
FNDA:0,_ZNSt10filesystem7__cxx114pathC2Ev
FNDA:0,_ZNSt10filesystem7__cxx114pathC2EONSt7__cxx1112basic_stringIcSt11char_traitsIcESaIcEEENS1_6formatE
FNDA:0,_ZNSt10filesystem7__cxx114pathC2IA10_cS1_EERKT_NS1_6formatE
FNDA:0,_ZNSt10filesystem7__cxx114pathC2INSt7__cxx1112basic_stringIcSt11char_traitsIcESaIcEEES1_EERKT_NS1_6formatE
FNDA:0,_ZNSt10filesystem7__cxx114pathD2Ev
FNDA:3,_ZNSt10filesystem7__cxx11eqERKNS0_4pathES3_
FNDA:0,_ZNSt10filesystem7__cxx114path10_S_convertISt17basic_string_viewIcSt11char_traitsIcEEEEDaT_
FNDA:0,_ZNSt10filesystem7__cxx114path5_ListD2Ev
FNF:13
FNH:1
BRDA:325,0,0,-
BRDA:325,e0,1,-
BRDA:326,0,0,-
BRDA:326,e0,1,-
BRDA:331,0,0,-
BRDA:331,e0,1,-
BRDA:331,0,2,-
BRDA:331,e0,3,-
BRDA:332,0,0,-
BRDA:332,e0,1,-
BRDA:1170,0,0,-
BRDA:1170,e0,1,-
BRDA:1313,0,0,-
BRDA:1313,0,1,-
BRDA:1313,0,2,-
BRDA:1313,0,3,-
BRDA:1314,0,0,-
BRDA:1314,e0,1,-
BRDA:1314,0,2,-
BRDA:1314,e0,3,-
BRF:20
BRH:0
DA:183,0
DA:185,0
DA:196,0
DA:203,0
DA:315,0
DA:324,0
DA:325,0
DA:326,0
DA:330,0
DA:331,0
DA:332,0
DA:355,0
DA:560,3
DA:561,3
DA:618,0
DA:622,0
DA:689,0
DA:1161,0
DA:1164,0
DA:1170,0
DA:1310,0
DA:1312,0
DA:1313,0
DA:1314,0
DA:1315,0
DA:1422,3
LF:26
LH:3
end_of_record
TN:
SF:/usr/include/c++/13/bits/functional_hash.h
FN:204,206,_ZNSt10_Hash_impl4hashEPKvmm
FNDA:0,_ZNSt10_Hash_impl4hashEPKvmm
FNF:1
FNH:0
DA:204,0
DA:206,0
LF:2
LH:0
end_of_record
TN:
SF:/usr/include/c++/13/bits/move.h
FN:51,52,_ZSt11__addressofIKSt6vectorIN12media_player6models14MediaFileModelESaIS3_EEEPT_RS7_
FN:51,52,_ZSt11__addressofIN12media_player12repositories20PlaybackHistoryEntryEEPT_RS3_
FN:51,52,_ZSt11__addressofIN12media_player6models13PlaylistModelEEPT_RS3_
FN:51,52,_ZSt11__addressofIN12media_player6models14MediaFileModelEEPT_RS3_
FN:51,52,_ZSt11__addressofIZN12media_player12repositories18PlaylistRepository19deserializePlaylistERKNSt7__cxx1112basic_stringIcSt11char_traitsIcESaIcEEEE8ItemLineEPT_RSC_
FN:70,71,_ZSt7forwardIN12media_player12repositories20PlaybackHistoryEntryEEOT_RNSt16remove_referenceIS3_E4typeE
FN:70,71,_ZSt7forwardIN12media_player6models13PlaylistModelEEOT_RNSt16remove_referenceIS3_E4typeE
FN:70,71,_ZSt7forwardIN12media_player6models14MediaFileModelEEOT_RNSt16remove_referenceIS3_E4typeE
FN:70,71,_ZSt7forwardINSt7__cxx1112basic_stringIcSt11char_traitsIcESaIcEEEEOT_RNSt16remove_referenceIS6_E4typeE
FN:70,71,_ZSt7forwardIONSt7__cxx1112basic_stringIcSt11char_traitsIcESaIcEEEEOT_RNSt16remove_referenceIS7_E4typeE
FN:70,71,_ZSt7forwardIRKN12media_player12repositories20PlaybackHistoryEntryEEOT_RNSt16remove_referenceIS5_E4typeE
FN:70,71,_ZSt7forwardIRKN12media_player6models13PlaylistModelEEOT_RNSt16remove_referenceIS5_E4typeE
FN:70,71,_ZSt7forwardIRKN12media_player6models14MediaFileModelEEOT_RNSt16remove_referenceIS5_E4typeE
FN:70,71,_ZSt7forwardIRKNSt7__cxx1112basic_stringIcSt11char_traitsIcESaIcEEEEOT_RNSt16remove_referenceIS8_E4typeE
FN:70,71,_ZSt7forwardIRKSt21piecewise_construct_tEOT_RNSt16remove_referenceIS3_E4typeE
FN:70,71,_ZSt7forwardIRKZN12media_player12repositories18PlaylistRepository19deserializePlaylistERKNSt7__cxx1112basic_stringIcSt11char_traitsIcESaIcEEEE8ItemLineEOT_RNSt16remove_referenceISE_E4typeE
FN:70,71,_ZSt7forwardIRN12media_player6models13PlaylistModelEEOT_RNSt16remove_referenceIS4_E4typeE
FN:70,71,_ZSt7forwardIRN12media_player6models14MediaFileModelEEOT_RNSt16remove_referenceIS4_E4typeE
FN:70,71,_ZSt7forwardIRPSt13_Rb_tree_nodeISt4pairIKNSt7__cxx1112basic_stringIcSt11char_traitsIcESaIcEEEN12media_player6models13PlaylistModelEEEEOT_RNSt16remove_referenceISG_E4typeE
FN:70,71,_ZSt7forwardIRPSt13_Rb_tree_nodeISt4pairIKNSt7__cxx1112basic_stringIcSt11char_traitsIcESaIcEEEN12media_player6models14MediaFileModelEEEEOT_RNSt16remove_referenceISG_E4typeE
FN:70,71,_ZSt7forwardIRPSt18_Rb_tree_node_baseEOT_RNSt16remove_referenceIS3_E4typeE
FN:70,71,_ZSt7forwardISt5tupleIJEEEOT_RNSt16remove_referenceIS2_E4typeE
FN:70,71,_ZSt7forwardISt5tupleIJONSt7__cxx1112basic_stringIcSt11char_traitsIcESaIcEEEEEEOT_RNSt16remove_referenceIS9_E4typeE
FN:70,71,_ZSt7forwardISt5tupleIJRKNSt7__cxx1112basic_stringIcSt11char_traitsIcESaIcEEEEEEOT_RNSt16remove_referenceISA_E4typeE
FN:70,71,_ZSt7forwardIZN12media_player12repositories18PlaylistRepository19deserializePlaylistERKNSt7__cxx1112basic_stringIcSt11char_traitsIcESaIcEEEE8ItemLineEOT_RNSt16remove_referenceISC_E4typeE
FN:97,98,_ZSt4moveIRN12media_player12repositories20PlaybackHistoryEntryEEONSt16remove_referenceIT_E4typeEOS5_
FN:97,98,_ZSt4moveIRN12media_player6models13PlaylistModelEEONSt16remove_referenceIT_E4typeEOS5_
FN:97,98,_ZSt4moveIRN12media_player6models14MediaFileModelEEONSt16remove_referenceIT_E4typeEOS5_
FN:97,98,_ZSt4moveIRNSt12_Vector_baseIN12media_player6models14MediaFileModelESaIS3_EE12_Vector_implEEONSt16remove_referenceIT_E4typeEOS9_
FN:97,98,_ZSt4moveIRNSt7__cxx1112basic_stringIcSt11char_traitsIcESaIcEEEEONSt16remove_referenceIT_E4typeEOS8_
FN:97,98,_ZSt4moveIRPNSt10filesystem7__cxx114path5_List5_ImplEEONSt16remove_referenceIT_E4typeEOS8_
FN:97,98,_ZSt4moveIRSaIcEEONSt16remove_referenceIT_E4typeEOS3_
FN:97,98,_ZSt4moveIRZN12media_player12repositories17HistoryRepository26removeAllEntriesByFilePathERKNSt7__cxx1112basic_stringIcSt11char_traitsIcESaIcEEEEUlRKNS1_20PlaybackHistoryEntryEE_EONSt16remove_referenceIT_E4typeEOSH_
FN:97,98,_ZSt4moveIRZN12media_player12repositories17HistoryRepository31removeMostRecentEntryByFilePathERKNSt7__cxx1112basic_stringIcSt11char_traitsIcESaIcEEEEUlRKNS1_20PlaybackHistoryEntryEE_EONSt16remove_referenceIT_E4typeEOSH_
FN:97,98,_ZSt4moveIRZN12media_player12repositories18PlaylistRepository19deserializePlaylistERKNSt7__cxx1112basic_stringIcSt11char_traitsIcESaIcEEEE8ItemLineEONSt16remove_referenceIT_E4typeEOSE_
FNDA:0,_ZSt11__addressofIKSt6vectorIN12media_player6models14MediaFileModelESaIS3_EEEPT_RS7_
FNDA:0,_ZSt11__addressofIN12media_player12repositories20PlaybackHistoryEntryEEPT_RS3_
FNDA:0,_ZSt11__addressofIN12media_player6models13PlaylistModelEEPT_RS3_
FNDA:0,_ZSt11__addressofIN12media_player6models14MediaFileModelEEPT_RS3_
FNDA:6,_ZSt11__addressofIZN12media_player12repositories18PlaylistRepository19deserializePlaylistERKNSt7__cxx1112basic_stringIcSt11char_traitsIcESaIcEEEE8ItemLineEPT_RSC_
FNDA:0,_ZSt7forwardIN12media_player12repositories20PlaybackHistoryEntryEEOT_RNSt16remove_referenceIS3_E4typeE
FNDA:0,_ZSt7forwardIN12media_player6models13PlaylistModelEEOT_RNSt16remove_referenceIS3_E4typeE
FNDA:0,_ZSt7forwardIN12media_player6models14MediaFileModelEEOT_RNSt16remove_referenceIS3_E4typeE
FNDA:0,_ZSt7forwardINSt7__cxx1112basic_stringIcSt11char_traitsIcESaIcEEEEOT_RNSt16remove_referenceIS6_E4typeE
FNDA:3,_ZSt7forwardIONSt7__cxx1112basic_stringIcSt11char_traitsIcESaIcEEEEOT_RNSt16remove_referenceIS7_E4typeE
FNDA:0,_ZSt7forwardIRKN12media_player12repositories20PlaybackHistoryEntryEEOT_RNSt16remove_referenceIS5_E4typeE
FNDA:39,_ZSt7forwardIRKN12media_player6models13PlaylistModelEEOT_RNSt16remove_referenceIS5_E4typeE
FNDA:0,_ZSt7forwardIRKN12media_player6models14MediaFileModelEEOT_RNSt16remove_referenceIS5_E4typeE
FNDA:0,_ZSt7forwardIRKNSt7__cxx1112basic_stringIcSt11char_traitsIcESaIcEEEEOT_RNSt16remove_referenceIS8_E4typeE
FNDA:0,_ZSt7forwardIRKSt21piecewise_construct_tEOT_RNSt16remove_referenceIS3_E4typeE
FNDA:9,_ZSt7forwardIRKZN12media_player12repositories18PlaylistRepository19deserializePlaylistERKNSt7__cxx1112basic_stringIcSt11char_traitsIcESaIcEEEE8ItemLineEOT_RNSt16remove_referenceISE_E4typeE
FNDA:56,_ZSt7forwardIRN12media_player6models13PlaylistModelEEOT_RNSt16remove_referenceIS4_E4typeE
FNDA:0,_ZSt7forwardIRN12media_player6models14MediaFileModelEEOT_RNSt16remove_referenceIS4_E4typeE
FNDA:24,_ZSt7forwardIRPSt13_Rb_tree_nodeISt4pairIKNSt7__cxx1112basic_stringIcSt11char_traitsIcESaIcEEEN12media_player6models13PlaylistModelEEEEOT_RNSt16remove_referenceISG_E4typeE
FNDA:23,_ZSt7forwardIRPSt13_Rb_tree_nodeISt4pairIKNSt7__cxx1112basic_stringIcSt11char_traitsIcESaIcEEEN12media_player6models14MediaFileModelEEEEOT_RNSt16remove_referenceISG_E4typeE
FNDA:0,_ZSt7forwardIRPSt18_Rb_tree_node_baseEOT_RNSt16remove_referenceIS3_E4typeE
FNDA:0,_ZSt7forwardISt5tupleIJEEEOT_RNSt16remove_referenceIS2_E4typeE
FNDA:18,_ZSt7forwardISt5tupleIJONSt7__cxx1112basic_stringIcSt11char_traitsIcESaIcEEEEEEOT_RNSt16remove_referenceIS9_E4typeE
FNDA:0,_ZSt7forwardISt5tupleIJRKNSt7__cxx1112basic_stringIcSt11char_traitsIcESaIcEEEEEEOT_RNSt16remove_referenceISA_E4typeE
FNDA:2,_ZSt7forwardIZN12media_player12repositories18PlaylistRepository19deserializePlaylistERKNSt7__cxx1112basic_stringIcSt11char_traitsIcESaIcEEEE8ItemLineEOT_RNSt16remove_referenceISC_E4typeE
FNDA:0,_ZSt4moveIRN12media_player12repositories20PlaybackHistoryEntryEEONSt16remove_referenceIT_E4typeEOS5_
FNDA:0,_ZSt4moveIRN12media_player6models13PlaylistModelEEONSt16remove_referenceIT_E4typeEOS5_
FNDA:0,_ZSt4moveIRN12media_player6models14MediaFileModelEEONSt16remove_referenceIT_E4typeEOS5_
FNDA:0,_ZSt4moveIRNSt12_Vector_baseIN12media_player6models14MediaFileModelESaIS3_EE12_Vector_implEEONSt16remove_referenceIT_E4typeEOS9_
FNDA:0,_ZSt4moveIRNSt7__cxx1112basic_stringIcSt11char_traitsIcESaIcEEEEONSt16remove_referenceIT_E4typeEOS8_
FNDA:0,_ZSt4moveIRPNSt10filesystem7__cxx114path5_List5_ImplEEONSt16remove_referenceIT_E4typeEOS8_
FNDA:0,_ZSt4moveIRSaIcEEONSt16remove_referenceIT_E4typeEOS3_
FNDA:4,_ZSt4moveIRZN12media_player12repositories17HistoryRepository26removeAllEntriesByFilePathERKNSt7__cxx1112basic_stringIcSt11char_traitsIcESaIcEEEEUlRKNS1_20PlaybackHistoryEntryEE_EONSt16remove_referenceIT_E4typeEOSH_
FNDA:4,_ZSt4moveIRZN12media_player12repositories17HistoryRepository31removeMostRecentEntryByFilePathERKNSt7__cxx1112basic_stringIcSt11char_traitsIcESaIcEEEEUlRKNS1_20PlaybackHistoryEntryEE_EONSt16remove_referenceIT_E4typeEOSH_
FNDA:1,_ZSt4moveIRZN12media_player12repositories18PlaylistRepository19deserializePlaylistERKNSt7__cxx1112basic_stringIcSt11char_traitsIcESaIcEEEE8ItemLineEONSt16remove_referenceIT_E4typeEOSE_
FNF:35
FNH:12
DA:51,6
DA:52,6
DA:70,174
DA:71,174
DA:97,9
DA:98,9
LF:6
LH:6
end_of_record
TN:
SF:/usr/include/c++/13/bits/new_allocator.h
FN:104,104,_ZNSt15__new_allocatorIN12media_player12repositories20PlaybackHistoryEntryEED2Ev
FN:104,104,_ZNSt15__new_allocatorIN12media_player6models13PlaylistModelEED2Ev
FN:104,104,_ZNSt15__new_allocatorIN12media_player6models14MediaFileModelEED2Ev
FN:104,104,_ZNSt15__new_allocatorIPN12media_player12repositories20PlaybackHistoryEntryEED2Ev
FN:104,104,_ZNSt15__new_allocatorISt13_Rb_tree_nodeISt4pairIKNSt7__cxx1112basic_stringIcSt11char_traitsIcESaIcEEEN12media_player6models13PlaylistModelEEEED2Ev
FN:104,104,_ZNSt15__new_allocatorISt13_Rb_tree_nodeISt4pairIKNSt7__cxx1112basic_stringIcSt11char_traitsIcESaIcEEEN12media_player6models14MediaFileModelEEEED2Ev
FN:104,104,_ZNSt15__new_allocatorIZN12media_player12repositories18PlaylistRepository19deserializePlaylistERKNSt7__cxx1112basic_stringIcSt11char_traitsIcESaIcEEEE8ItemLineED2Ev
FN:104,104,_ZNSt15__new_allocatorIcED2Ev
FN:126,152,_ZNSt15__new_allocatorIN12media_player12repositories20PlaybackHistoryEntryEE8allocateEmPKv
FN:126,152,_ZNSt15__new_allocatorIN12media_player6models13PlaylistModelEE8allocateEmPKv
FN:126,152,_ZNSt15__new_allocatorIN12media_player6models14MediaFileModelEE8allocateEmPKv
FN:126,152,_ZNSt15__new_allocatorIPN12media_player12repositories20PlaybackHistoryEntryEE8allocateEmPKv
FN:126,152,_ZNSt15__new_allocatorISt13_Rb_tree_nodeISt4pairIKNSt7__cxx1112basic_stringIcSt11char_traitsIcESaIcEEEN12media_player6models13PlaylistModelEEEE8allocateEmPKv
FN:126,152,_ZNSt15__new_allocatorISt13_Rb_tree_nodeISt4pairIKNSt7__cxx1112basic_stringIcSt11char_traitsIcESaIcEEEN12media_player6models14MediaFileModelEEEE8allocateEmPKv
FN:126,152,_ZNSt15__new_allocatorIZN12media_player12repositories18PlaylistRepository19deserializePlaylistERKNSt7__cxx1112basic_stringIcSt11char_traitsIcESaIcEEEE8ItemLineE8allocateEmPKv
FN:156,173,_ZNSt15__new_allocatorIN12media_player12repositories20PlaybackHistoryEntryEE10deallocateEPS2_m
FN:156,173,_ZNSt15__new_allocatorIN12media_player6models13PlaylistModelEE10deallocateEPS2_m
FN:156,173,_ZNSt15__new_allocatorIN12media_player6models14MediaFileModelEE10deallocateEPS2_m
FN:156,173,_ZNSt15__new_allocatorIPN12media_player12repositories20PlaybackHistoryEntryEE10deallocateEPS3_m
FN:156,173,_ZNSt15__new_allocatorISt13_Rb_tree_nodeISt4pairIKNSt7__cxx1112basic_stringIcSt11char_traitsIcESaIcEEEN12media_player6models13PlaylistModelEEEE10deallocateEPSD_m
FN:156,173,_ZNSt15__new_allocatorISt13_Rb_tree_nodeISt4pairIKNSt7__cxx1112basic_stringIcSt11char_traitsIcESaIcEEEN12media_player6models14MediaFileModelEEEE10deallocateEPSD_m
FN:156,173,_ZNSt15__new_allocatorIZN12media_player12repositories18PlaylistRepository19deserializePlaylistERKNSt7__cxx1112basic_stringIcSt11char_traitsIcESaIcEEEE8ItemLineE10deallocateEPSB_m
FNDA:0,_ZNSt15__new_allocatorIN12media_player12repositories20PlaybackHistoryEntryEED2Ev
FNDA:0,_ZNSt15__new_allocatorIN12media_player6models13PlaylistModelEED2Ev
FNDA:0,_ZNSt15__new_allocatorIN12media_player6models14MediaFileModelEED2Ev
FNDA:190,_ZNSt15__new_allocatorIPN12media_player12repositories20PlaybackHistoryEntryEED2Ev
FNDA:34,_ZNSt15__new_allocatorISt13_Rb_tree_nodeISt4pairIKNSt7__cxx1112basic_stringIcSt11char_traitsIcESaIcEEEN12media_player6models13PlaylistModelEEEED2Ev
FNDA:58,_ZNSt15__new_allocatorISt13_Rb_tree_nodeISt4pairIKNSt7__cxx1112basic_stringIcSt11char_traitsIcESaIcEEEN12media_player6models14MediaFileModelEEEED2Ev
FNDA:3,_ZNSt15__new_allocatorIZN12media_player12repositories18PlaylistRepository19deserializePlaylistERKNSt7__cxx1112basic_stringIcSt11char_traitsIcESaIcEEEE8ItemLineED2Ev
FNDA:0,_ZNSt15__new_allocatorIcED2Ev
FNDA:0,_ZNSt15__new_allocatorIN12media_player12repositories20PlaybackHistoryEntryEE8allocateEmPKv
FNDA:0,_ZNSt15__new_allocatorIN12media_player6models13PlaylistModelEE8allocateEmPKv
FNDA:0,_ZNSt15__new_allocatorIN12media_player6models14MediaFileModelEE8allocateEmPKv
FNDA:95,_ZNSt15__new_allocatorIPN12media_player12repositories20PlaybackHistoryEntryEE8allocateEmPKv
FNDA:33,_ZNSt15__new_allocatorISt13_Rb_tree_nodeISt4pairIKNSt7__cxx1112basic_stringIcSt11char_traitsIcESaIcEEEN12media_player6models13PlaylistModelEEEE8allocateEmPKv
FNDA:40,_ZNSt15__new_allocatorISt13_Rb_tree_nodeISt4pairIKNSt7__cxx1112basic_stringIcSt11char_traitsIcESaIcEEEN12media_player6models14MediaFileModelEEEE8allocateEmPKv
FNDA:3,_ZNSt15__new_allocatorIZN12media_player12repositories18PlaylistRepository19deserializePlaylistERKNSt7__cxx1112basic_stringIcSt11char_traitsIcESaIcEEEE8ItemLineE8allocateEmPKv
FNDA:0,_ZNSt15__new_allocatorIN12media_player12repositories20PlaybackHistoryEntryEE10deallocateEPS2_m
FNDA:0,_ZNSt15__new_allocatorIN12media_player6models13PlaylistModelEE10deallocateEPS2_m
FNDA:0,_ZNSt15__new_allocatorIN12media_player6models14MediaFileModelEE10deallocateEPS2_m
FNDA:95,_ZNSt15__new_allocatorIPN12media_player12repositories20PlaybackHistoryEntryEE10deallocateEPS3_m
FNDA:33,_ZNSt15__new_allocatorISt13_Rb_tree_nodeISt4pairIKNSt7__cxx1112basic_stringIcSt11char_traitsIcESaIcEEEN12media_player6models13PlaylistModelEEEE10deallocateEPSD_m
FNDA:40,_ZNSt15__new_allocatorISt13_Rb_tree_nodeISt4pairIKNSt7__cxx1112basic_stringIcSt11char_traitsIcESaIcEEEN12media_player6models14MediaFileModelEEEE10deallocateEPSD_m
FNDA:3,_ZNSt15__new_allocatorIZN12media_player12repositories18PlaylistRepository19deserializePlaylistERKNSt7__cxx1112basic_stringIcSt11char_traitsIcESaIcEEEE8ItemLineE10deallocateEPSB_m
FNF:22
FNH:12
BRDA:134,0,0,0
BRDA:134,0,1,171
BRDA:138,0,0,-
BRDA:138,0,1,-
BRDA:191,0,0,330
BRDA:191,e0,1,0
BRDA:191,0,2,0
BRDA:191,0,3,0
BRDA:191,0,4,30
BRDA:191,e0,5,0
BRDA:191,0,6,0
BRDA:191,0,7,0
BRDA:191,0,8,330
BRDA:191,e0,9,0
BRDA:191,0,10,0
BRDA:191,0,11,0
BRDA:191,0,12,3
BRDA:191,e0,13,0
BRDA:191,0,14,0
BRDA:191,0,15,0
BRDA:191,0,16,0
BRDA:191,e0,17,0
BRDA:191,0,18,0
BRDA:191,0,19,0
BRDA:191,0,20,3
BRDA:191,e0,21,0
BRDA:191,0,22,0
BRDA:191,0,23,0
BRF:28
BRH:6
DA:88,0
DA:92,0
DA:104,285
DA:126,171
DA:134,171
DA:138,0
DA:139,0
DA:140,0
DA:151,171
DA:156,171
DA:172,171
DA:183,0
DA:191,745
DA:198,0
DA:233,0
LF:15
LH:7
end_of_record
TN:
SF:/usr/include/c++/13/bits/predefined_ops.h
FN:310,312,_ZN9__gnu_cxx5__ops10_Iter_predIZN12media_player12repositories17HistoryRepository26removeAllEntriesByFilePathERKNSt7__cxx1112basic_stringIcSt11char_traitsIcESaIcEEEEUlRKNS3_20PlaybackHistoryEntryEE_EC2ESG_
FN:310,312,_ZN9__gnu_cxx5__ops10_Iter_predIZN12media_player12repositories17HistoryRepository31removeMostRecentEntryByFilePathERKNSt7__cxx1112basic_stringIcSt11char_traitsIcESaIcEEEEUlRKNS3_20PlaybackHistoryEntryEE_EC2ESG_
FN:317,318,_ZN9__gnu_cxx5__ops10_Iter_predIZN12media_player12repositories17HistoryRepository26removeAllEntriesByFilePathERKNSt7__cxx1112basic_stringIcSt11char_traitsIcESaIcEEEEUlRKNS3_20PlaybackHistoryEntryEE_EclISt15_Deque_iteratorISD_RSD_PSD_EEEbT_
FN:317,318,_ZN9__gnu_cxx5__ops10_Iter_predIZN12media_player12repositories17HistoryRepository31removeMostRecentEntryByFilePathERKNSt7__cxx1112basic_stringIcSt11char_traitsIcESaIcEEEEUlRKNS3_20PlaybackHistoryEntryEE_EclISt15_Deque_iteratorISD_RSD_PSD_EEEbT_
FN:324,325,_ZN9__gnu_cxx5__ops11__pred_iterIZN12media_player12repositories17HistoryRepository26removeAllEntriesByFilePathERKNSt7__cxx1112basic_stringIcSt11char_traitsIcESaIcEEEEUlRKNS3_20PlaybackHistoryEntryEE_EENS0_10_Iter_predIT_EESI_
FN:324,325,_ZN9__gnu_cxx5__ops11__pred_iterIZN12media_player12repositories17HistoryRepository31removeMostRecentEntryByFilePathERKNSt7__cxx1112basic_stringIcSt11char_traitsIcESaIcEEEEUlRKNS3_20PlaybackHistoryEntryEE_EENS0_10_Iter_predIT_EESI_
FNDA:2,_ZN9__gnu_cxx5__ops10_Iter_predIZN12media_player12repositories17HistoryRepository26removeAllEntriesByFilePathERKNSt7__cxx1112basic_stringIcSt11char_traitsIcESaIcEEEEUlRKNS3_20PlaybackHistoryEntryEE_EC2ESG_
FNDA:2,_ZN9__gnu_cxx5__ops10_Iter_predIZN12media_player12repositories17HistoryRepository31removeMostRecentEntryByFilePathERKNSt7__cxx1112basic_stringIcSt11char_traitsIcESaIcEEEEUlRKNS3_20PlaybackHistoryEntryEE_EC2ESG_
FNDA:4,_ZN9__gnu_cxx5__ops10_Iter_predIZN12media_player12repositories17HistoryRepository26removeAllEntriesByFilePathERKNSt7__cxx1112basic_stringIcSt11char_traitsIcESaIcEEEEUlRKNS3_20PlaybackHistoryEntryEE_EclISt15_Deque_iteratorISD_RSD_PSD_EEEbT_
FNDA:2,_ZN9__gnu_cxx5__ops10_Iter_predIZN12media_player12repositories17HistoryRepository31removeMostRecentEntryByFilePathERKNSt7__cxx1112basic_stringIcSt11char_traitsIcESaIcEEEEUlRKNS3_20PlaybackHistoryEntryEE_EclISt15_Deque_iteratorISD_RSD_PSD_EEEbT_
FNDA:2,_ZN9__gnu_cxx5__ops11__pred_iterIZN12media_player12repositories17HistoryRepository26removeAllEntriesByFilePathERKNSt7__cxx1112basic_stringIcSt11char_traitsIcESaIcEEEEUlRKNS3_20PlaybackHistoryEntryEE_EENS0_10_Iter_predIT_EESI_
FNDA:2,_ZN9__gnu_cxx5__ops11__pred_iterIZN12media_player12repositories17HistoryRepository31removeMostRecentEntryByFilePathERKNSt7__cxx1112basic_stringIcSt11char_traitsIcESaIcEEEEUlRKNS3_20PlaybackHistoryEntryEE_EENS0_10_Iter_predIT_EESI_
FNF:6
FNH:6
DA:310,4
DA:311,4
DA:312,4
DA:317,6
DA:318,6
DA:324,4
DA:325,4
LF:7
LH:7
end_of_record
TN:
SF:/usr/include/c++/13/bits/shared_ptr_base.h
FN:1068,1072,_ZNSt14__shared_countILN9__gnu_cxx12_Lock_policyE2EED2Ev
FN:1074,1079,_ZNSt14__shared_countILN9__gnu_cxx12_Lock_policyE2EEC2ERKS2_
FN:1097,1102,_ZNSt14__shared_countILN9__gnu_cxx12_Lock_policyE2EE7_M_swapERS2_
FN:1117,1118,_ZNKSt14__shared_countILN9__gnu_cxx12_Lock_policyE2EE7_M_lessERKS2_
FN:151,152,_ZNSt16_Sp_counted_baseILN9__gnu_cxx12_Lock_policyE2EE15_M_add_ref_copyEv
FN:1522,1522,_ZNSt12__shared_ptrINSt10filesystem7__cxx114_DirELN9__gnu_cxx12_Lock_policyE2EEC2ERKS5_
FN:1524,1524,_ZNSt12__shared_ptrINSt10filesystem7__cxx114_DirELN9__gnu_cxx12_Lock_policyE2EED2Ev
FN:1699,1700,_ZNKSt12__shared_ptrINSt10filesystem7__cxx114_DirELN9__gnu_cxx12_Lock_policyE2EE12owner_beforeIS2_EEbRKS_IT_LS4_2EE
FN:172,193,_ZNSt16_Sp_counted_baseILN9__gnu_cxx12_Lock_policyE2EE19_M_release_last_useEv
FN:198,199,_ZNSt16_Sp_counted_baseILN9__gnu_cxx12_Lock_policyE2EE24_M_release_last_use_coldEv
FN:317,363,_ZNSt16_Sp_counted_baseILN9__gnu_cxx12_Lock_policyE2EE10_M_releaseEv
FN:908,909,_ZNSt14__shared_countILN9__gnu_cxx12_Lock_policyE2EEC2Ev
FNDA:0,_ZNSt14__shared_countILN9__gnu_cxx12_Lock_policyE2EED2Ev
FNDA:0,_ZNSt14__shared_countILN9__gnu_cxx12_Lock_policyE2EEC2ERKS2_
FNDA:0,_ZNSt14__shared_countILN9__gnu_cxx12_Lock_policyE2EE7_M_swapERS2_
FNDA:0,_ZNKSt14__shared_countILN9__gnu_cxx12_Lock_policyE2EE7_M_lessERKS2_
FNDA:0,_ZNSt16_Sp_counted_baseILN9__gnu_cxx12_Lock_policyE2EE15_M_add_ref_copyEv
FNDA:0,_ZNSt12__shared_ptrINSt10filesystem7__cxx114_DirELN9__gnu_cxx12_Lock_policyE2EEC2ERKS5_
FNDA:0,_ZNSt12__shared_ptrINSt10filesystem7__cxx114_DirELN9__gnu_cxx12_Lock_policyE2EED2Ev
FNDA:0,_ZNKSt12__shared_ptrINSt10filesystem7__cxx114_DirELN9__gnu_cxx12_Lock_policyE2EE12owner_beforeIS2_EEbRKS_IT_LS4_2EE
FNDA:0,_ZNSt16_Sp_counted_baseILN9__gnu_cxx12_Lock_policyE2EE19_M_release_last_useEv
FNDA:0,_ZNSt16_Sp_counted_baseILN9__gnu_cxx12_Lock_policyE2EE24_M_release_last_use_coldEv
FNDA:0,_ZNSt16_Sp_counted_baseILN9__gnu_cxx12_Lock_policyE2EE10_M_releaseEv
FNDA:0,_ZNSt14__shared_countILN9__gnu_cxx12_Lock_policyE2EEC2Ev
FNF:12
FNH:0
BRDA:188,0,0,-
BRDA:188,0,1,-
BRDA:337,0,0,-
BRDA:337,0,1,-
BRDA:350,0,0,-
BRDA:350,0,1,-
BRDA:1070,0,0,-
BRDA:1070,0,1,-
BRDA:1077,0,0,-
BRDA:1077,0,1,-
BRF:10
BRH:0
DA:151,0
DA:152,0
DA:172,0
DA:175,0
DA:187,0
DA:188,0
DA:191,0
DA:193,0
DA:198,0
DA:199,0
DA:317,0
DA:321,0
DA:324,0
DA:328,0
DA:331,0
DA:332,0
DA:333,0
DA:334,0
DA:337,0
DA:343,0
DA:346,0
DA:347,0
DA:348,0
DA:350,0
DA:351,0
DA:353,0
DA:354,0
DA:908,0
DA:909,0
DA:1068,0
DA:1070,0
DA:1071,0
DA:1072,0
DA:1074,0
DA:1075,0
DA:1077,0
DA:1078,0
DA:1079,0
DA:1097,0
DA:1099,0
DA:1100,0
DA:1101,0
DA:1102,0
DA:1117,0
DA:1118,0
DA:1522,0
DA:1524,0
DA:1699,0
DA:1700,0
LF:49
LH:0
end_of_record
TN:
SF:/usr/include/c++/13/bits/std_mutex.h
FN:104,104,_ZNSt5mutexC2Ev
FN:111,118,_ZNSt5mutex4lockEv
FN:129,133,_ZNSt5mutex6unlockEv
FN:248,249,_ZNSt10lock_guardISt15recursive_mutexEC2ERS0_
FN:248,249,_ZNSt10lock_guardISt5mutexEC2ERS0_
FN:254,255,_ZNSt10lock_guardISt15recursive_mutexED2Ev
FN:254,255,_ZNSt10lock_guardISt5mutexED2Ev
FN:67,67,_ZNSt12__mutex_baseC2Ev
FNDA:0,_ZNSt5mutexC2Ev
FNDA:0,_ZNSt5mutex4lockEv
FNDA:0,_ZNSt5mutex6unlockEv
FNDA:0,_ZNSt10lock_guardISt15recursive_mutexEC2ERS0_
FNDA:0,_ZNSt10lock_guardISt5mutexEC2ERS0_
FNDA:0,_ZNSt10lock_guardISt15recursive_mutexED2Ev
FNDA:0,_ZNSt10lock_guardISt5mutexED2Ev
FNDA:0,_ZNSt12__mutex_baseC2Ev
FNF:8
FNH:0
BRDA:116,0,0,-
BRDA:116,0,1,-
BRF:2
BRH:0
DA:67,0
DA:104,0
DA:111,0
DA:113,0
DA:116,0
DA:117,0
DA:118,0
DA:129,0
DA:132,0
DA:133,0
DA:248,0
DA:249,0
DA:254,0
DA:255,0
LF:14
LH:0
end_of_record
TN:
SF:/usr/include/c++/13/bits/stl_algo.h
FN:3914,3925,_ZSt7find_ifISt15_Deque_iteratorIN12media_player12repositories20PlaybackHistoryEntryERS3_PS3_EZNS2_17HistoryRepository31removeMostRecentEntryByFilePathERKNSt7__cxx1112basic_stringIcSt11char_traitsIcESaIcEEEEUlRKS3_E_ET_SJ_SJ_T0_
FN:4298,4311,_ZSt9transformIN9__gnu_cxx17__normal_iteratorIPcNSt7__cxx1112basic_stringIcSt11char_traitsIcESaIcEEEEES9_PDoFiiEET0_T_SD_SC_T1_
FN:870,882,_ZSt9remove_ifISt15_Deque_iteratorIN12media_player12repositories20PlaybackHistoryEntryERS3_PS3_EZNS2_17HistoryRepository26removeAllEntriesByFilePathERKNSt7__cxx1112basic_stringIcSt11char_traitsIcESaIcEEEEUlRKS3_E_ET_SJ_SJ_T0_
FNDA:2,_ZSt7find_ifISt15_Deque_iteratorIN12media_player12repositories20PlaybackHistoryEntryERS3_PS3_EZNS2_17HistoryRepository31removeMostRecentEntryByFilePathERKNSt7__cxx1112basic_stringIcSt11char_traitsIcESaIcEEEEUlRKS3_E_ET_SJ_SJ_T0_
FNDA:0,_ZSt9transformIN9__gnu_cxx17__normal_iteratorIPcNSt7__cxx1112basic_stringIcSt11char_traitsIcESaIcEEEEES9_PDoFiiEET0_T_SD_SC_T1_
FNDA:2,_ZSt9remove_ifISt15_Deque_iteratorIN12media_player12repositories20PlaybackHistoryEntryERS3_PS3_EZNS2_17HistoryRepository26removeAllEntriesByFilePathERKNSt7__cxx1112basic_stringIcSt11char_traitsIcESaIcEEEEUlRKS3_E_ET_SJ_SJ_T0_
FNF:3
FNH:2
BRDA:881,0,0,2
BRDA:881,e0,1,0
BRDA:3924,0,0,2
BRDA:3924,e0,1,0
BRDA:4308,0,0,-
BRDA:4308,0,1,-
BRF:6
BRH:2
DA:870,2
DA:881,2
DA:3914,2
DA:3924,2
DA:4298,0
DA:4308,0
DA:4309,0
DA:4310,0
LF:8
LH:4
end_of_record
TN:
SF:/usr/include/c++/13/bits/stl_algobase.h
FN:2064,2110,_ZSt9__find_ifISt15_Deque_iteratorIN12media_player12repositories20PlaybackHistoryEntryERS3_PS3_EN9__gnu_cxx5__ops10_Iter_predIZNS2_17HistoryRepository26removeAllEntriesByFilePathERKNSt7__cxx1112basic_stringIcSt11char_traitsIcESaIcEEEEUlRKS3_E_EEET_SN_SN_T0_St26random_access_iterator_tag
FN:2064,2110,_ZSt9__find_ifISt15_Deque_iteratorIN12media_player12repositories20PlaybackHistoryEntryERS3_PS3_EN9__gnu_cxx5__ops10_Iter_predIZNS2_17HistoryRepository31removeMostRecentEntryByFilePathERKNSt7__cxx1112basic_stringIcSt11char_traitsIcESaIcEEEEUlRKS3_E_EEET_SN_SN_T0_St26random_access_iterator_tag
FN:2115,2119,_ZSt9__find_ifISt15_Deque_iteratorIN12media_player12repositories20PlaybackHistoryEntryERS3_PS3_EN9__gnu_cxx5__ops10_Iter_predIZNS2_17HistoryRepository26removeAllEntriesByFilePathERKNSt7__cxx1112basic_stringIcSt11char_traitsIcESaIcEEEEUlRKS3_E_EEET_SN_SN_T0_
FN:2115,2119,_ZSt9__find_ifISt15_Deque_iteratorIN12media_player12repositories20PlaybackHistoryEntryERS3_PS3_EN9__gnu_cxx5__ops10_Iter_predIZNS2_17HistoryRepository31removeMostRecentEntryByFilePathERKNSt7__cxx1112basic_stringIcSt11char_traitsIcESaIcEEEEUlRKS3_E_EEET_SN_SN_T0_
FN:2136,2151,_ZSt11__remove_ifISt15_Deque_iteratorIN12media_player12repositories20PlaybackHistoryEntryERS3_PS3_EN9__gnu_cxx5__ops10_Iter_predIZNS2_17HistoryRepository26removeAllEntriesByFilePathERKNSt7__cxx1112basic_stringIcSt11char_traitsIcESaIcEEEEUlRKS3_E_EEET_SN_SN_T0_
FN:233,241,_ZSt3minIlERKT_S2_S2_
FN:233,241,_ZSt3minImERKT_S2_S2_
FN:257,265,_ZSt3maxImERKT_S2_S2_
FN:316,318,_ZSt12__niter_baseIPN12media_player12repositories20PlaybackHistoryEntryEET_S4_
FN:316,318,_ZSt12__niter_baseIPN12media_player6models13PlaylistModelEET_S4_
FN:316,318,_ZSt12__niter_baseIPN12media_player6models14MediaFileModelEET_S4_
FN:316,318,_ZSt12__niter_baseIPPN12media_player12repositories20PlaybackHistoryEntryEET_S5_
FN:316,318,_ZSt12__niter_baseIPZN12media_player12repositories18PlaylistRepository19deserializePlaylistERKNSt7__cxx1112basic_stringIcSt11char_traitsIcESaIcEEEE8ItemLineET_SD_
FN:316,318,_ZSt12__niter_baseISt15_Deque_iteratorIN12media_player12repositories20PlaybackHistoryEntryERS3_PS3_EET_S7_
FN:331,332,_ZSt12__niter_wrapIN9__gnu_cxx17__normal_iteratorIPN12media_player6models14MediaFileModelESt6vectorIS4_SaIS4_EEEES5_ET_SA_T0_
FN:338,339,_ZSt12__niter_wrapIPN12media_player6models14MediaFileModelEET_RKS4_S4_
FN:338,339,_ZSt12__niter_wrapIPPN12media_player12repositories20PlaybackHistoryEntryEET_RKS5_S5_
FN:338,339,_ZSt12__niter_wrapISt15_Deque_iteratorIN12media_player12repositories20PlaybackHistoryEntryERS3_PS3_EET_RKS7_S7_
FN:383,393,_ZNSt11__copy_moveILb0ELb0ESt26random_access_iterator_tagE8__copy_mIPKN12media_player6models14MediaFileModelEPS5_EET0_T_SA_S9_
FN:383,393,_ZNSt11__copy_moveILb0ELb0ESt26random_access_iterator_tagE8__copy_mIPN12media_player6models14MediaFileModelES6_EET0_T_S8_S7_
FN:397,398,_ZNSt11__copy_moveILb0ELb0ESt26random_access_iterator_tagE12__assign_oneIPN12media_player12repositories20PlaybackHistoryEntryES6_EEvPT_PT0_
FN:408,418,_ZNSt11__copy_moveILb1ELb0ESt26random_access_iterator_tagE8__copy_mIPN12media_player12repositories20PlaybackHistoryEntryES6_EET0_T_S8_S7_
FN:433,442,_ZNSt11__copy_moveILb0ELb1ESt26random_access_iterator_tagE8__copy_mIPN12media_player12repositories20PlaybackHistoryEntryES6_EEPT0_PT_SA_S8_
FN:497,507,_ZSt14__copy_move_a2ILb0EPKN12media_player6models14MediaFileModelEPS2_ET1_T0_S7_S6_
FN:497,507,_ZSt14__copy_move_a2ILb0EPN12media_player6models14MediaFileModelES3_ET1_T0_S5_S4_
FN:497,507,_ZSt14__copy_move_a2ILb0EPPN12media_player12repositories20PlaybackHistoryEntryES4_ET1_T0_S6_S5_
FN:497,507,_ZSt14__copy_move_a2ILb1EPN12media_player12repositories20PlaybackHistoryEntryES3_ET1_T0_S5_S4_
FN:532,533,_ZSt14__copy_move_a1ILb0EPKN12media_player6models14MediaFileModelEPS2_ET1_T0_S7_S6_
FN:532,533,_ZSt14__copy_move_a1ILb0EPN12media_player6models14MediaFileModelES3_ET1_T0_S5_S4_
FN:532,533,_ZSt14__copy_move_a1ILb0EPPN12media_player12repositories20PlaybackHistoryEntryES4_ET1_T0_S6_S5_
FN:532,533,_ZSt14__copy_move_a1ILb1EPN12media_player12repositories20PlaybackHistoryEntryES3_ET1_T0_S5_S4_
FN:538,544,_ZSt13__copy_move_aILb0EN9__gnu_cxx17__normal_iteratorIPKN12media_player6models14MediaFileModelESt6vectorIS4_SaIS4_EEEENS1_IPS4_S9_EEET1_T0_SE_SD_
FN:538,544,_ZSt13__copy_move_aILb0EPN12media_player6models14MediaFileModelES3_ET1_T0_S5_S4_
FN:538,544,_ZSt13__copy_move_aILb0EPPN12media_player12repositories20PlaybackHistoryEntryES4_ET1_T0_S6_S5_
FN:538,544,_ZSt13__copy_move_aILb1ESt15_Deque_iteratorIN12media_player12repositories20PlaybackHistoryEntryERS3_PS3_ES6_ET1_T0_S8_S7_
FN:624,634,_ZSt4copyIN9__gnu_cxx17__normal_iteratorIPKN12media_player6models14MediaFileModelESt6vectorIS4_SaIS4_EEEENS1_IPS4_S9_EEET0_T_SE_SD_
FN:624,634,_ZSt4copyIPN12media_player6models14MediaFileModelES3_ET0_T_S5_S4_
FN:624,634,_ZSt4copyIPPN12media_player12repositories20PlaybackHistoryEntryES4_ET0_T_S6_S5_
FN:657,667,_ZSt4moveISt15_Deque_iteratorIN12media_player12repositories20PlaybackHistoryEntryERS3_PS3_ES6_ET0_T_S8_S7_
FN:727,734,_ZNSt20__copy_move_backwardILb1ELb0ESt26random_access_iterator_tagE13__copy_move_bIPN12media_player12repositories20PlaybackHistoryEntryES6_EET0_T_S8_S7_
FN:744,753,_ZNSt20__copy_move_backwardILb0ELb1ESt26random_access_iterator_tagE13__copy_move_bIPN12media_player12repositories20PlaybackHistoryEntryES6_EEPT0_PT_SA_S8_
FN:759,772,_ZSt23__copy_move_backward_a2ILb0EPPN12media_player12repositories20PlaybackHistoryEntryES4_ET1_T0_S6_S5_
FN:759,772,_ZSt23__copy_move_backward_a2ILb1EPN12media_player12repositories20PlaybackHistoryEntryES3_ET1_T0_S5_S4_
FN:777,778,_ZSt23__copy_move_backward_a1ILb0EPPN12media_player12repositories20PlaybackHistoryEntryES4_ET1_T0_S6_S5_
FN:777,778,_ZSt23__copy_move_backward_a1ILb1EPN12media_player12repositories20PlaybackHistoryEntryES3_ET1_T0_S5_S4_
FN:805,811,_ZSt22__copy_move_backward_aILb0EPPN12media_player12repositories20PlaybackHistoryEntryES4_ET1_T0_S6_S5_
FN:805,811,_ZSt22__copy_move_backward_aILb1ESt15_Deque_iteratorIN12media_player12repositories20PlaybackHistoryEntryERS3_PS3_ES6_ET1_T0_S8_S7_
FN:857,868,_ZSt13copy_backwardIPPN12media_player12repositories20PlaybackHistoryEntryES4_ET0_T_S6_S5_
FN:892,904,_ZSt13move_backwardISt15_Deque_iteratorIN12media_player12repositories20PlaybackHistoryEntryERS3_PS3_ES6_ET0_T_S8_S7_
FNDA:2,_ZSt9__find_ifISt15_Deque_iteratorIN12media_player12repositories20PlaybackHistoryEntryERS3_PS3_EN9__gnu_cxx5__ops10_Iter_predIZNS2_17HistoryRepository26removeAllEntriesByFilePathERKNSt7__cxx1112basic_stringIcSt11char_traitsIcESaIcEEEEUlRKS3_E_EEET_SN_SN_T0_St26random_access_iterator_tag
FNDA:2,_ZSt9__find_ifISt15_Deque_iteratorIN12media_player12repositories20PlaybackHistoryEntryERS3_PS3_EN9__gnu_cxx5__ops10_Iter_predIZNS2_17HistoryRepository31removeMostRecentEntryByFilePathERKNSt7__cxx1112basic_stringIcSt11char_traitsIcESaIcEEEEUlRKS3_E_EEET_SN_SN_T0_St26random_access_iterator_tag
FNDA:2,_ZSt9__find_ifISt15_Deque_iteratorIN12media_player12repositories20PlaybackHistoryEntryERS3_PS3_EN9__gnu_cxx5__ops10_Iter_predIZNS2_17HistoryRepository26removeAllEntriesByFilePathERKNSt7__cxx1112basic_stringIcSt11char_traitsIcESaIcEEEEUlRKS3_E_EEET_SN_SN_T0_
FNDA:2,_ZSt9__find_ifISt15_Deque_iteratorIN12media_player12repositories20PlaybackHistoryEntryERS3_PS3_EN9__gnu_cxx5__ops10_Iter_predIZNS2_17HistoryRepository31removeMostRecentEntryByFilePathERKNSt7__cxx1112basic_stringIcSt11char_traitsIcESaIcEEEEUlRKS3_E_EEET_SN_SN_T0_
FNDA:2,_ZSt11__remove_ifISt15_Deque_iteratorIN12media_player12repositories20PlaybackHistoryEntryERS3_PS3_EN9__gnu_cxx5__ops10_Iter_predIZNS2_17HistoryRepository26removeAllEntriesByFilePathERKNSt7__cxx1112basic_stringIcSt11char_traitsIcESaIcEEEEUlRKS3_E_EEET_SN_SN_T0_
FNDA:0,_ZSt3minIlERKT_S2_S2_
FNDA:0,_ZSt3minImERKT_S2_S2_
FNDA:0,_ZSt3maxImERKT_S2_S2_
FNDA:0,_ZSt12__niter_baseIPN12media_player12repositories20PlaybackHistoryEntryEET_S4_
FNDA:0,_ZSt12__niter_baseIPN12media_player6models13PlaylistModelEET_S4_
FNDA:0,_ZSt12__niter_baseIPN12media_player6models14MediaFileModelEET_S4_
FNDA:51,_ZSt12__niter_baseIPPN12media_player12repositories20PlaybackHistoryEntryEET_S5_
FNDA:18,_ZSt12__niter_baseIPZN12media_player12repositories18PlaylistRepository19deserializePlaylistERKNSt7__cxx1112basic_stringIcSt11char_traitsIcESaIcEEEE8ItemLineET_SD_
FNDA:0,_ZSt12__niter_baseISt15_Deque_iteratorIN12media_player12repositories20PlaybackHistoryEntryERS3_PS3_EET_S7_
FNDA:0,_ZSt12__niter_wrapIN9__gnu_cxx17__normal_iteratorIPN12media_player6models14MediaFileModelESt6vectorIS4_SaIS4_EEEES5_ET_SA_T0_
FNDA:0,_ZSt12__niter_wrapIPN12media_player6models14MediaFileModelEET_RKS4_S4_
FNDA:17,_ZSt12__niter_wrapIPPN12media_player12repositories20PlaybackHistoryEntryEET_RKS5_S5_
FNDA:0,_ZSt12__niter_wrapISt15_Deque_iteratorIN12media_player12repositories20PlaybackHistoryEntryERS3_PS3_EET_RKS7_S7_
FNDA:0,_ZNSt11__copy_moveILb0ELb0ESt26random_access_iterator_tagE8__copy_mIPKN12media_player6models14MediaFileModelEPS5_EET0_T_SA_S9_
FNDA:0,_ZNSt11__copy_moveILb0ELb0ESt26random_access_iterator_tagE8__copy_mIPN12media_player6models14MediaFileModelES6_EET0_T_S8_S7_
FNDA:0,_ZNSt11__copy_moveILb0ELb0ESt26random_access_iterator_tagE12__assign_oneIPN12media_player12repositories20PlaybackHistoryEntryES6_EEvPT_PT0_
FNDA:0,_ZNSt11__copy_moveILb1ELb0ESt26random_access_iterator_tagE8__copy_mIPN12media_player12repositories20PlaybackHistoryEntryES6_EET0_T_S8_S7_
FNDA:17,_ZNSt11__copy_moveILb0ELb1ESt26random_access_iterator_tagE8__copy_mIPN12media_player12repositories20PlaybackHistoryEntryES6_EEPT0_PT_SA_S8_
FNDA:0,_ZSt14__copy_move_a2ILb0EPKN12media_player6models14MediaFileModelEPS2_ET1_T0_S7_S6_
FNDA:0,_ZSt14__copy_move_a2ILb0EPN12media_player6models14MediaFileModelES3_ET1_T0_S5_S4_
FNDA:17,_ZSt14__copy_move_a2ILb0EPPN12media_player12repositories20PlaybackHistoryEntryES4_ET1_T0_S6_S5_
FNDA:0,_ZSt14__copy_move_a2ILb1EPN12media_player12repositories20PlaybackHistoryEntryES3_ET1_T0_S5_S4_
FNDA:0,_ZSt14__copy_move_a1ILb0EPKN12media_player6models14MediaFileModelEPS2_ET1_T0_S7_S6_
FNDA:0,_ZSt14__copy_move_a1ILb0EPN12media_player6models14MediaFileModelES3_ET1_T0_S5_S4_
FNDA:17,_ZSt14__copy_move_a1ILb0EPPN12media_player12repositories20PlaybackHistoryEntryES4_ET1_T0_S6_S5_
FNDA:0,_ZSt14__copy_move_a1ILb1EPN12media_player12repositories20PlaybackHistoryEntryES3_ET1_T0_S5_S4_
FNDA:0,_ZSt13__copy_move_aILb0EN9__gnu_cxx17__normal_iteratorIPKN12media_player6models14MediaFileModelESt6vectorIS4_SaIS4_EEEENS1_IPS4_S9_EEET1_T0_SE_SD_
FNDA:0,_ZSt13__copy_move_aILb0EPN12media_player6models14MediaFileModelES3_ET1_T0_S5_S4_
FNDA:17,_ZSt13__copy_move_aILb0EPPN12media_player12repositories20PlaybackHistoryEntryES4_ET1_T0_S6_S5_
FNDA:0,_ZSt13__copy_move_aILb1ESt15_Deque_iteratorIN12media_player12repositories20PlaybackHistoryEntryERS3_PS3_ES6_ET1_T0_S8_S7_
FNDA:0,_ZSt4copyIN9__gnu_cxx17__normal_iteratorIPKN12media_player6models14MediaFileModelESt6vectorIS4_SaIS4_EEEENS1_IPS4_S9_EEET0_T_SE_SD_
FNDA:0,_ZSt4copyIPN12media_player6models14MediaFileModelES3_ET0_T_S5_S4_
FNDA:17,_ZSt4copyIPPN12media_player12repositories20PlaybackHistoryEntryES4_ET0_T_S6_S5_
FNDA:0,_ZSt4moveISt15_Deque_iteratorIN12media_player12repositories20PlaybackHistoryEntryERS3_PS3_ES6_ET0_T_S8_S7_
FNDA:0,_ZNSt20__copy_move_backwardILb1ELb0ESt26random_access_iterator_tagE13__copy_move_bIPN12media_player12repositories20PlaybackHistoryEntryES6_EET0_T_S8_S7_
FNDA:0,_ZNSt20__copy_move_backwardILb0ELb1ESt26random_access_iterator_tagE13__copy_move_bIPN12media_player12repositories20PlaybackHistoryEntryES6_EEPT0_PT_SA_S8_
FNDA:0,_ZSt23__copy_move_backward_a2ILb0EPPN12media_player12repositories20PlaybackHistoryEntryES4_ET1_T0_S6_S5_
FNDA:0,_ZSt23__copy_move_backward_a2ILb1EPN12media_player12repositories20PlaybackHistoryEntryES3_ET1_T0_S5_S4_
FNDA:0,_ZSt23__copy_move_backward_a1ILb0EPPN12media_player12repositories20PlaybackHistoryEntryES4_ET1_T0_S6_S5_
FNDA:0,_ZSt23__copy_move_backward_a1ILb1EPN12media_player12repositories20PlaybackHistoryEntryES3_ET1_T0_S5_S4_
FNDA:0,_ZSt22__copy_move_backward_aILb0EPPN12media_player12repositories20PlaybackHistoryEntryES4_ET1_T0_S6_S5_
FNDA:0,_ZSt22__copy_move_backward_aILb1ESt15_Deque_iteratorIN12media_player12repositories20PlaybackHistoryEntryERS3_PS3_ES6_ET1_T0_S8_S7_
FNDA:0,_ZSt13copy_backwardIPPN12media_player12repositories20PlaybackHistoryEntryES4_ET0_T_S6_S5_
FNDA:0,_ZSt13move_backwardISt15_Deque_iteratorIN12media_player12repositories20PlaybackHistoryEntryERS3_PS3_ES6_ET0_T_S8_S7_
FNF:49
FNH:13
BRDA:238,0,0,-
BRDA:238,0,1,-
BRDA:262,0,0,-
BRDA:262,0,1,-
BRDA:386,0,0,-
BRDA:386,0,1,-
BRDA:411,0,0,-
BRDA:411,0,1,-
BRDA:436,0,0,17
BRDA:436,0,1,0
BRDA:438,0,0,-
BRDA:438,0,1,-
BRDA:543,0,0,-
BRDA:543,e0,1,-
BRDA:666,0,0,-
BRDA:666,e0,1,-
BRDA:731,0,0,-
BRDA:731,0,1,-
BRDA:747,0,0,-
BRDA:747,0,1,-
BRDA:749,0,0,-
BRDA:749,0,1,-
BRDA:810,0,0,-
BRDA:810,e0,1,-
BRDA:903,0,0,-
BRDA:903,e0,1,-
BRDA:2070,0,0,0
BRDA:2070,0,1,4
BRDA:2072,0,0,-
BRDA:2072,e0,1,-
BRDA:2072,0,2,-
BRDA:2072,0,3,-
BRDA:2076,0,0,-
BRDA:2076,e0,1,-
BRDA:2076,0,2,-
BRDA:2076,0,3,-
BRDA:2080,0,0,-
BRDA:2080,e0,1,-
BRDA:2080,0,2,-
BRDA:2080,0,3,-
BRDA:2084,0,0,-
BRDA:2084,e0,1,-
BRDA:2084,0,2,-
BRDA:2084,0,3,-
BRDA:2089,0,0,2
BRDA:2089,0,1,0
BRDA:2089,0,2,2
BRDA:2089,0,3,0
BRDA:2092,0,0,2
BRDA:2092,e0,1,0
BRDA:2092,0,2,2
BRDA:2092,0,3,0
BRDA:2097,0,0,-
BRDA:2097,e0,1,-
BRDA:2097,0,2,-
BRDA:2097,0,3,-
BRDA:2102,0,0,2
BRDA:2102,e0,1,0
BRDA:2102,0,2,0
BRDA:2102,0,3,2
BRDA:2118,0,0,4
BRDA:2118,e0,1,0
BRDA:2139,0,0,2
BRDA:2139,e0,1,0
BRDA:2140,0,0,1
BRDA:2140,0,1,1
BRDA:2144,0,0,2
BRDA:2144,0,1,1
BRDA:2145,0,0,2
BRDA:2145,e0,1,0
BRDA:2145,0,2,1
BRDA:2145,0,3,1
BRF:72
BRH:17
DA:233,0
DA:238,0
DA:239,0
DA:240,0
DA:257,0
DA:262,0
DA:263,0
DA:264,0
DA:316,69
DA:318,69
DA:331,0
DA:332,0
DA:338,17
DA:339,17
DA:383,0
DA:386,0
DA:388,0
DA:389,0
DA:390,0
DA:392,0
DA:397,0
DA:398,0
DA:408,0
DA:411,0
DA:413,0
DA:414,0
DA:415,0
DA:417,0
DA:433,17
DA:435,17
DA:436,17
DA:437,17
DA:438,0
DA:440,0
DA:441,17
DA:497,17
DA:506,17
DA:532,17
DA:533,17
DA:538,17
DA:540,17
DA:543,17
DA:624,17
DA:633,17
DA:657,0
DA:666,0
DA:727,0
DA:730,0
DA:731,0
DA:732,0
DA:733,0
DA:744,0
DA:746,0
DA:747,0
DA:748,0
DA:749,0
DA:751,0
DA:752,0
DA:759,0
DA:769,0
DA:771,0
DA:777,0
DA:778,0
DA:805,0
DA:807,0
DA:810,0
DA:857,0
DA:867,0
DA:892,0
DA:903,0
DA:2064,4
DA:2068,4
DA:2070,4
DA:2072,0
DA:2073,0
DA:2074,0
DA:2076,0
DA:2077,0
DA:2078,0
DA:2080,0
DA:2081,0
DA:2082,0
DA:2084,0
DA:2085,0
DA:2086,0
DA:2089,4
DA:2091,2
DA:2092,2
DA:2093,2
DA:2094,0
DA:2096,0
DA:2097,0
DA:2098,0
DA:2099,0
DA:2101,2
DA:2102,2
DA:2103,0
DA:2104,2
DA:2106,2
DA:2108,2
DA:2115,4
DA:2118,4
DA:2136,2
DA:2139,2
DA:2140,2
DA:2141,1
DA:2142,1
DA:2143,1
DA:2144,3
DA:2145,2
DA:2147,1
DA:2148,1
DA:2150,1
LF:113
LH:43
end_of_record
TN:
SF:/usr/include/c++/13/bits/stl_construct.h
FN:109,120,_ZSt10_ConstructIN12media_player12repositories20PlaybackHistoryEntryEJRKS2_EEvPT_DpOT0_
FN:109,120,_ZSt10_ConstructIN12media_player6models14MediaFileModelEJRKS2_EEvPT_DpOT0_
FN:109,120,_ZSt10_ConstructIN12media_player6models14MediaFileModelEJRS2_EEvPT_DpOT0_
FN:146,153,_ZSt8_DestroyIN12media_player12repositories20PlaybackHistoryEntryEEvPT_
FN:146,153,_ZSt8_DestroyIN12media_player6models13PlaylistModelEEvPT_
FN:146,153,_ZSt8_DestroyIN12media_player6models14MediaFileModelEEvPT_
FN:146,153,_ZSt8_DestroyIZN12media_player12repositories18PlaylistRepository19deserializePlaylistERKNSt7__cxx1112basic_stringIcSt11char_traitsIcESaIcEEEE8ItemLineEvPT_
FN:160,164,_ZNSt12_Destroy_auxILb0EE9__destroyIN9__gnu_cxx17__normal_iteratorIPN12media_player6models14MediaFileModelESt6vectorIS6_SaIS6_EEEEEEvT_SC_
FN:160,164,_ZNSt12_Destroy_auxILb0EE9__destroyIPN12media_player12repositories20PlaybackHistoryEntryEEEvT_S6_
FN:160,164,_ZNSt12_Destroy_auxILb0EE9__destroyIPN12media_player6models13PlaylistModelEEEvT_S6_
FN:160,164,_ZNSt12_Destroy_auxILb0EE9__destroyIPN12media_player6models14MediaFileModelEEEvT_S6_
FN:160,164,_ZNSt12_Destroy_auxILb0EE9__destroyIPZN12media_player12repositories18PlaylistRepository19deserializePlaylistERKNSt7__cxx1112basic_stringIcSt11char_traitsIcESaIcEEEE8ItemLineEEvT_SF_
FN:182,197,_ZSt8_DestroyIN9__gnu_cxx17__normal_iteratorIPN12media_player6models14MediaFileModelESt6vectorIS4_SaIS4_EEEEEvT_SA_
FN:182,197,_ZSt8_DestroyIPN12media_player12repositories20PlaybackHistoryEntryEEvT_S4_
FN:182,197,_ZSt8_DestroyIPN12media_player6models13PlaylistModelEEvT_S4_
FN:182,197,_ZSt8_DestroyIPN12media_player6models14MediaFileModelEEvT_S4_
FN:182,197,_ZSt8_DestroyIPZN12media_player12repositories18PlaylistRepository19deserializePlaylistERKNSt7__cxx1112basic_stringIcSt11char_traitsIcESaIcEEEE8ItemLineEvT_SD_
FNDA:317,_ZSt10_ConstructIN12media_player12repositories20PlaybackHistoryEntryEJRKS2_EEvPT_DpOT0_
FNDA:0,_ZSt10_ConstructIN12media_player6models14MediaFileModelEJRKS2_EEvPT_DpOT0_
FNDA:0,_ZSt10_ConstructIN12media_player6models14MediaFileModelEJRS2_EEvPT_DpOT0_
FNDA:0,_ZSt8_DestroyIN12media_player12repositories20PlaybackHistoryEntryEEvPT_
FNDA:0,_ZSt8_DestroyIN12media_player6models13PlaylistModelEEvPT_
FNDA:0,_ZSt8_DestroyIN12media_player6models14MediaFileModelEEvPT_
FNDA:3,_ZSt8_DestroyIZN12media_player12repositories18PlaylistRepository19deserializePlaylistERKNSt7__cxx1112basic_stringIcSt11char_traitsIcESaIcEEEE8ItemLineEvPT_
FNDA:0,_ZNSt12_Destroy_auxILb0EE9__destroyIN9__gnu_cxx17__normal_iteratorIPN12media_player6models14MediaFileModelESt6vectorIS6_SaIS6_EEEEEEvT_SC_
FNDA:0,_ZNSt12_Destroy_auxILb0EE9__destroyIPN12media_player12repositories20PlaybackHistoryEntryEEEvT_S6_
FNDA:0,_ZNSt12_Destroy_auxILb0EE9__destroyIPN12media_player6models13PlaylistModelEEEvT_S6_
FNDA:0,_ZNSt12_Destroy_auxILb0EE9__destroyIPN12media_player6models14MediaFileModelEEEvT_S6_
FNDA:3,_ZNSt12_Destroy_auxILb0EE9__destroyIPZN12media_player12repositories18PlaylistRepository19deserializePlaylistERKNSt7__cxx1112basic_stringIcSt11char_traitsIcESaIcEEEE8ItemLineEEvT_SF_
FNDA:0,_ZSt8_DestroyIN9__gnu_cxx17__normal_iteratorIPN12media_player6models14MediaFileModelESt6vectorIS4_SaIS4_EEEEEvT_SA_
FNDA:0,_ZSt8_DestroyIPN12media_player12repositories20PlaybackHistoryEntryEEvT_S4_
FNDA:0,_ZSt8_DestroyIPN12media_player6models13PlaylistModelEEvT_S4_
FNDA:0,_ZSt8_DestroyIPN12media_player6models14MediaFileModelEEvT_S4_
FNDA:3,_ZSt8_DestroyIPZN12media_player12repositories18PlaylistRepository19deserializePlaylistERKNSt7__cxx1112basic_stringIcSt11char_traitsIcESaIcEEEE8ItemLineEvT_SD_
FNF:17
FNH:4
BRDA:119,0,0,317
BRDA:119,e0,1,0
BRDA:119,0,2,0
BRDA:119,0,3,0
BRDA:162,0,0,3
BRDA:162,0,1,3
BRF:6
BRH:3
DA:109,317
DA:119,317
DA:120,317
DA:146,3
DA:151,3
DA:153,3
DA:160,3
DA:162,6
DA:163,3
DA:164,3
DA:182,3
DA:196,3
DA:197,3
LF:13
LH:13
end_of_record
TN:
SF:/usr/include/c++/13/bits/stl_deque.h
FN:1027,1028,_ZNSt5dequeIN12media_player12repositories20PlaybackHistoryEntryESaIS2_EED2Ev
FN:1151,1152,_ZNSt5dequeIN12media_player12repositories20PlaybackHistoryEntryESaIS2_EE5beginEv
FN:1160,1161,_ZNKSt5dequeIN12media_player12repositories20PlaybackHistoryEntryESaIS2_EE5beginEv
FN:1170,1171,_ZNSt5dequeIN12media_player12repositories20PlaybackHistoryEntryESaIS2_EE3endEv
FN:1180,1181,_ZNKSt5dequeIN12media_player12repositories20PlaybackHistoryEntryESaIS2_EE3endEv
FN:1268,1269,_ZNKSt5dequeIN12media_player12repositories20PlaybackHistoryEntryESaIS2_EE4sizeEv
FN:1274,1275,_ZNKSt5dequeIN12media_player12repositories20PlaybackHistoryEntryESaIS2_EE8max_sizeEv
FN:131,132,_ZNSt15_Deque_iteratorIN12media_player12repositories20PlaybackHistoryEntryERKS2_PS3_E14_S_buffer_sizeEv
FN:131,132,_ZNSt15_Deque_iteratorIN12media_player12repositories20PlaybackHistoryEntryERS2_PS2_E14_S_buffer_sizeEv
FN:1347,1348,_ZNKSt5dequeIN12media_player12repositories20PlaybackHistoryEntryESaIS2_EE5emptyEv
FN:1383,1387,_ZNKSt5dequeIN12media_player12repositories20PlaybackHistoryEntryESaIS2_EEixEm
FN:1444,1448,_ZNSt5dequeIN12media_player12repositories20PlaybackHistoryEntryESaIS2_EE5frontEv
FN:1456,1460,_ZNKSt5dequeIN12media_player12repositories20PlaybackHistoryEntryESaIS2_EE5frontEv
FN:147,149,_ZNSt15_Deque_iteratorIN12media_player12repositories20PlaybackHistoryEntryERS2_PS2_EC2ES4_PS4_
FN:151,152,_ZNSt15_Deque_iteratorIN12media_player12repositories20PlaybackHistoryEntryERS2_PS2_EC2Ev
FN:1516,1517,_ZNSt5dequeIN12media_player12repositories20PlaybackHistoryEntryESaIS2_EE10push_frontEOS2_
FN:1538,1549,_ZNSt5dequeIN12media_player12repositories20PlaybackHistoryEntryESaIS2_EE9push_backERKS2_
FN:1574,1586,_ZNSt5dequeIN12media_player12repositories20PlaybackHistoryEntryESaIS2_EE9pop_frontEv
FN:1597,1609,_ZNSt5dequeIN12media_player12repositories20PlaybackHistoryEntryESaIS2_EE8pop_backEv
FN:164,166,_ZNSt15_Deque_iteratorIN12media_player12repositories20PlaybackHistoryEntryERKS2_PS3_EC2IS_IS2_RS2_PS2_EvEERKT_
FN:168,170,_ZNSt15_Deque_iteratorIN12media_player12repositories20PlaybackHistoryEntryERKS2_PS3_EC2ERKS6_
FN:168,170,_ZNSt15_Deque_iteratorIN12media_player12repositories20PlaybackHistoryEntryERS2_PS2_EC2ERKS5_
FN:176,177,_ZNKSt15_Deque_iteratorIN12media_player12repositories20PlaybackHistoryEntryERKS2_PS3_E13_M_const_castEv
FN:1775,1779,_ZNSt5dequeIN12media_player12repositories20PlaybackHistoryEntryESaIS2_EE5eraseESt15_Deque_iteratorIS2_RKS2_PS6_E
FN:1799,1803,_ZNSt5dequeIN12media_player12repositories20PlaybackHistoryEntryESaIS2_EE5eraseESt15_Deque_iteratorIS2_RKS2_PS6_ES9_
FN:181,182,_ZNKSt15_Deque_iteratorIN12media_player12repositories20PlaybackHistoryEntryERKS2_PS3_EdeEv
FN:181,182,_ZNKSt15_Deque_iteratorIN12media_player12repositories20PlaybackHistoryEntryERS2_PS2_EdeEv
FN:1835,1836,_ZNSt5dequeIN12media_player12repositories20PlaybackHistoryEntryESaIS2_EE5clearEv
FN:1876,1881,_ZNSt5dequeIN12media_player12repositories20PlaybackHistoryEntryESaIS2_EE11_S_max_sizeERKS3_
FN:190,199,_ZNSt15_Deque_iteratorIN12media_player12repositories20PlaybackHistoryEntryERKS2_PS3_EppEv
FN:190,199,_ZNSt15_Deque_iteratorIN12media_player12repositories20PlaybackHistoryEntryERS2_PS2_EppEv
FN:2087,2092,_ZNSt5dequeIN12media_player12repositories20PlaybackHistoryEntryESaIS2_EE15_M_destroy_dataESt15_Deque_iteratorIS2_RS2_PS2_ES8_RKS3_
FN:2096,2101,_ZNSt5dequeIN12media_player12repositories20PlaybackHistoryEntryESaIS2_EE17_M_erase_at_beginESt15_Deque_iteratorIS2_RS2_PS2_E
FN:2106,2112,_ZNSt5dequeIN12media_player12repositories20PlaybackHistoryEntryESaIS2_EE15_M_erase_at_endESt15_Deque_iteratorIS2_RS2_PS2_E
FN:2168,2173,_ZNSt5dequeIN12media_player12repositories20PlaybackHistoryEntryESaIS2_EE22_M_reserve_map_at_backEm
FN:2176,2181,_ZNSt5dequeIN12media_player12repositories20PlaybackHistoryEntryESaIS2_EE23_M_reserve_map_at_frontEm
FN:230,246,_ZNSt15_Deque_iteratorIN12media_player12repositories20PlaybackHistoryEntryERS2_PS2_EpLEl
FN:249,250,_ZNSt15_Deque_iteratorIN12media_player12repositories20PlaybackHistoryEntryERS2_PS2_EmIEl
FN:254,255,_ZNKSt15_Deque_iteratorIN12media_player12repositories20PlaybackHistoryEntryERS2_PS2_EixEl
FN:263,268,_ZNSt15_Deque_iteratorIN12media_player12repositories20PlaybackHistoryEntryERKS2_PS3_E11_M_set_nodeEPPS2_
FN:263,268,_ZNSt15_Deque_iteratorIN12media_player12repositories20PlaybackHistoryEntryERS2_PS2_E11_M_set_nodeEPS4_
FN:272,273,_ZSteqRKSt15_Deque_iteratorIN12media_player12repositories20PlaybackHistoryEntryERKS2_PS3_ES8_
FN:272,273,_ZSteqRKSt15_Deque_iteratorIN12media_player12repositories20PlaybackHistoryEntryERS2_PS2_ES7_
FN:298,299,_ZStneRKSt15_Deque_iteratorIN12media_player12repositories20PlaybackHistoryEntryERKS2_PS3_ES8_
FN:298,299,_ZStneRKSt15_Deque_iteratorIN12media_player12repositories20PlaybackHistoryEntryERS2_PS2_ES7_
FN:370,376,_ZStmiRKSt15_Deque_iteratorIN12media_player12repositories20PlaybackHistoryEntryERKS2_PS3_ES8_
FN:370,376,_ZStmiRKSt15_Deque_iteratorIN12media_player12repositories20PlaybackHistoryEntryERS2_PS2_ES7_
FN:397,402,_ZStplRKSt15_Deque_iteratorIN12media_player12repositories20PlaybackHistoryEntryERS2_PS2_El
FN:406,411,_ZStmiRKSt15_Deque_iteratorIN12media_player12repositories20PlaybackHistoryEntryERS2_PS2_El
FN:458,460,_ZNSt11_Deque_baseIN12media_player12repositories20PlaybackHistoryEntryESaIS2_EEC2Ev
FN:516,518,_ZNSt11_Deque_baseIN12media_player12repositories20PlaybackHistoryEntryESaIS2_EE16_Deque_impl_dataC2Ev
FN:545,548,_ZNSt11_Deque_baseIN12media_player12repositories20PlaybackHistoryEntryESaIS2_EE11_Deque_implC2Ev
FN:568,569,_ZNSt11_Deque_baseIN12media_player12repositories20PlaybackHistoryEntryESaIS2_EE19_M_get_Tp_allocatorEv
FN:572,573,_ZNKSt11_Deque_baseIN12media_player12repositories20PlaybackHistoryEntryESaIS2_EE19_M_get_Tp_allocatorEv
FN:576,577,_ZNKSt11_Deque_baseIN12media_player12repositories20PlaybackHistoryEntryESaIS2_EE20_M_get_map_allocatorEv
FN:580,584,_ZNSt11_Deque_baseIN12media_player12repositories20PlaybackHistoryEntryESaIS2_EE16_M_allocate_nodeEv
FN:587,591,_ZNSt11_Deque_baseIN12media_player12repositories20PlaybackHistoryEntryESaIS2_EE18_M_deallocate_nodeEPS2_
FN:594,598,_ZNSt11_Deque_baseIN12media_player12repositories20PlaybackHistoryEntryESaIS2_EE15_M_allocate_mapEm
FN:601,605,_ZNSt11_Deque_baseIN12media_player12repositories20PlaybackHistoryEntryESaIS2_EE17_M_deallocate_mapEPPS2_m
FN:617,626,_ZNSt11_Deque_baseIN12media_player12repositories20PlaybackHistoryEntryESaIS2_EED2Ev
FN:638,673,_ZNSt11_Deque_baseIN12media_player12repositories20PlaybackHistoryEntryESaIS2_EE17_M_initialize_mapEm
FN:677,691,_ZNSt11_Deque_baseIN12media_player12repositories20PlaybackHistoryEntryESaIS2_EE15_M_create_nodesEPPS2_S6_
FN:695,701,_ZNSt11_Deque_baseIN12media_player12repositories20PlaybackHistoryEntryESaIS2_EE16_M_destroy_nodesEPPS2_S6_
FN:828,829,_ZNSt5dequeIN12media_player12repositories20PlaybackHistoryEntryESaIS2_EE14_S_buffer_sizeEv
FN:855,855,_ZNSt5dequeIN12media_player12repositories20PlaybackHistoryEntryESaIS2_EEC2Ev
FN:96,98,_ZSt16__deque_buf_sizem
FNDA:78,_ZNSt5dequeIN12media_player12repositories20PlaybackHistoryEntryESaIS2_EED2Ev
FNDA:284,_ZNSt5dequeIN12media_player12repositories20PlaybackHistoryEntryESaIS2_EE5beginEv
FNDA:56,_ZNKSt5dequeIN12media_player12repositories20PlaybackHistoryEntryESaIS2_EE5beginEv
FNDA:238,_ZNSt5dequeIN12media_player12repositories20PlaybackHistoryEntryESaIS2_EE3endEv
FNDA:55,_ZNKSt5dequeIN12media_player12repositories20PlaybackHistoryEntryESaIS2_EE3endEv
FNDA:503,_ZNKSt5dequeIN12media_player12repositories20PlaybackHistoryEntryESaIS2_EE4sizeEv
FNDA:321,_ZNKSt5dequeIN12media_player12repositories20PlaybackHistoryEntryESaIS2_EE8max_sizeEv
FNDA:203,_ZNSt15_Deque_iteratorIN12media_player12repositories20PlaybackHistoryEntryERKS2_PS3_E14_S_buffer_sizeEv
FNDA:1384,_ZNSt15_Deque_iteratorIN12media_player12repositories20PlaybackHistoryEntryERS2_PS2_E14_S_buffer_sizeEv
FNDA:2,_ZNKSt5dequeIN12media_player12repositories20PlaybackHistoryEntryESaIS2_EE5emptyEv
FNDA:11,_ZNKSt5dequeIN12media_player12repositories20PlaybackHistoryEntryESaIS2_EEixEm
FNDA:48,_ZNSt5dequeIN12media_player12repositories20PlaybackHistoryEntryESaIS2_EE5frontEv
FNDA:1,_ZNKSt5dequeIN12media_player12repositories20PlaybackHistoryEntryESaIS2_EE5frontEv
FNDA:3,_ZNSt15_Deque_iteratorIN12media_player12repositories20PlaybackHistoryEntryERS2_PS2_EC2ES4_PS4_
FNDA:156,_ZNSt15_Deque_iteratorIN12media_player12repositories20PlaybackHistoryEntryERS2_PS2_EC2Ev
FNDA:48,_ZNSt5dequeIN12media_player12repositories20PlaybackHistoryEntryESaIS2_EE10push_frontEOS2_
FNDA:614,_ZNSt5dequeIN12media_player12repositories20PlaybackHistoryEntryESaIS2_EE9push_backERKS2_
FNDA:1,_ZNSt5dequeIN12media_player12repositories20PlaybackHistoryEntryESaIS2_EE9pop_frontEv
FNDA:1,_ZNSt5dequeIN12media_player12repositories20PlaybackHistoryEntryESaIS2_EE8pop_backEv
FNDA:114,_ZNSt15_Deque_iteratorIN12media_player12repositories20PlaybackHistoryEntryERKS2_PS3_EC2IS_IS2_RS2_PS2_EvEERKT_
FNDA:728,_ZNSt15_Deque_iteratorIN12media_player12repositories20PlaybackHistoryEntryERKS2_PS3_EC2ERKS6_
FNDA:861,_ZNSt15_Deque_iteratorIN12media_player12repositories20PlaybackHistoryEntryERS2_PS2_EC2ERKS5_
FNDA:3,_ZNKSt15_Deque_iteratorIN12media_player12repositories20PlaybackHistoryEntryERKS2_PS3_E13_M_const_castEv
FNDA:1,_ZNSt5dequeIN12media_player12repositories20PlaybackHistoryEntryESaIS2_EE5eraseESt15_Deque_iteratorIS2_RKS2_PS6_E
FNDA:1,_ZNSt5dequeIN12media_player12repositories20PlaybackHistoryEntryESaIS2_EE5eraseESt15_Deque_iteratorIS2_RKS2_PS6_ES9_
FNDA:320,_ZNKSt15_Deque_iteratorIN12media_player12repositories20PlaybackHistoryEntryERKS2_PS3_EdeEv
FNDA:719,_ZNKSt15_Deque_iteratorIN12media_player12repositories20PlaybackHistoryEntryERS2_PS2_EdeEv
FNDA:44,_ZNSt5dequeIN12media_player12repositories20PlaybackHistoryEntryESaIS2_EE5clearEv
FNDA:321,_ZNSt5dequeIN12media_player12repositories20PlaybackHistoryEntryESaIS2_EE11_S_max_sizeERKS3_
FNDA:318,_ZNSt15_Deque_iteratorIN12media_player12repositories20PlaybackHistoryEntryERKS2_PS3_EppEv
FNDA:659,_ZNSt15_Deque_iteratorIN12media_player12repositories20PlaybackHistoryEntryERS2_PS2_EppEv
FNDA:123,_ZNSt5dequeIN12media_player12repositories20PlaybackHistoryEntryESaIS2_EE15_M_destroy_dataESt15_Deque_iteratorIS2_RS2_PS2_ES8_RKS3_
FNDA:0,_ZNSt5dequeIN12media_player12repositories20PlaybackHistoryEntryESaIS2_EE17_M_erase_at_beginESt15_Deque_iteratorIS2_RS2_PS2_E
FNDA:45,_ZNSt5dequeIN12media_player12repositories20PlaybackHistoryEntryESaIS2_EE15_M_erase_at_endESt15_Deque_iteratorIS2_RS2_PS2_E
FNDA:287,_ZNSt5dequeIN12media_player12repositories20PlaybackHistoryEntryESaIS2_EE22_M_reserve_map_at_backEm
FNDA:34,_ZNSt5dequeIN12media_player12repositories20PlaybackHistoryEntryESaIS2_EE23_M_reserve_map_at_frontEm
FNDA:14,_ZNSt15_Deque_iteratorIN12media_player12repositories20PlaybackHistoryEntryERS2_PS2_EpLEl
FNDA:1,_ZNSt15_Deque_iteratorIN12media_player12repositories20PlaybackHistoryEntryERS2_PS2_EmIEl
FNDA:11,_ZNKSt15_Deque_iteratorIN12media_player12repositories20PlaybackHistoryEntryERS2_PS2_EixEl
FNDA:151,_ZNSt15_Deque_iteratorIN12media_player12repositories20PlaybackHistoryEntryERKS2_PS3_E11_M_set_nodeEPPS2_
FNDA:842,_ZNSt15_Deque_iteratorIN12media_player12repositories20PlaybackHistoryEntryERS2_PS2_E11_M_set_nodeEPS4_
FNDA:373,_ZSteqRKSt15_Deque_iteratorIN12media_player12repositories20PlaybackHistoryEntryERKS2_PS3_ES8_
FNDA:771,_ZSteqRKSt15_Deque_iteratorIN12media_player12repositories20PlaybackHistoryEntryERS2_PS2_ES7_
FNDA:373,_ZStneRKSt15_Deque_iteratorIN12media_player12repositories20PlaybackHistoryEntryERKS2_PS3_ES8_
FNDA:765,_ZStneRKSt15_Deque_iteratorIN12media_player12repositories20PlaybackHistoryEntryERS2_PS2_ES7_
FNDA:52,_ZStmiRKSt15_Deque_iteratorIN12media_player12repositories20PlaybackHistoryEntryERKS2_PS3_ES8_
FNDA:514,_ZStmiRKSt15_Deque_iteratorIN12media_player12repositories20PlaybackHistoryEntryERS2_PS2_ES7_
FNDA:13,_ZStplRKSt15_Deque_iteratorIN12media_player12repositories20PlaybackHistoryEntryERS2_PS2_El
FNDA:1,_ZStmiRKSt15_Deque_iteratorIN12media_player12repositories20PlaybackHistoryEntryERS2_PS2_El
FNDA:78,_ZNSt11_Deque_baseIN12media_player12repositories20PlaybackHistoryEntryESaIS2_EEC2Ev
FNDA:78,_ZNSt11_Deque_baseIN12media_player12repositories20PlaybackHistoryEntryESaIS2_EE16_Deque_impl_dataC2Ev
FNDA:78,_ZNSt11_Deque_baseIN12media_player12repositories20PlaybackHistoryEntryESaIS2_EE11_Deque_implC2Ev
FNDA:567,_ZNSt11_Deque_baseIN12media_player12repositories20PlaybackHistoryEntryESaIS2_EE19_M_get_Tp_allocatorEv
FNDA:511,_ZNKSt11_Deque_baseIN12media_player12repositories20PlaybackHistoryEntryESaIS2_EE19_M_get_Tp_allocatorEv
FNDA:190,_ZNKSt11_Deque_baseIN12media_player12repositories20PlaybackHistoryEntryESaIS2_EE20_M_get_map_allocatorEv
FNDA:399,_ZNSt11_Deque_baseIN12media_player12repositories20PlaybackHistoryEntryESaIS2_EE16_M_allocate_nodeEv
FNDA:399,_ZNSt11_Deque_baseIN12media_player12repositories20PlaybackHistoryEntryESaIS2_EE18_M_deallocate_nodeEPS2_
FNDA:95,_ZNSt11_Deque_baseIN12media_player12repositories20PlaybackHistoryEntryESaIS2_EE15_M_allocate_mapEm
FNDA:95,_ZNSt11_Deque_baseIN12media_player12repositories20PlaybackHistoryEntryESaIS2_EE17_M_deallocate_mapEPPS2_m
FNDA:78,_ZNSt11_Deque_baseIN12media_player12repositories20PlaybackHistoryEntryESaIS2_EED2Ev
FNDA:78,_ZNSt11_Deque_baseIN12media_player12repositories20PlaybackHistoryEntryESaIS2_EE17_M_initialize_mapEm
FNDA:78,_ZNSt11_Deque_baseIN12media_player12repositories20PlaybackHistoryEntryESaIS2_EE15_M_create_nodesEPPS2_S6_
FNDA:123,_ZNSt11_Deque_baseIN12media_player12repositories20PlaybackHistoryEntryESaIS2_EE16_M_destroy_nodesEPPS2_S6_
FNDA:239,_ZNSt5dequeIN12media_player12repositories20PlaybackHistoryEntryESaIS2_EE14_S_buffer_sizeEv
FNDA:78,_ZNSt5dequeIN12media_player12repositories20PlaybackHistoryEntryESaIS2_EEC2Ev
FNDA:0,_ZSt16__deque_buf_sizem
FNF:66
FNH:64
BRDA:98,0,0,-
BRDA:98,0,1,-
BRDA:193,0,0,474
BRDA:193,0,1,503
BRDA:233,0,0,13
BRDA:233,0,1,1
BRDA:233,0,2,8
BRDA:233,0,3,5
BRDA:233,0,4,8
BRDA:233,0,5,6
BRDA:238,0,0,5
BRDA:238,0,1,1
BRDA:460,0,0,78
BRDA:460,e0,1,0
BRDA:620,0,0,78
BRDA:620,0,1,0
BRDA:658,0,0,78
BRDA:658,e0,1,0
BRDA:683,0,0,78
BRDA:683,0,1,78
BRDA:684,0,0,78
BRDA:684,e0,1,0
BRDA:699,0,0,397
BRDA:699,0,1,123
BRDA:1541,0,0,327
BRDA:1541,0,1,287
BRDA:1578,0,0,0
BRDA:1578,0,1,1
BRDA:1601,0,0,0
BRDA:1601,0,1,1
BRDA:1779,0,0,1
BRDA:1779,e0,1,0
BRDA:1803,0,0,1
BRDA:1803,e0,1,0
BRDA:2091,0,0,123
BRDA:2091,e0,1,0
BRDA:2098,0,0,-
BRDA:2098,e0,1,-
BRDA:2108,0,0,45
BRDA:2108,e0,1,0
BRDA:2171,0,0,17
BRDA:2171,0,1,270
BRDA:2179,0,0,0
BRDA:2179,0,1,34
BRF:44
BRH:29
DA:96,0
DA:98,0
DA:131,1587
DA:132,1587
DA:147,3
DA:148,3
DA:149,3
DA:151,156
DA:152,156
DA:164,114
DA:165,114
DA:166,114
DA:168,1589
DA:169,1589
DA:170,1589
DA:176,3
DA:177,3
DA:181,1039
DA:182,1039
DA:190,977
DA:192,977
DA:193,977
DA:195,474
DA:196,474
DA:198,977
DA:230,14
DA:232,14
DA:233,14
DA:234,8
DA:237,6
DA:238,6
DA:239,2
DA:240,1
DA:241,6
DA:242,12
DA:243,6
DA:245,14
DA:249,1
DA:250,1
DA:254,11
DA:255,11
DA:263,993
DA:265,993
DA:266,993
DA:267,993
DA:268,993
DA:272,1144
DA:273,1144
DA:298,1138
DA:299,1138
DA:370,566
DA:372,566
DA:373,566
DA:374,566
DA:375,566
DA:397,13
DA:399,13
DA:400,13
DA:401,13
DA:406,1
DA:408,1
DA:409,1
DA:410,1
DA:458,78
DA:459,78
DA:460,78
DA:516,78
DA:517,78
DA:518,78
DA:545,78
DA:547,78
DA:548,78
DA:568,567
DA:569,567
DA:572,511
DA:573,511
DA:576,190
DA:577,380
DA:580,399
DA:583,798
DA:587,399
DA:590,399
DA:591,399
DA:594,95
DA:596,95
DA:597,190
DA:601,95
DA:603,95
DA:605,95
DA:617,78
DA:620,78
DA:622,78
DA:623,78
DA:624,78
DA:626,78
DA:638,78
DA:641,78
DA:644,156
DA:645,78
DA:646,78
DA:653,78
DA:654,78
DA:655,78
DA:658,78
DA:659,0
DA:661,0
DA:662,0
DA:663,0
DA:664,0
DA:667,78
DA:668,78
DA:669,78
DA:670,156
DA:671,78
DA:672,78
DA:673,78
DA:677,78
DA:683,156
DA:684,78
DA:686,0
DA:688,0
DA:689,0
DA:691,78
DA:695,123
DA:699,520
DA:700,397
DA:701,123
DA:828,239
DA:829,239
DA:855,78
DA:1027,78
DA:1028,78
DA:1151,284
DA:1152,284
DA:1160,56
DA:1161,56
DA:1170,238
DA:1171,238
DA:1180,55
DA:1181,55
DA:1268,503
DA:1269,503
DA:1274,321
DA:1275,321
DA:1347,2
DA:1348,2
DA:1383,11
DA:1386,11
DA:1444,48
DA:1447,48
DA:1456,1
DA:1459,1
DA:1516,48
DA:1517,48
DA:1538,614
DA:1540,614
DA:1541,614
DA:1543,327
DA:1545,327
DA:1548,287
DA:1549,614
DA:1574,1
DA:1577,1
DA:1578,1
DA:1580,0
DA:1582,0
DA:1585,1
DA:1586,1
DA:1597,1
DA:1600,1
DA:1601,1
DA:1603,0
DA:1604,0
DA:1608,1
DA:1609,1
DA:1775,1
DA:1779,1
DA:1799,1
DA:1803,1
DA:1835,44
DA:1836,44
DA:1876,321
DA:1878,321
DA:1879,321
DA:1880,321
DA:2087,123
DA:2091,123
DA:2092,123
DA:2096,0
DA:2098,0
DA:2099,0
DA:2100,0
DA:2101,0
DA:2106,45
DA:2108,45
DA:2109,45
DA:2110,45
DA:2111,45
DA:2112,45
DA:2168,287
DA:2170,287
DA:2171,287
DA:2172,17
DA:2173,287
DA:2176,34
DA:2178,34
DA:2179,34
DA:2180,0
DA:2181,34
LF:209
LH:189
end_of_record
TN:
SF:/usr/include/c++/13/bits/stl_function.h
FN:1182,1183,_ZNKSt10_Select1stISt4pairIKNSt7__cxx1112basic_stringIcSt11char_traitsIcESaIcEEEN12media_player6models13PlaylistModelEEEclERKSB_
FN:1182,1183,_ZNKSt10_Select1stISt4pairIKNSt7__cxx1112basic_stringIcSt11char_traitsIcESaIcEEEN12media_player6models14MediaFileModelEEEclERKSB_
FN:407,408,_ZNKSt4lessINSt7__cxx1112basic_stringIcSt11char_traitsIcESaIcEEEEclERKS5_S8_
FN:451,458,_ZNKSt4lessIPSt16_Sp_counted_baseILN9__gnu_cxx12_Lock_policyE2EEEclES4_S4_
FNDA:127,_ZNKSt10_Select1stISt4pairIKNSt7__cxx1112basic_stringIcSt11char_traitsIcESaIcEEEN12media_player6models13PlaylistModelEEEclERKSB_
FNDA:121,_ZNKSt10_Select1stISt4pairIKNSt7__cxx1112basic_stringIcSt11char_traitsIcESaIcEEEN12media_player6models14MediaFileModelEEEclERKSB_
FNDA:0,_ZNKSt4lessINSt7__cxx1112basic_stringIcSt11char_traitsIcESaIcEEEEclERKS5_S8_
FNDA:0,_ZNKSt4lessIPSt16_Sp_counted_baseILN9__gnu_cxx12_Lock_policyE2EEEclES4_S4_
FNF:4
FNH:2
BRDA:454,0,0,-
BRDA:454,0,1,-
BRF:2
BRH:0
DA:407,0
DA:408,0
DA:451,0
DA:454,0
DA:455,0
DA:457,0
DA:1182,248
DA:1183,248
LF:8
LH:2
end_of_record
TN:
SF:/usr/include/c++/13/bits/stl_iterator.h
FN:1076,1077,_ZN9__gnu_cxx17__normal_iteratorIPKN12media_player12repositories20PlaybackHistoryEntryESt6vectorIS3_SaIS3_EEEC2ERKS5_
FN:1076,1077,_ZN9__gnu_cxx17__normal_iteratorIPKN12media_player6models13PlaylistModelESt6vectorIS3_SaIS3_EEEC2ERKS5_
FN:1076,1077,_ZN9__gnu_cxx17__normal_iteratorIPKN12media_player6models14MediaFileModelESt6vectorIS3_SaIS3_EEEC2ERKS5_
FN:1076,1077,_ZN9__gnu_cxx17__normal_iteratorIPN12media_player12repositories20PlaybackHistoryEntryESt6vectorIS3_SaIS3_EEEC2ERKS4_
FN:1076,1077,_ZN9__gnu_cxx17__normal_iteratorIPN12media_player6models13PlaylistModelESt6vectorIS3_SaIS3_EEEC2ERKS4_
FN:1076,1077,_ZN9__gnu_cxx17__normal_iteratorIPN12media_player6models14MediaFileModelESt6vectorIS3_SaIS3_EEEC2ERKS4_
FN:1076,1077,_ZN9__gnu_cxx17__normal_iteratorIPZN12media_player12repositories18PlaylistRepository19deserializePlaylistERKNSt7__cxx1112basic_stringIcSt11char_traitsIcESaIcEEEE8ItemLineSt6vectorISC_SaISC_EEEC2ERKSD_
FN:1099,1100,_ZNK9__gnu_cxx17__normal_iteratorIPKN12media_player12repositories20PlaybackHistoryEntryESt6vectorIS3_SaIS3_EEEdeEv
FN:1099,1100,_ZNK9__gnu_cxx17__normal_iteratorIPKN12media_player6models13PlaylistModelESt6vectorIS3_SaIS3_EEEdeEv
FN:1099,1100,_ZNK9__gnu_cxx17__normal_iteratorIPKN12media_player6models14MediaFileModelESt6vectorIS3_SaIS3_EEEdeEv
FN:1099,1100,_ZNK9__gnu_cxx17__normal_iteratorIPN12media_player6models14MediaFileModelESt6vectorIS3_SaIS3_EEEdeEv
FN:1099,1100,_ZNK9__gnu_cxx17__normal_iteratorIPZN12media_player12repositories18PlaylistRepository19deserializePlaylistERKNSt7__cxx1112basic_stringIcSt11char_traitsIcESaIcEEEE8ItemLineSt6vectorISC_SaISC_EEEdeEv
FN:1099,1100,_ZNK9__gnu_cxx17__normal_iteratorIPcNSt7__cxx1112basic_stringIcSt11char_traitsIcESaIcEEEEdeEv
FN:1109,1113,_ZN9__gnu_cxx17__normal_iteratorIPKN12media_player12repositories20PlaybackHistoryEntryESt6vectorIS3_SaIS3_EEEppEv
FN:1109,1113,_ZN9__gnu_cxx17__normal_iteratorIPKN12media_player6models13PlaylistModelESt6vectorIS3_SaIS3_EEEppEv
FN:1109,1113,_ZN9__gnu_cxx17__normal_iteratorIPKN12media_player6models14MediaFileModelESt6vectorIS3_SaIS3_EEEppEv
FN:1109,1113,_ZN9__gnu_cxx17__normal_iteratorIPN12media_player6models14MediaFileModelESt6vectorIS3_SaIS3_EEEppEv
FN:1109,1113,_ZN9__gnu_cxx17__normal_iteratorIPZN12media_player12repositories18PlaylistRepository19deserializePlaylistERKNSt7__cxx1112basic_stringIcSt11char_traitsIcESaIcEEEE8ItemLineSt6vectorISC_SaISC_EEEppEv
FN:1109,1113,_ZN9__gnu_cxx17__normal_iteratorIPcNSt7__cxx1112basic_stringIcSt11char_traitsIcESaIcEEEEppEv
FN:1147,1148,_ZNK9__gnu_cxx17__normal_iteratorIPN12media_player6models14MediaFileModelESt6vectorIS3_SaIS3_EEEplEl
FN:1162,1163,_ZNK9__gnu_cxx17__normal_iteratorIPKN12media_player12repositories20PlaybackHistoryEntryESt6vectorIS3_SaIS3_EEE4baseEv
FN:1162,1163,_ZNK9__gnu_cxx17__normal_iteratorIPKN12media_player6models13PlaylistModelESt6vectorIS3_SaIS3_EEE4baseEv
FN:1162,1163,_ZNK9__gnu_cxx17__normal_iteratorIPKN12media_player6models14MediaFileModelESt6vectorIS3_SaIS3_EEE4baseEv
FN:1162,1163,_ZNK9__gnu_cxx17__normal_iteratorIPN12media_player12repositories20PlaybackHistoryEntryESt6vectorIS3_SaIS3_EEE4baseEv
FN:1162,1163,_ZNK9__gnu_cxx17__normal_iteratorIPN12media_player6models13PlaylistModelESt6vectorIS3_SaIS3_EEE4baseEv
FN:1162,1163,_ZNK9__gnu_cxx17__normal_iteratorIPN12media_player6models14MediaFileModelESt6vectorIS3_SaIS3_EEE4baseEv
FN:1162,1163,_ZNK9__gnu_cxx17__normal_iteratorIPZN12media_player12repositories18PlaylistRepository19deserializePlaylistERKNSt7__cxx1112basic_stringIcSt11char_traitsIcESaIcEEEE8ItemLineSt6vectorISC_SaISC_EEE4baseEv
FN:1162,1163,_ZNK9__gnu_cxx17__normal_iteratorIPcNSt7__cxx1112basic_stringIcSt11char_traitsIcESaIcEEEE4baseEv
FN:1241,1244,_ZN9__gnu_cxxneIPKN12media_player12repositories20PlaybackHistoryEntryESt6vectorIS3_SaIS3_EEEEbRKNS_17__normal_iteratorIT_T0_EESE_
FN:1241,1244,_ZN9__gnu_cxxneIPKN12media_player6models13PlaylistModelESt6vectorIS3_SaIS3_EEEEbRKNS_17__normal_iteratorIT_T0_EESE_
FN:1241,1244,_ZN9__gnu_cxxneIPKN12media_player6models14MediaFileModelESt6vectorIS3_SaIS3_EEEEbRKNS_17__normal_iteratorIT_T0_EESE_
FN:1241,1244,_ZN9__gnu_cxxneIPN12media_player6models14MediaFileModelESt6vectorIS3_SaIS3_EEEEbRKNS_17__normal_iteratorIT_T0_EESD_
FN:1241,1244,_ZN9__gnu_cxxneIPZN12media_player12repositories18PlaylistRepository19deserializePlaylistERKNSt7__cxx1112basic_stringIcSt11char_traitsIcESaIcEEEE8ItemLineSt6vectorISC_SaISC_EEEEbRKNS_17__normal_iteratorIT_T0_EESM_
FN:1241,1244,_ZN9__gnu_cxxneIPcNSt7__cxx1112basic_stringIcSt11char_traitsIcESaIcEEEEEbRKNS_17__normal_iteratorIT_T0_EESD_
FN:1334,1337,_ZN9__gnu_cxxmiIPN12media_player12repositories20PlaybackHistoryEntryESt6vectorIS3_SaIS3_EEEENS_17__normal_iteratorIT_T0_E15difference_typeERKSB_SE_
FN:1334,1337,_ZN9__gnu_cxxmiIPN12media_player6models13PlaylistModelESt6vectorIS3_SaIS3_EEEENS_17__normal_iteratorIT_T0_E15difference_typeERKSB_SE_
FN:1334,1337,_ZN9__gnu_cxxmiIPN12media_player6models14MediaFileModelESt6vectorIS3_SaIS3_EEEENS_17__normal_iteratorIT_T0_E15difference_typeERKSB_SE_
FN:1334,1337,_ZN9__gnu_cxxmiIPZN12media_player12repositories18PlaylistRepository19deserializePlaylistERKNSt7__cxx1112basic_stringIcSt11char_traitsIcESaIcEEEE8ItemLineSt6vectorISC_SaISC_EEEENS_17__normal_iteratorIT_T0_E15difference_typeERKSK_SN_
FN:1357,1359,_ZSt12__niter_baseIPKN12media_player6models14MediaFileModelESt6vectorIS2_SaIS2_EEET_N9__gnu_cxx17__normal_iteratorIS8_T0_EE
FN:1357,1359,_ZSt12__niter_baseIPN12media_player6models14MediaFileModelESt6vectorIS2_SaIS2_EEET_N9__gnu_cxx17__normal_iteratorIS7_T0_EE
FNDA:0,_ZN9__gnu_cxx17__normal_iteratorIPKN12media_player12repositories20PlaybackHistoryEntryESt6vectorIS3_SaIS3_EEEC2ERKS5_
FNDA:0,_ZN9__gnu_cxx17__normal_iteratorIPKN12media_player6models13PlaylistModelESt6vectorIS3_SaIS3_EEEC2ERKS5_
FNDA:0,_ZN9__gnu_cxx17__normal_iteratorIPKN12media_player6models14MediaFileModelESt6vectorIS3_SaIS3_EEEC2ERKS5_
FNDA:0,_ZN9__gnu_cxx17__normal_iteratorIPN12media_player12repositories20PlaybackHistoryEntryESt6vectorIS3_SaIS3_EEEC2ERKS4_
FNDA:0,_ZN9__gnu_cxx17__normal_iteratorIPN12media_player6models13PlaylistModelESt6vectorIS3_SaIS3_EEEC2ERKS4_
FNDA:0,_ZN9__gnu_cxx17__normal_iteratorIPN12media_player6models14MediaFileModelESt6vectorIS3_SaIS3_EEEC2ERKS4_
FNDA:12,_ZN9__gnu_cxx17__normal_iteratorIPZN12media_player12repositories18PlaylistRepository19deserializePlaylistERKNSt7__cxx1112basic_stringIcSt11char_traitsIcESaIcEEEE8ItemLineSt6vectorISC_SaISC_EEEC2ERKSD_
FNDA:308,_ZNK9__gnu_cxx17__normal_iteratorIPKN12media_player12repositories20PlaybackHistoryEntryESt6vectorIS3_SaIS3_EEEdeEv
FNDA:2,_ZNK9__gnu_cxx17__normal_iteratorIPKN12media_player6models13PlaylistModelESt6vectorIS3_SaIS3_EEEdeEv
FNDA:0,_ZNK9__gnu_cxx17__normal_iteratorIPKN12media_player6models14MediaFileModelESt6vectorIS3_SaIS3_EEEdeEv
FNDA:0,_ZNK9__gnu_cxx17__normal_iteratorIPN12media_player6models14MediaFileModelESt6vectorIS3_SaIS3_EEEdeEv
FNDA:3,_ZNK9__gnu_cxx17__normal_iteratorIPZN12media_player12repositories18PlaylistRepository19deserializePlaylistERKNSt7__cxx1112basic_stringIcSt11char_traitsIcESaIcEEEE8ItemLineSt6vectorISC_SaISC_EEEdeEv
FNDA:0,_ZNK9__gnu_cxx17__normal_iteratorIPcNSt7__cxx1112basic_stringIcSt11char_traitsIcESaIcEEEEdeEv
FNDA:308,_ZN9__gnu_cxx17__normal_iteratorIPKN12media_player12repositories20PlaybackHistoryEntryESt6vectorIS3_SaIS3_EEEppEv
FNDA:2,_ZN9__gnu_cxx17__normal_iteratorIPKN12media_player6models13PlaylistModelESt6vectorIS3_SaIS3_EEEppEv
FNDA:0,_ZN9__gnu_cxx17__normal_iteratorIPKN12media_player6models14MediaFileModelESt6vectorIS3_SaIS3_EEEppEv
FNDA:0,_ZN9__gnu_cxx17__normal_iteratorIPN12media_player6models14MediaFileModelESt6vectorIS3_SaIS3_EEEppEv
FNDA:3,_ZN9__gnu_cxx17__normal_iteratorIPZN12media_player12repositories18PlaylistRepository19deserializePlaylistERKNSt7__cxx1112basic_stringIcSt11char_traitsIcESaIcEEEE8ItemLineSt6vectorISC_SaISC_EEEppEv
FNDA:0,_ZN9__gnu_cxx17__normal_iteratorIPcNSt7__cxx1112basic_stringIcSt11char_traitsIcESaIcEEEEppEv
FNDA:0,_ZNK9__gnu_cxx17__normal_iteratorIPN12media_player6models14MediaFileModelESt6vectorIS3_SaIS3_EEEplEl
FNDA:0,_ZNK9__gnu_cxx17__normal_iteratorIPKN12media_player12repositories20PlaybackHistoryEntryESt6vectorIS3_SaIS3_EEE4baseEv
FNDA:0,_ZNK9__gnu_cxx17__normal_iteratorIPKN12media_player6models13PlaylistModelESt6vectorIS3_SaIS3_EEE4baseEv
FNDA:0,_ZNK9__gnu_cxx17__normal_iteratorIPKN12media_player6models14MediaFileModelESt6vectorIS3_SaIS3_EEE4baseEv
FNDA:0,_ZNK9__gnu_cxx17__normal_iteratorIPN12media_player12repositories20PlaybackHistoryEntryESt6vectorIS3_SaIS3_EEE4baseEv
FNDA:0,_ZNK9__gnu_cxx17__normal_iteratorIPN12media_player6models13PlaylistModelESt6vectorIS3_SaIS3_EEE4baseEv
FNDA:0,_ZNK9__gnu_cxx17__normal_iteratorIPN12media_player6models14MediaFileModelESt6vectorIS3_SaIS3_EEE4baseEv
FNDA:24,_ZNK9__gnu_cxx17__normal_iteratorIPZN12media_player12repositories18PlaylistRepository19deserializePlaylistERKNSt7__cxx1112basic_stringIcSt11char_traitsIcESaIcEEEE8ItemLineSt6vectorISC_SaISC_EEE4baseEv
FNDA:0,_ZNK9__gnu_cxx17__normal_iteratorIPcNSt7__cxx1112basic_stringIcSt11char_traitsIcESaIcEEEE4baseEv
FNDA:351,_ZN9__gnu_cxxneIPKN12media_player12repositories20PlaybackHistoryEntryESt6vectorIS3_SaIS3_EEEEbRKNS_17__normal_iteratorIT_T0_EESE_
FNDA:4,_ZN9__gnu_cxxneIPKN12media_player6models13PlaylistModelESt6vectorIS3_SaIS3_EEEEbRKNS_17__normal_iteratorIT_T0_EESE_
FNDA:0,_ZN9__gnu_cxxneIPKN12media_player6models14MediaFileModelESt6vectorIS3_SaIS3_EEEEbRKNS_17__normal_iteratorIT_T0_EESE_
FNDA:0,_ZN9__gnu_cxxneIPN12media_player6models14MediaFileModelESt6vectorIS3_SaIS3_EEEEbRKNS_17__normal_iteratorIT_T0_EESD_
FNDA:6,_ZN9__gnu_cxxneIPZN12media_player12repositories18PlaylistRepository19deserializePlaylistERKNSt7__cxx1112basic_stringIcSt11char_traitsIcESaIcEEEE8ItemLineSt6vectorISC_SaISC_EEEEbRKNS_17__normal_iteratorIT_T0_EESM_
FNDA:0,_ZN9__gnu_cxxneIPcNSt7__cxx1112basic_stringIcSt11char_traitsIcESaIcEEEEEbRKNS_17__normal_iteratorIT_T0_EESD_
FNDA:0,_ZN9__gnu_cxxmiIPN12media_player12repositories20PlaybackHistoryEntryESt6vectorIS3_SaIS3_EEEENS_17__normal_iteratorIT_T0_E15difference_typeERKSB_SE_
FNDA:0,_ZN9__gnu_cxxmiIPN12media_player6models13PlaylistModelESt6vectorIS3_SaIS3_EEEENS_17__normal_iteratorIT_T0_E15difference_typeERKSB_SE_
FNDA:0,_ZN9__gnu_cxxmiIPN12media_player6models14MediaFileModelESt6vectorIS3_SaIS3_EEEENS_17__normal_iteratorIT_T0_E15difference_typeERKSB_SE_
FNDA:3,_ZN9__gnu_cxxmiIPZN12media_player12repositories18PlaylistRepository19deserializePlaylistERKNSt7__cxx1112basic_stringIcSt11char_traitsIcESaIcEEEE8ItemLineSt6vectorISC_SaISC_EEEENS_17__normal_iteratorIT_T0_E15difference_typeERKSK_SN_
FNDA:0,_ZSt12__niter_baseIPKN12media_player6models14MediaFileModelESt6vectorIS2_SaIS2_EEET_N9__gnu_cxx17__normal_iteratorIS8_T0_EE
FNDA:0,_ZSt12__niter_baseIPN12media_player6models14MediaFileModelESt6vectorIS2_SaIS2_EEET_N9__gnu_cxx17__normal_iteratorIS7_T0_EE
FNF:40
FNH:12
DA:1076,12
DA:1077,12
DA:1099,313
DA:1100,313
DA:1109,313
DA:1111,313
DA:1112,313
DA:1147,0
DA:1148,0
DA:1162,24
DA:1163,24
DA:1241,361
DA:1244,361
DA:1334,3
DA:1337,3
DA:1357,0
DA:1359,0
LF:17
LH:13
end_of_record
TN:
SF:/usr/include/c++/13/bits/stl_iterator_base_funcs.h
FNF:0
FNH:0
DA:106,0
DA:151,0
DA:152,0
LF:3
LH:0
end_of_record
TN:
SF:/usr/include/c++/13/bits/stl_iterator_base_types.h
FNF:0
FNH:0
DA:240,0
LF:1
LH:0
end_of_record
TN:
SF:/usr/include/c++/13/bits/stl_map.h
FN:1087,1088,_ZNSt3mapINSt7__cxx1112basic_stringIcSt11char_traitsIcESaIcEEEN12media_player6models13PlaylistModelESt4lessIS5_ESaISt4pairIKS5_S8_EEE5eraseB5cxx11ESt17_Rb_tree_iteratorISD_E
FN:1087,1088,_ZNSt3mapINSt7__cxx1112basic_stringIcSt11char_traitsIcESaIcEEEN12media_player6models14MediaFileModelESt4lessIS5_ESaISt4pairIKS5_S8_EEE5eraseB5cxx11ESt17_Rb_tree_iteratorISD_E
FN:1183,1184,_ZNSt3mapINSt7__cxx1112basic_stringIcSt11char_traitsIcESaIcEEEN12media_player6models13PlaylistModelESt4lessIS5_ESaISt4pairIKS5_S8_EEE5clearEv
FN:1183,1184,_ZNSt3mapINSt7__cxx1112basic_stringIcSt11char_traitsIcESaIcEEEN12media_player6models14MediaFileModelESt4lessIS5_ESaISt4pairIKS5_S8_EEE5clearEv
FN:1192,1193,_ZNKSt3mapINSt7__cxx1112basic_stringIcSt11char_traitsIcESaIcEEEN12media_player6models13PlaylistModelESt4lessIS5_ESaISt4pairIKS5_S8_EEE8key_compEv
FN:1192,1193,_ZNKSt3mapINSt7__cxx1112basic_stringIcSt11char_traitsIcESaIcEEEN12media_player6models14MediaFileModelESt4lessIS5_ESaISt4pairIKS5_S8_EEE8key_compEv
FN:1219,1220,_ZNSt3mapINSt7__cxx1112basic_stringIcSt11char_traitsIcESaIcEEEN12media_player6models13PlaylistModelESt4lessIS5_ESaISt4pairIKS5_S8_EEE4findERSC_
FN:1219,1220,_ZNSt3mapINSt7__cxx1112basic_stringIcSt11char_traitsIcESaIcEEEN12media_player6models14MediaFileModelESt4lessIS5_ESaISt4pairIKS5_S8_EEE4findERSC_
FN:1308,1309,_ZNSt3mapINSt7__cxx1112basic_stringIcSt11char_traitsIcESaIcEEEN12media_player6models13PlaylistModelESt4lessIS5_ESaISt4pairIKS5_S8_EEE11lower_boundERSC_
FN:1308,1309,_ZNSt3mapINSt7__cxx1112basic_stringIcSt11char_traitsIcESaIcEEEN12media_player6models14MediaFileModelESt4lessIS5_ESaISt4pairIKS5_S8_EEE11lower_boundERSC_
FN:197,197,_ZNSt3mapINSt7__cxx1112basic_stringIcSt11char_traitsIcESaIcEEEN12media_player6models13PlaylistModelESt4lessIS5_ESaISt4pairIKS5_S8_EEEC2Ev
FN:197,197,_ZNSt3mapINSt7__cxx1112basic_stringIcSt11char_traitsIcESaIcEEEN12media_player6models14MediaFileModelESt4lessIS5_ESaISt4pairIKS5_S8_EEEC2Ev
FN:314,314,_ZNSt3mapINSt7__cxx1112basic_stringIcSt11char_traitsIcESaIcEEEN12media_player6models13PlaylistModelESt4lessIS5_ESaISt4pairIKS5_S8_EEED2Ev
FN:314,314,_ZNSt3mapINSt7__cxx1112basic_stringIcSt11char_traitsIcESaIcEEEN12media_player6models14MediaFileModelESt4lessIS5_ESaISt4pairIKS5_S8_EEED2Ev
FN:368,369,_ZNSt3mapINSt7__cxx1112basic_stringIcSt11char_traitsIcESaIcEEEN12media_player6models13PlaylistModelESt4lessIS5_ESaISt4pairIKS5_S8_EEE5beginEv
FN:368,369,_ZNSt3mapINSt7__cxx1112basic_stringIcSt11char_traitsIcESaIcEEEN12media_player6models14MediaFileModelESt4lessIS5_ESaISt4pairIKS5_S8_EEE5beginEv
FN:377,378,_ZNKSt3mapINSt7__cxx1112basic_stringIcSt11char_traitsIcESaIcEEEN12media_player6models14MediaFileModelESt4lessIS5_ESaISt4pairIKS5_S8_EEE5beginEv
FN:386,387,_ZNSt3mapINSt7__cxx1112basic_stringIcSt11char_traitsIcESaIcEEEN12media_player6models13PlaylistModelESt4lessIS5_ESaISt4pairIKS5_S8_EEE3endEv
FN:386,387,_ZNSt3mapINSt7__cxx1112basic_stringIcSt11char_traitsIcESaIcEEEN12media_player6models14MediaFileModelESt4lessIS5_ESaISt4pairIKS5_S8_EEE3endEv
FN:395,396,_ZNKSt3mapINSt7__cxx1112basic_stringIcSt11char_traitsIcESaIcEEEN12media_player6models14MediaFileModelESt4lessIS5_ESaISt4pairIKS5_S8_EEE3endEv
FN:482,483,_ZNKSt3mapINSt7__cxx1112basic_stringIcSt11char_traitsIcESaIcEEEN12media_player6models13PlaylistModelESt4lessIS5_ESaISt4pairIKS5_S8_EEE4sizeEv
FN:482,483,_ZNKSt3mapINSt7__cxx1112basic_stringIcSt11char_traitsIcESaIcEEEN12media_player6models14MediaFileModelESt4lessIS5_ESaISt4pairIKS5_S8_EEE4sizeEv
FN:504,520,_ZNSt3mapINSt7__cxx1112basic_stringIcSt11char_traitsIcESaIcEEEN12media_player6models13PlaylistModelESt4lessIS5_ESaISt4pairIKS5_S8_EEEixERSC_
FN:504,520,_ZNSt3mapINSt7__cxx1112basic_stringIcSt11char_traitsIcESaIcEEEN12media_player6models14MediaFileModelESt4lessIS5_ESaISt4pairIKS5_S8_EEEixERSC_
FN:524,536,_ZNSt3mapINSt7__cxx1112basic_stringIcSt11char_traitsIcESaIcEEEN12media_player6models13PlaylistModelESt4lessIS5_ESaISt4pairIKS5_S8_EEEixEOS5_
FNDA:3,_ZNSt3mapINSt7__cxx1112basic_stringIcSt11char_traitsIcESaIcEEEN12media_player6models13PlaylistModelESt4lessIS5_ESaISt4pairIKS5_S8_EEE5eraseB5cxx11ESt17_Rb_tree_iteratorISD_E
FNDA:1,_ZNSt3mapINSt7__cxx1112basic_stringIcSt11char_traitsIcESaIcEEEN12media_player6models14MediaFileModelESt4lessIS5_ESaISt4pairIKS5_S8_EEE5eraseB5cxx11ESt17_Rb_tree_iteratorISD_E
FNDA:2,_ZNSt3mapINSt7__cxx1112basic_stringIcSt11char_traitsIcESaIcEEEN12media_player6models13PlaylistModelESt4lessIS5_ESaISt4pairIKS5_S8_EEE5clearEv
FNDA:1,_ZNSt3mapINSt7__cxx1112basic_stringIcSt11char_traitsIcESaIcEEEN12media_player6models14MediaFileModelESt4lessIS5_ESaISt4pairIKS5_S8_EEE5clearEv
FNDA:9,_ZNKSt3mapINSt7__cxx1112basic_stringIcSt11char_traitsIcESaIcEEEN12media_player6models13PlaylistModelESt4lessIS5_ESaISt4pairIKS5_S8_EEE8key_compEv
FNDA:4,_ZNKSt3mapINSt7__cxx1112basic_stringIcSt11char_traitsIcESaIcEEEN12media_player6models14MediaFileModelESt4lessIS5_ESaISt4pairIKS5_S8_EEE8key_compEv
FNDA:35,_ZNSt3mapINSt7__cxx1112basic_stringIcSt11char_traitsIcESaIcEEEN12media_player6models13PlaylistModelESt4lessIS5_ESaISt4pairIKS5_S8_EEE4findERSC_
FNDA:8,_ZNSt3mapINSt7__cxx1112basic_stringIcSt11char_traitsIcESaIcEEEN12media_player6models14MediaFileModelESt4lessIS5_ESaISt4pairIKS5_S8_EEE4findERSC_
FNDA:40,_ZNSt3mapINSt7__cxx1112basic_stringIcSt11char_traitsIcESaIcEEEN12media_player6models13PlaylistModelESt4lessIS5_ESaISt4pairIKS5_S8_EEE11lower_boundERSC_
FNDA:42,_ZNSt3mapINSt7__cxx1112basic_stringIcSt11char_traitsIcESaIcEEEN12media_player6models14MediaFileModelESt4lessIS5_ESaISt4pairIKS5_S8_EEE11lower_boundERSC_
FNDA:34,_ZNSt3mapINSt7__cxx1112basic_stringIcSt11char_traitsIcESaIcEEEN12media_player6models13PlaylistModelESt4lessIS5_ESaISt4pairIKS5_S8_EEEC2Ev
FNDA:58,_ZNSt3mapINSt7__cxx1112basic_stringIcSt11char_traitsIcESaIcEEEN12media_player6models14MediaFileModelESt4lessIS5_ESaISt4pairIKS5_S8_EEEC2Ev
FNDA:34,_ZNSt3mapINSt7__cxx1112basic_stringIcSt11char_traitsIcESaIcEEEN12media_player6models13PlaylistModelESt4lessIS5_ESaISt4pairIKS5_S8_EEED2Ev
FNDA:58,_ZNSt3mapINSt7__cxx1112basic_stringIcSt11char_traitsIcESaIcEEEN12media_player6models14MediaFileModelESt4lessIS5_ESaISt4pairIKS5_S8_EEED2Ev
FNDA:55,_ZNSt3mapINSt7__cxx1112basic_stringIcSt11char_traitsIcESaIcEEEN12media_player6models13PlaylistModelESt4lessIS5_ESaISt4pairIKS5_S8_EEE5beginEv
FNDA:72,_ZNSt3mapINSt7__cxx1112basic_stringIcSt11char_traitsIcESaIcEEEN12media_player6models14MediaFileModelESt4lessIS5_ESaISt4pairIKS5_S8_EEE5beginEv
FNDA:5,_ZNKSt3mapINSt7__cxx1112basic_stringIcSt11char_traitsIcESaIcEEEN12media_player6models14MediaFileModelESt4lessIS5_ESaISt4pairIKS5_S8_EEE5beginEv
FNDA:130,_ZNSt3mapINSt7__cxx1112basic_stringIcSt11char_traitsIcESaIcEEEN12media_player6models13PlaylistModelESt4lessIS5_ESaISt4pairIKS5_S8_EEE3endEv
FNDA:122,_ZNSt3mapINSt7__cxx1112basic_stringIcSt11char_traitsIcESaIcEEEN12media_player6models14MediaFileModelESt4lessIS5_ESaISt4pairIKS5_S8_EEE3endEv
FNDA:5,_ZNKSt3mapINSt7__cxx1112basic_stringIcSt11char_traitsIcESaIcEEEN12media_player6models14MediaFileModelESt4lessIS5_ESaISt4pairIKS5_S8_EEE3endEv
FNDA:17,_ZNKSt3mapINSt7__cxx1112basic_stringIcSt11char_traitsIcESaIcEEEN12media_player6models13PlaylistModelESt4lessIS5_ESaISt4pairIKS5_S8_EEE4sizeEv
FNDA:75,_ZNKSt3mapINSt7__cxx1112basic_stringIcSt11char_traitsIcESaIcEEEN12media_player6models14MediaFileModelESt4lessIS5_ESaISt4pairIKS5_S8_EEE4sizeEv
FNDA:37,_ZNSt3mapINSt7__cxx1112basic_stringIcSt11char_traitsIcESaIcEEEN12media_player6models13PlaylistModelESt4lessIS5_ESaISt4pairIKS5_S8_EEEixERSC_
FNDA:42,_ZNSt3mapINSt7__cxx1112basic_stringIcSt11char_traitsIcESaIcEEEN12media_player6models14MediaFileModelESt4lessIS5_ESaISt4pairIKS5_S8_EEEixERSC_
FNDA:3,_ZNSt3mapINSt7__cxx1112basic_stringIcSt11char_traitsIcESaIcEEEN12media_player6models13PlaylistModelESt4lessIS5_ESaISt4pairIKS5_S8_EEEixEOS5_
FNF:25
FNH:25
BRDA:509,0,0,79
BRDA:509,e0,1,0
BRDA:511,0,0,13
BRDA:511,0,1,66
BRDA:511,0,2,13
BRDA:511,e0,3,0
BRDA:511,0,4,4
BRDA:511,0,5,9
BRDA:511,0,6,70
BRDA:511,0,7,9
BRDA:513,0,0,70
BRDA:513,e0,1,0
BRDA:529,0,0,3
BRDA:529,e0,1,0
BRDA:531,0,0,0
BRDA:531,0,1,3
BRDA:531,0,2,0
BRDA:531,e0,3,0
BRDA:531,0,4,0
BRDA:531,0,5,0
BRDA:531,0,6,3
BRDA:531,0,7,0
BRDA:532,0,0,3
BRDA:532,e0,1,0
BRF:24
BRH:13
DA:197,92
DA:314,92
DA:368,127
DA:369,127
DA:377,5
DA:378,5
DA:386,252
DA:387,252
DA:395,5
DA:396,5
DA:482,92
DA:483,92
DA:504,79
DA:509,79
DA:511,79
DA:513,70
DA:514,70
DA:515,70
DA:519,158
DA:524,3
DA:529,3
DA:531,3
DA:532,3
DA:533,3
DA:534,3
DA:535,6
DA:1087,4
DA:1088,4
DA:1183,3
DA:1184,3
DA:1192,13
DA:1193,13
DA:1219,43
DA:1220,43
DA:1308,82
DA:1309,82
LF:36
LH:36
end_of_record
TN:
SF:/usr/include/c++/13/bits/stl_pair.h
FN:558,559,_ZNSt4pairIPSt18_Rb_tree_node_baseS1_EC2IS1_S1_Lb1EEERKS1_S5_
FN:687,689,_ZNSt4pairIPSt18_Rb_tree_node_baseS1_EC2IRPSt13_Rb_tree_nodeIS_IKNSt7__cxx1112basic_stringIcSt11char_traitsIcESaIcEEEN12media_player6models13PlaylistModelEEERS1_Lb1EEEOT_OT0_
FN:687,689,_ZNSt4pairIPSt18_Rb_tree_node_baseS1_EC2IRPSt13_Rb_tree_nodeIS_IKNSt7__cxx1112basic_stringIcSt11char_traitsIcESaIcEEEN12media_player6models14MediaFileModelEEERS1_Lb1EEEOT_OT0_
FN:687,689,_ZNSt4pairIPSt18_Rb_tree_node_baseS1_EC2IRS1_S4_Lb1EEEOT_OT0_
FNDA:0,_ZNSt4pairIPSt18_Rb_tree_node_baseS1_EC2IS1_S1_Lb1EEERKS1_S5_
FNDA:24,_ZNSt4pairIPSt18_Rb_tree_node_baseS1_EC2IRPSt13_Rb_tree_nodeIS_IKNSt7__cxx1112basic_stringIcSt11char_traitsIcESaIcEEEN12media_player6models13PlaylistModelEEERS1_Lb1EEEOT_OT0_
FNDA:23,_ZNSt4pairIPSt18_Rb_tree_node_baseS1_EC2IRPSt13_Rb_tree_nodeIS_IKNSt7__cxx1112basic_stringIcSt11char_traitsIcESaIcEEEN12media_player6models14MediaFileModelEEERS1_Lb1EEEOT_OT0_
FNDA:0,_ZNSt4pairIPSt18_Rb_tree_node_baseS1_EC2IRS1_S4_Lb1EEEOT_OT0_
FNF:4
FNH:2
DA:558,0
DA:559,0
DA:687,47
DA:688,47
DA:689,47
LF:5
LH:3
end_of_record
TN:
SF:/usr/include/c++/13/bits/stl_tree.h
FN:1001,1002,_ZNKSt8_Rb_treeINSt7__cxx1112basic_stringIcSt11char_traitsIcESaIcEEESt4pairIKS5_N12media_player6models14MediaFileModelEESt10_Select1stISB_ESt4lessIS5_ESaISB_EE5beginEv
FN:1005,1006,_ZNSt8_Rb_treeINSt7__cxx1112basic_stringIcSt11char_traitsIcESaIcEEESt4pairIKS5_N12media_player6models13PlaylistModelEESt10_Select1stISB_ESt4lessIS5_ESaISB_EE3endEv
FN:1005,1006,_ZNSt8_Rb_treeINSt7__cxx1112basic_stringIcSt11char_traitsIcESaIcEEESt4pairIKS5_N12media_player6models14MediaFileModelEESt10_Select1stISB_ESt4lessIS5_ESaISB_EE3endEv
FN:1009,1010,_ZNKSt8_Rb_treeINSt7__cxx1112basic_stringIcSt11char_traitsIcESaIcEEESt4pairIKS5_N12media_player6models14MediaFileModelEESt10_Select1stISB_ESt4lessIS5_ESaISB_EE3endEv
FN:1033,1034,_ZNKSt8_Rb_treeINSt7__cxx1112basic_stringIcSt11char_traitsIcESaIcEEESt4pairIKS5_N12media_player6models13PlaylistModelEESt10_Select1stISB_ESt4lessIS5_ESaISB_EE4sizeEv
FN:1033,1034,_ZNKSt8_Rb_treeINSt7__cxx1112basic_stringIcSt11char_traitsIcESaIcEEESt4pairIKS5_N12media_player6models14MediaFileModelEESt10_Select1stISB_ESt4lessIS5_ESaISB_EE4sizeEv
FN:1205,1212,_ZNSt8_Rb_treeINSt7__cxx1112basic_stringIcSt11char_traitsIcESaIcEEESt4pairIKS5_N12media_player6models13PlaylistModelEESt10_Select1stISB_ESt4lessIS5_ESaISB_EE5eraseB5cxx11ESt17_Rb_tree_iteratorISB_E
FN:1205,1212,_ZNSt8_Rb_treeINSt7__cxx1112basic_stringIcSt11char_traitsIcESaIcEEESt4pairIKS5_N12media_player6models14MediaFileModelEESt10_Select1stISB_ESt4lessIS5_ESaISB_EE5eraseB5cxx11ESt17_Rb_tree_iteratorISB_E
FN:1253,1257,_ZNSt8_Rb_treeINSt7__cxx1112basic_stringIcSt11char_traitsIcESaIcEEESt4pairIKS5_N12media_player6models13PlaylistModelEESt10_Select1stISB_ESt4lessIS5_ESaISB_EE5clearEv
FN:1253,1257,_ZNSt8_Rb_treeINSt7__cxx1112basic_stringIcSt11char_traitsIcESaIcEEESt4pairIKS5_N12media_player6models14MediaFileModelEESt10_Select1stISB_ESt4lessIS5_ESaISB_EE5clearEv
FN:1270,1271,_ZNSt8_Rb_treeINSt7__cxx1112basic_stringIcSt11char_traitsIcESaIcEEESt4pairIKS5_N12media_player6models13PlaylistModelEESt10_Select1stISB_ESt4lessIS5_ESaISB_EE11lower_boundERS7_
FN:1270,1271,_ZNSt8_Rb_treeINSt7__cxx1112basic_stringIcSt11char_traitsIcESaIcEEESt4pairIKS5_N12media_player6models14MediaFileModelEESt10_Select1stISB_ESt4lessIS5_ESaISB_EE11lower_boundERS7_
FN:146,150,_ZNSt20_Rb_tree_key_compareISt4lessINSt7__cxx1112basic_stringIcSt11char_traitsIcESaIcEEEEEC2Ev
FN:1635,1638,_ZNSt8_Rb_treeINSt7__cxx1112basic_stringIcSt11char_traitsIcESaIcEEESt4pairIKS5_N12media_player6models13PlaylistModelEESt10_Select1stISB_ESt4lessIS5_ESaISB_EE10_Auto_nodeC2IJRKSt21piecewise_construct_tSt5tupleIJOS5_EESN_IJEEEEERSH_DpOT_
FN:1635,1638,_ZNSt8_Rb_treeINSt7__cxx1112basic_stringIcSt11char_traitsIcESaIcEEESt4pairIKS5_N12media_player6models13PlaylistModelEESt10_Select1stISB_ESt4lessIS5_ESaISB_EE10_Auto_nodeC2IJRKSt21piecewise_construct_tSt5tupleIJRS7_EESN_IJEEEEERSH_DpOT_
FN:1635,1638,_ZNSt8_Rb_treeINSt7__cxx1112basic_stringIcSt11char_traitsIcESaIcEEESt4pairIKS5_N12media_player6models14MediaFileModelEESt10_Select1stISB_ESt4lessIS5_ESaISB_EE10_Auto_nodeC2IJRKSt21piecewise_construct_tSt5tupleIJRS7_EESN_IJEEEEERSH_DpOT_
FN:1640,1644,_ZNSt8_Rb_treeINSt7__cxx1112basic_stringIcSt11char_traitsIcESaIcEEESt4pairIKS5_N12media_player6models13PlaylistModelEESt10_Select1stISB_ESt4lessIS5_ESaISB_EE10_Auto_nodeD2Ev
FN:1640,1644,_ZNSt8_Rb_treeINSt7__cxx1112basic_stringIcSt11char_traitsIcESaIcEEESt4pairIKS5_N12media_player6models14MediaFileModelEESt10_Select1stISB_ESt4lessIS5_ESaISB_EE10_Auto_nodeD2Ev
FN:1651,1652,_ZNKSt8_Rb_treeINSt7__cxx1112basic_stringIcSt11char_traitsIcESaIcEEESt4pairIKS5_N12media_player6models13PlaylistModelEESt10_Select1stISB_ESt4lessIS5_ESaISB_EE10_Auto_node6_M_keyEv
FN:1651,1652,_ZNKSt8_Rb_treeINSt7__cxx1112basic_stringIcSt11char_traitsIcESaIcEEESt4pairIKS5_N12media_player6models14MediaFileModelEESt10_Select1stISB_ESt4lessIS5_ESaISB_EE10_Auto_node6_M_keyEv
FN:1655,1660,_ZNSt8_Rb_treeINSt7__cxx1112basic_stringIcSt11char_traitsIcESaIcEEESt4pairIKS5_N12media_player6models13PlaylistModelEESt10_Select1stISB_ESt4lessIS5_ESaISB_EE10_Auto_node9_M_insertES6_IPSt18_Rb_tree_node_baseSK_E
FN:1655,1660,_ZNSt8_Rb_treeINSt7__cxx1112basic_stringIcSt11char_traitsIcESaIcEEESt4pairIKS5_N12media_player6models14MediaFileModelEESt10_Select1stISB_ESt4lessIS5_ESaISB_EE10_Auto_node9_M_insertES6_IPSt18_Rb_tree_node_baseSK_E
FN:173,177,_ZNSt15_Rb_tree_headerC2Ev
FN:1930,1941,_ZNSt8_Rb_treeINSt7__cxx1112basic_stringIcSt11char_traitsIcESaIcEEESt4pairIKS5_N12media_player6models13PlaylistModelEESt10_Select1stISB_ESt4lessIS5_ESaISB_EE8_M_eraseEPSt13_Rb_tree_nodeISB_E
FN:1930,1941,_ZNSt8_Rb_treeINSt7__cxx1112basic_stringIcSt11char_traitsIcESaIcEEESt4pairIKS5_N12media_player6models14MediaFileModelEESt10_Select1stISB_ESt4lessIS5_ESaISB_EE8_M_eraseEPSt13_Rb_tree_nodeISB_E
FN:1947,1957,_ZNSt8_Rb_treeINSt7__cxx1112basic_stringIcSt11char_traitsIcESaIcEEESt4pairIKS5_N12media_player6models13PlaylistModelEESt10_Select1stISB_ESt4lessIS5_ESaISB_EE14_M_lower_boundEPSt13_Rb_tree_nodeISB_EPSt18_Rb_tree_node_baseRS7_
FN:1947,1957,_ZNSt8_Rb_treeINSt7__cxx1112basic_stringIcSt11char_traitsIcESaIcEEESt4pairIKS5_N12media_player6models14MediaFileModelEESt10_Select1stISB_ESt4lessIS5_ESaISB_EE14_M_lower_boundEPSt13_Rb_tree_nodeISB_EPSt18_Rb_tree_node_baseRS7_
FN:206,212,_ZNSt15_Rb_tree_header8_M_resetEv
FN:2108,2132,_ZNSt8_Rb_treeINSt7__cxx1112basic_stringIcSt11char_traitsIcESaIcEEESt4pairIKS5_N12media_player6models13PlaylistModelEESt10_Select1stISB_ESt4lessIS5_ESaISB_EE24_M_get_insert_unique_posERS7_
FN:2108,2132,_ZNSt8_Rb_treeINSt7__cxx1112basic_stringIcSt11char_traitsIcESaIcEEESt4pairIKS5_N12media_player6models14MediaFileModelEESt10_Select1stISB_ESt4lessIS5_ESaISB_EE24_M_get_insert_unique_posERS7_
FN:2210,2261,_ZNSt8_Rb_treeINSt7__cxx1112basic_stringIcSt11char_traitsIcESaIcEEESt4pairIKS5_N12media_player6models13PlaylistModelEESt10_Select1stISB_ESt4lessIS5_ESaISB_EE29_M_get_insert_hint_unique_posESt23_Rb_tree_const_iteratorISB_ERS7_
FN:2210,2261,_ZNSt8_Rb_treeINSt7__cxx1112basic_stringIcSt11char_traitsIcESaIcEEESt4pairIKS5_N12media_player6models14MediaFileModelEESt10_Select1stISB_ESt4lessIS5_ESaISB_EE29_M_get_insert_hint_unique_posESt23_Rb_tree_const_iteratorISB_ERS7_
FN:234,235,_ZNSt13_Rb_tree_nodeISt4pairIKNSt7__cxx1112basic_stringIcSt11char_traitsIcESaIcEEEN12media_player6models13PlaylistModelEEE9_M_valptrEv
FN:234,235,_ZNSt13_Rb_tree_nodeISt4pairIKNSt7__cxx1112basic_stringIcSt11char_traitsIcESaIcEEEN12media_player6models14MediaFileModelEEE9_M_valptrEv
FN:2377,2389,_ZNSt8_Rb_treeINSt7__cxx1112basic_stringIcSt11char_traitsIcESaIcEEESt4pairIKS5_N12media_player6models13PlaylistModelEESt10_Select1stISB_ESt4lessIS5_ESaISB_EE14_M_insert_nodeEPSt18_Rb_tree_node_baseSJ_PSt13_Rb_tree_nodeISB_E
FN:2377,2389,_ZNSt8_Rb_treeINSt7__cxx1112basic_stringIcSt11char_traitsIcESaIcEEESt4pairIKS5_N12media_player6models14MediaFileModelEESt10_Select1stISB_ESt4lessIS5_ESaISB_EE14_M_insert_nodeEPSt18_Rb_tree_node_baseSJ_PSt13_Rb_tree_nodeISB_E
FN:238,239,_ZNKSt13_Rb_tree_nodeISt4pairIKNSt7__cxx1112basic_stringIcSt11char_traitsIcESaIcEEEN12media_player6models13PlaylistModelEEE9_M_valptrEv
FN:238,239,_ZNKSt13_Rb_tree_nodeISt4pairIKNSt7__cxx1112basic_stringIcSt11char_traitsIcESaIcEEEN12media_player6models14MediaFileModelEEE9_M_valptrEv
FN:2458,2467,_ZNSt8_Rb_treeINSt7__cxx1112basic_stringIcSt11char_traitsIcESaIcEEESt4pairIKS5_N12media_player6models13PlaylistModelEESt10_Select1stISB_ESt4lessIS5_ESaISB_EE22_M_emplace_hint_uniqueIJRKSt21piecewise_construct_tSt5tupleIJOS5_EESM_IJEEEEESt17_Rb_tree_iteratorISB_ESt23_Rb_tree_const_iteratorISB_EDpOT_
FN:2458,2467,_ZNSt8_Rb_treeINSt7__cxx1112basic_stringIcSt11char_traitsIcESaIcEEESt4pairIKS5_N12media_player6models13PlaylistModelEESt10_Select1stISB_ESt4lessIS5_ESaISB_EE22_M_emplace_hint_uniqueIJRKSt21piecewise_construct_tSt5tupleIJRS7_EESM_IJEEEEESt17_Rb_tree_iteratorISB_ESt23_Rb_tree_const_iteratorISB_EDpOT_
FN:2458,2467,_ZNSt8_Rb_treeINSt7__cxx1112basic_stringIcSt11char_traitsIcESaIcEEESt4pairIKS5_N12media_player6models14MediaFileModelEESt10_Select1stISB_ESt4lessIS5_ESaISB_EE22_M_emplace_hint_uniqueIJRKSt21piecewise_construct_tSt5tupleIJRS7_EESM_IJEEEEESt17_Rb_tree_iteratorISB_ESt23_Rb_tree_const_iteratorISB_EDpOT_
FN:2489,2498,_ZNSt8_Rb_treeINSt7__cxx1112basic_stringIcSt11char_traitsIcESaIcEEESt4pairIKS5_N12media_player6models13PlaylistModelEESt10_Select1stISB_ESt4lessIS5_ESaISB_EE12_M_erase_auxESt23_Rb_tree_const_iteratorISB_E
FN:2489,2498,_ZNSt8_Rb_treeINSt7__cxx1112basic_stringIcSt11char_traitsIcESaIcEEESt4pairIKS5_N12media_player6models14MediaFileModelEESt10_Select1stISB_ESt4lessIS5_ESaISB_EE12_M_erase_auxESt23_Rb_tree_const_iteratorISB_E
FN:2529,2536,_ZNSt8_Rb_treeINSt7__cxx1112basic_stringIcSt11char_traitsIcESaIcEEESt4pairIKS5_N12media_player6models13PlaylistModelEESt10_Select1stISB_ESt4lessIS5_ESaISB_EE4findERS7_
FN:2529,2536,_ZNSt8_Rb_treeINSt7__cxx1112basic_stringIcSt11char_traitsIcESaIcEEESt4pairIKS5_N12media_player6models14MediaFileModelEESt10_Select1stISB_ESt4lessIS5_ESaISB_EE4findERS7_
FN:273,274,_ZNSt17_Rb_tree_iteratorISt4pairIKNSt7__cxx1112basic_stringIcSt11char_traitsIcESaIcEEEN12media_player6models13PlaylistModelEEEC2EPSt18_Rb_tree_node_base
FN:273,274,_ZNSt17_Rb_tree_iteratorISt4pairIKNSt7__cxx1112basic_stringIcSt11char_traitsIcESaIcEEEN12media_player6models14MediaFileModelEEEC2EPSt18_Rb_tree_node_base
FN:277,278,_ZNKSt17_Rb_tree_iteratorISt4pairIKNSt7__cxx1112basic_stringIcSt11char_traitsIcESaIcEEEN12media_player6models13PlaylistModelEEEdeEv
FN:277,278,_ZNKSt17_Rb_tree_iteratorISt4pairIKNSt7__cxx1112basic_stringIcSt11char_traitsIcESaIcEEEN12media_player6models14MediaFileModelEEEdeEv
FN:281,282,_ZNKSt17_Rb_tree_iteratorISt4pairIKNSt7__cxx1112basic_stringIcSt11char_traitsIcESaIcEEEN12media_player6models13PlaylistModelEEEptEv
FN:281,282,_ZNKSt17_Rb_tree_iteratorISt4pairIKNSt7__cxx1112basic_stringIcSt11char_traitsIcESaIcEEEN12media_player6models14MediaFileModelEEEptEv
FN:285,289,_ZNSt17_Rb_tree_iteratorISt4pairIKNSt7__cxx1112basic_stringIcSt11char_traitsIcESaIcEEEN12media_player6models13PlaylistModelEEEppEv
FN:285,289,_ZNSt17_Rb_tree_iteratorISt4pairIKNSt7__cxx1112basic_stringIcSt11char_traitsIcESaIcEEEN12media_player6models14MediaFileModelEEEppEv
FN:300,304,_ZNSt17_Rb_tree_iteratorISt4pairIKNSt7__cxx1112basic_stringIcSt11char_traitsIcESaIcEEEN12media_player6models13PlaylistModelEEEmmEv
FN:300,304,_ZNSt17_Rb_tree_iteratorISt4pairIKNSt7__cxx1112basic_stringIcSt11char_traitsIcESaIcEEEN12media_player6models14MediaFileModelEEEmmEv
FN:315,316,_ZSteqRKSt17_Rb_tree_iteratorISt4pairIKNSt7__cxx1112basic_stringIcSt11char_traitsIcESaIcEEEN12media_player6models13PlaylistModelEEESE_
FN:315,316,_ZSteqRKSt17_Rb_tree_iteratorISt4pairIKNSt7__cxx1112basic_stringIcSt11char_traitsIcESaIcEEEN12media_player6models14MediaFileModelEEESE_
FN:320,321,_ZStneRKSt17_Rb_tree_iteratorISt4pairIKNSt7__cxx1112basic_stringIcSt11char_traitsIcESaIcEEEN12media_player6models13PlaylistModelEEESE_
FN:320,321,_ZStneRKSt17_Rb_tree_iteratorISt4pairIKNSt7__cxx1112basic_stringIcSt11char_traitsIcESaIcEEEN12media_player6models14MediaFileModelEEESE_
FN:347,348,_ZNSt23_Rb_tree_const_iteratorISt4pairIKNSt7__cxx1112basic_stringIcSt11char_traitsIcESaIcEEEN12media_player6models14MediaFileModelEEEC2EPKSt18_Rb_tree_node_base
FN:350,351,_ZNSt23_Rb_tree_const_iteratorISt4pairIKNSt7__cxx1112basic_stringIcSt11char_traitsIcESaIcEEEN12media_player6models13PlaylistModelEEEC2ERKSt17_Rb_tree_iteratorISB_E
FN:350,351,_ZNSt23_Rb_tree_const_iteratorISt4pairIKNSt7__cxx1112basic_stringIcSt11char_traitsIcESaIcEEEN12media_player6models14MediaFileModelEEEC2ERKSt17_Rb_tree_iteratorISB_E
FN:354,355,_ZNKSt23_Rb_tree_const_iteratorISt4pairIKNSt7__cxx1112basic_stringIcSt11char_traitsIcESaIcEEEN12media_player6models13PlaylistModelEEE13_M_const_castEv
FN:354,355,_ZNKSt23_Rb_tree_const_iteratorISt4pairIKNSt7__cxx1112basic_stringIcSt11char_traitsIcESaIcEEEN12media_player6models14MediaFileModelEEE13_M_const_castEv
FN:358,359,_ZNKSt23_Rb_tree_const_iteratorISt4pairIKNSt7__cxx1112basic_stringIcSt11char_traitsIcESaIcEEEN12media_player6models14MediaFileModelEEEdeEv
FN:366,370,_ZNSt23_Rb_tree_const_iteratorISt4pairIKNSt7__cxx1112basic_stringIcSt11char_traitsIcESaIcEEEN12media_player6models14MediaFileModelEEEppEv
FN:401,402,_ZStneRKSt23_Rb_tree_const_iteratorISt4pairIKNSt7__cxx1112basic_stringIcSt11char_traitsIcESaIcEEEN12media_player6models14MediaFileModelEEESE_
FN:549,550,_ZNSt8_Rb_treeINSt7__cxx1112basic_stringIcSt11char_traitsIcESaIcEEESt4pairIKS5_N12media_player6models13PlaylistModelEESt10_Select1stISB_ESt4lessIS5_ESaISB_EE21_M_get_Node_allocatorEv
FN:549,550,_ZNSt8_Rb_treeINSt7__cxx1112basic_stringIcSt11char_traitsIcESaIcEEESt4pairIKS5_N12media_player6models14MediaFileModelEESt10_Select1stISB_ESt4lessIS5_ESaISB_EE21_M_get_Node_allocatorEv
FN:562,563,_ZNSt8_Rb_treeINSt7__cxx1112basic_stringIcSt11char_traitsIcESaIcEEESt4pairIKS5_N12media_player6models13PlaylistModelEESt10_Select1stISB_ESt4lessIS5_ESaISB_EE11_M_get_nodeEv
FN:562,563,_ZNSt8_Rb_treeINSt7__cxx1112basic_stringIcSt11char_traitsIcESaIcEEESt4pairIKS5_N12media_player6models14MediaFileModelEESt10_Select1stISB_ESt4lessIS5_ESaISB_EE11_M_get_nodeEv
FN:566,567,_ZNSt8_Rb_treeINSt7__cxx1112basic_stringIcSt11char_traitsIcESaIcEEESt4pairIKS5_N12media_player6models13PlaylistModelEESt10_Select1stISB_ESt4lessIS5_ESaISB_EE11_M_put_nodeEPSt13_Rb_tree_nodeISB_E
FN:566,567,_ZNSt8_Rb_treeINSt7__cxx1112basic_stringIcSt11char_traitsIcESaIcEEESt4pairIKS5_N12media_player6models14MediaFileModelEESt10_Select1stISB_ESt4lessIS5_ESaISB_EE11_M_put_nodeEPSt13_Rb_tree_nodeISB_E
FN:592,607,_ZNSt8_Rb_treeINSt7__cxx1112basic_stringIcSt11char_traitsIcESaIcEEESt4pairIKS5_N12media_player6models13PlaylistModelEESt10_Select1stISB_ESt4lessIS5_ESaISB_EE17_M_construct_nodeIJRKSt21piecewise_construct_tSt5tupleIJOS5_EESM_IJEEEEEvPSt13_Rb_tree_nodeISB_EDpOT_
FN:592,607,_ZNSt8_Rb_treeINSt7__cxx1112basic_stringIcSt11char_traitsIcESaIcEEESt4pairIKS5_N12media_player6models13PlaylistModelEESt10_Select1stISB_ESt4lessIS5_ESaISB_EE17_M_construct_nodeIJRKSt21piecewise_construct_tSt5tupleIJRS7_EESM_IJEEEEEvPSt13_Rb_tree_nodeISB_EDpOT_
FN:592,607,_ZNSt8_Rb_treeINSt7__cxx1112basic_stringIcSt11char_traitsIcESaIcEEESt4pairIKS5_N12media_player6models14MediaFileModelEESt10_Select1stISB_ESt4lessIS5_ESaISB_EE17_M_construct_nodeIJRKSt21piecewise_construct_tSt5tupleIJRS7_EESM_IJEEEEEvPSt13_Rb_tree_nodeISB_EDpOT_
FN:611,616,_ZNSt8_Rb_treeINSt7__cxx1112basic_stringIcSt11char_traitsIcESaIcEEESt4pairIKS5_N12media_player6models13PlaylistModelEESt10_Select1stISB_ESt4lessIS5_ESaISB_EE14_M_create_nodeIJRKSt21piecewise_construct_tSt5tupleIJOS5_EESM_IJEEEEEPSt13_Rb_tree_nodeISB_EDpOT_
FN:611,616,_ZNSt8_Rb_treeINSt7__cxx1112basic_stringIcSt11char_traitsIcESaIcEEESt4pairIKS5_N12media_player6models13PlaylistModelEESt10_Select1stISB_ESt4lessIS5_ESaISB_EE14_M_create_nodeIJRKSt21piecewise_construct_tSt5tupleIJRS7_EESM_IJEEEEEPSt13_Rb_tree_nodeISB_EDpOT_
FN:611,616,_ZNSt8_Rb_treeINSt7__cxx1112basic_stringIcSt11char_traitsIcESaIcEEESt4pairIKS5_N12media_player6models14MediaFileModelEESt10_Select1stISB_ESt4lessIS5_ESaISB_EE14_M_create_nodeIJRKSt21piecewise_construct_tSt5tupleIJRS7_EESM_IJEEEEEPSt13_Rb_tree_nodeISB_EDpOT_
FN:620,628,_ZNSt8_Rb_treeINSt7__cxx1112basic_stringIcSt11char_traitsIcESaIcEEESt4pairIKS5_N12media_player6models13PlaylistModelEESt10_Select1stISB_ESt4lessIS5_ESaISB_EE15_M_destroy_nodeEPSt13_Rb_tree_nodeISB_E
FN:620,628,_ZNSt8_Rb_treeINSt7__cxx1112basic_stringIcSt11char_traitsIcESaIcEEESt4pairIKS5_N12media_player6models14MediaFileModelEESt10_Select1stISB_ESt4lessIS5_ESaISB_EE15_M_destroy_nodeEPSt13_Rb_tree_nodeISB_E
FN:631,635,_ZNSt8_Rb_treeINSt7__cxx1112basic_stringIcSt11char_traitsIcESaIcEEESt4pairIKS5_N12media_player6models13PlaylistModelEESt10_Select1stISB_ESt4lessIS5_ESaISB_EE12_M_drop_nodeEPSt13_Rb_tree_nodeISB_E
FN:631,635,_ZNSt8_Rb_treeINSt7__cxx1112basic_stringIcSt11char_traitsIcESaIcEEESt4pairIKS5_N12media_player6models14MediaFileModelEESt10_Select1stISB_ESt4lessIS5_ESaISB_EE12_M_drop_nodeEPSt13_Rb_tree_nodeISB_E
FN:669,674,_ZNSt8_Rb_treeINSt7__cxx1112basic_stringIcSt11char_traitsIcESaIcEEESt4pairIKS5_N12media_player6models13PlaylistModelEESt10_Select1stISB_ESt4lessIS5_ESaISB_EE13_Rb_tree_implISF_Lb1EEC2Ev
FN:669,674,_ZNSt8_Rb_treeINSt7__cxx1112basic_stringIcSt11char_traitsIcESaIcEEESt4pairIKS5_N12media_player6models14MediaFileModelEESt10_Select1stISB_ESt4lessIS5_ESaISB_EE13_Rb_tree_implISF_Lb1EEC2Ev
FN:720,721,_ZNSt8_Rb_treeINSt7__cxx1112basic_stringIcSt11char_traitsIcESaIcEEESt4pairIKS5_N12media_player6models13PlaylistModelEESt10_Select1stISB_ESt4lessIS5_ESaISB_EE11_M_leftmostEv
FN:720,721,_ZNSt8_Rb_treeINSt7__cxx1112basic_stringIcSt11char_traitsIcESaIcEEESt4pairIKS5_N12media_player6models14MediaFileModelEESt10_Select1stISB_ESt4lessIS5_ESaISB_EE11_M_leftmostEv
FN:728,729,_ZNSt8_Rb_treeINSt7__cxx1112basic_stringIcSt11char_traitsIcESaIcEEESt4pairIKS5_N12media_player6models13PlaylistModelEESt10_Select1stISB_ESt4lessIS5_ESaISB_EE12_M_rightmostEv
FN:728,729,_ZNSt8_Rb_treeINSt7__cxx1112basic_stringIcSt11char_traitsIcESaIcEEESt4pairIKS5_N12media_player6models14MediaFileModelEESt10_Select1stISB_ESt4lessIS5_ESaISB_EE12_M_rightmostEv
FN:736,737,_ZNKSt8_Rb_treeINSt7__cxx1112basic_stringIcSt11char_traitsIcESaIcEEESt4pairIKS5_N12media_player6models13PlaylistModelEESt10_Select1stISB_ESt4lessIS5_ESaISB_EE9_M_mbeginEv
FN:736,737,_ZNKSt8_Rb_treeINSt7__cxx1112basic_stringIcSt11char_traitsIcESaIcEEESt4pairIKS5_N12media_player6models14MediaFileModelEESt10_Select1stISB_ESt4lessIS5_ESaISB_EE9_M_mbeginEv
FN:740,741,_ZNSt8_Rb_treeINSt7__cxx1112basic_stringIcSt11char_traitsIcESaIcEEESt4pairIKS5_N12media_player6models13PlaylistModelEESt10_Select1stISB_ESt4lessIS5_ESaISB_EE8_M_beginEv
FN:740,741,_ZNSt8_Rb_treeINSt7__cxx1112basic_stringIcSt11char_traitsIcESaIcEEESt4pairIKS5_N12media_player6models14MediaFileModelEESt10_Select1stISB_ESt4lessIS5_ESaISB_EE8_M_beginEv
FN:751,752,_ZNSt8_Rb_treeINSt7__cxx1112basic_stringIcSt11char_traitsIcESaIcEEESt4pairIKS5_N12media_player6models13PlaylistModelEESt10_Select1stISB_ESt4lessIS5_ESaISB_EE6_M_endEv
FN:751,752,_ZNSt8_Rb_treeINSt7__cxx1112basic_stringIcSt11char_traitsIcESaIcEEESt4pairIKS5_N12media_player6models14MediaFileModelEESt10_Select1stISB_ESt4lessIS5_ESaISB_EE6_M_endEv
FN:759,778,_ZNSt8_Rb_treeINSt7__cxx1112basic_stringIcSt11char_traitsIcESaIcEEESt4pairIKS5_N12media_player6models13PlaylistModelEESt10_Select1stISB_ESt4lessIS5_ESaISB_EE6_S_keyEPKSt13_Rb_tree_nodeISB_E
FN:759,778,_ZNSt8_Rb_treeINSt7__cxx1112basic_stringIcSt11char_traitsIcESaIcEEESt4pairIKS5_N12media_player6models14MediaFileModelEESt10_Select1stISB_ESt4lessIS5_ESaISB_EE6_S_keyEPKSt13_Rb_tree_nodeISB_E
FN:781,782,_ZNSt8_Rb_treeINSt7__cxx1112basic_stringIcSt11char_traitsIcESaIcEEESt4pairIKS5_N12media_player6models13PlaylistModelEESt10_Select1stISB_ESt4lessIS5_ESaISB_EE7_S_leftEPSt18_Rb_tree_node_base
FN:781,782,_ZNSt8_Rb_treeINSt7__cxx1112basic_stringIcSt11char_traitsIcESaIcEEESt4pairIKS5_N12media_player6models14MediaFileModelEESt10_Select1stISB_ESt4lessIS5_ESaISB_EE7_S_leftEPSt18_Rb_tree_node_base
FN:789,790,_ZNSt8_Rb_treeINSt7__cxx1112basic_stringIcSt11char_traitsIcESaIcEEESt4pairIKS5_N12media_player6models13PlaylistModelEESt10_Select1stISB_ESt4lessIS5_ESaISB_EE8_S_rightEPSt18_Rb_tree_node_base
FN:789,790,_ZNSt8_Rb_treeINSt7__cxx1112basic_stringIcSt11char_traitsIcESaIcEEESt4pairIKS5_N12media_player6models14MediaFileModelEESt10_Select1stISB_ESt4lessIS5_ESaISB_EE8_S_rightEPSt18_Rb_tree_node_base
FN:797,798,_ZNSt8_Rb_treeINSt7__cxx1112basic_stringIcSt11char_traitsIcESaIcEEESt4pairIKS5_N12media_player6models13PlaylistModelEESt10_Select1stISB_ESt4lessIS5_ESaISB_EE6_S_keyEPKSt18_Rb_tree_node_base
FN:797,798,_ZNSt8_Rb_treeINSt7__cxx1112basic_stringIcSt11char_traitsIcESaIcEEESt4pairIKS5_N12media_player6models14MediaFileModelEESt10_Select1stISB_ESt4lessIS5_ESaISB_EE6_S_keyEPKSt18_Rb_tree_node_base
FN:930,930,_ZNSt8_Rb_treeINSt7__cxx1112basic_stringIcSt11char_traitsIcESaIcEEESt4pairIKS5_N12media_player6models13PlaylistModelEESt10_Select1stISB_ESt4lessIS5_ESaISB_EEC2Ev
FN:930,930,_ZNSt8_Rb_treeINSt7__cxx1112basic_stringIcSt11char_traitsIcESaIcEEESt4pairIKS5_N12media_player6models14MediaFileModelEESt10_Select1stISB_ESt4lessIS5_ESaISB_EEC2Ev
FN:985,986,_ZNSt8_Rb_treeINSt7__cxx1112basic_stringIcSt11char_traitsIcESaIcEEESt4pairIKS5_N12media_player6models13PlaylistModelEESt10_Select1stISB_ESt4lessIS5_ESaISB_EED2Ev
FN:985,986,_ZNSt8_Rb_treeINSt7__cxx1112basic_stringIcSt11char_traitsIcESaIcEEESt4pairIKS5_N12media_player6models14MediaFileModelEESt10_Select1stISB_ESt4lessIS5_ESaISB_EED2Ev
FN:993,994,_ZNKSt8_Rb_treeINSt7__cxx1112basic_stringIcSt11char_traitsIcESaIcEEESt4pairIKS5_N12media_player6models13PlaylistModelEESt10_Select1stISB_ESt4lessIS5_ESaISB_EE8key_compEv
FN:993,994,_ZNKSt8_Rb_treeINSt7__cxx1112basic_stringIcSt11char_traitsIcESaIcEEESt4pairIKS5_N12media_player6models14MediaFileModelEESt10_Select1stISB_ESt4lessIS5_ESaISB_EE8key_compEv
FN:997,998,_ZNSt8_Rb_treeINSt7__cxx1112basic_stringIcSt11char_traitsIcESaIcEEESt4pairIKS5_N12media_player6models13PlaylistModelEESt10_Select1stISB_ESt4lessIS5_ESaISB_EE5beginEv
FN:997,998,_ZNSt8_Rb_treeINSt7__cxx1112basic_stringIcSt11char_traitsIcESaIcEEESt4pairIKS5_N12media_player6models14MediaFileModelEESt10_Select1stISB_ESt4lessIS5_ESaISB_EE5beginEv
FNDA:5,_ZNKSt8_Rb_treeINSt7__cxx1112basic_stringIcSt11char_traitsIcESaIcEEESt4pairIKS5_N12media_player6models14MediaFileModelEESt10_Select1stISB_ESt4lessIS5_ESaISB_EE5beginEv
FNDA:176,_ZNSt8_Rb_treeINSt7__cxx1112basic_stringIcSt11char_traitsIcESaIcEEESt4pairIKS5_N12media_player6models13PlaylistModelEESt10_Select1stISB_ESt4lessIS5_ESaISB_EE3endEv
FNDA:134,_ZNSt8_Rb_treeINSt7__cxx1112basic_stringIcSt11char_traitsIcESaIcEEESt4pairIKS5_N12media_player6models14MediaFileModelEESt10_Select1stISB_ESt4lessIS5_ESaISB_EE3endEv
FNDA:5,_ZNKSt8_Rb_treeINSt7__cxx1112basic_stringIcSt11char_traitsIcESaIcEEESt4pairIKS5_N12media_player6models14MediaFileModelEESt10_Select1stISB_ESt4lessIS5_ESaISB_EE3endEv
FNDA:48,_ZNKSt8_Rb_treeINSt7__cxx1112basic_stringIcSt11char_traitsIcESaIcEEESt4pairIKS5_N12media_player6models13PlaylistModelEESt10_Select1stISB_ESt4lessIS5_ESaISB_EE4sizeEv
FNDA:113,_ZNKSt8_Rb_treeINSt7__cxx1112basic_stringIcSt11char_traitsIcESaIcEEESt4pairIKS5_N12media_player6models14MediaFileModelEESt10_Select1stISB_ESt4lessIS5_ESaISB_EE4sizeEv
FNDA:3,_ZNSt8_Rb_treeINSt7__cxx1112basic_stringIcSt11char_traitsIcESaIcEEESt4pairIKS5_N12media_player6models13PlaylistModelEESt10_Select1stISB_ESt4lessIS5_ESaISB_EE5eraseB5cxx11ESt17_Rb_tree_iteratorISB_E
FNDA:1,_ZNSt8_Rb_treeINSt7__cxx1112basic_stringIcSt11char_traitsIcESaIcEEESt4pairIKS5_N12media_player6models14MediaFileModelEESt10_Select1stISB_ESt4lessIS5_ESaISB_EE5eraseB5cxx11ESt17_Rb_tree_iteratorISB_E
FNDA:2,_ZNSt8_Rb_treeINSt7__cxx1112basic_stringIcSt11char_traitsIcESaIcEEESt4pairIKS5_N12media_player6models13PlaylistModelEESt10_Select1stISB_ESt4lessIS5_ESaISB_EE5clearEv
FNDA:1,_ZNSt8_Rb_treeINSt7__cxx1112basic_stringIcSt11char_traitsIcESaIcEEESt4pairIKS5_N12media_player6models14MediaFileModelEESt10_Select1stISB_ESt4lessIS5_ESaISB_EE5clearEv
FNDA:40,_ZNSt8_Rb_treeINSt7__cxx1112basic_stringIcSt11char_traitsIcESaIcEEESt4pairIKS5_N12media_player6models13PlaylistModelEESt10_Select1stISB_ESt4lessIS5_ESaISB_EE11lower_boundERS7_
FNDA:42,_ZNSt8_Rb_treeINSt7__cxx1112basic_stringIcSt11char_traitsIcESaIcEEESt4pairIKS5_N12media_player6models14MediaFileModelEESt10_Select1stISB_ESt4lessIS5_ESaISB_EE11lower_boundERS7_
FNDA:0,_ZNSt20_Rb_tree_key_compareISt4lessINSt7__cxx1112basic_stringIcSt11char_traitsIcESaIcEEEEEC2Ev
FNDA:3,_ZNSt8_Rb_treeINSt7__cxx1112basic_stringIcSt11char_traitsIcESaIcEEESt4pairIKS5_N12media_player6models13PlaylistModelEESt10_Select1stISB_ESt4lessIS5_ESaISB_EE10_Auto_nodeC2IJRKSt21piecewise_construct_tSt5tupleIJOS5_EESN_IJEEEEERSH_DpOT_
FNDA:30,_ZNSt8_Rb_treeINSt7__cxx1112basic_stringIcSt11char_traitsIcESaIcEEESt4pairIKS5_N12media_player6models13PlaylistModelEESt10_Select1stISB_ESt4lessIS5_ESaISB_EE10_Auto_nodeC2IJRKSt21piecewise_construct_tSt5tupleIJRS7_EESN_IJEEEEERSH_DpOT_
FNDA:40,_ZNSt8_Rb_treeINSt7__cxx1112basic_stringIcSt11char_traitsIcESaIcEEESt4pairIKS5_N12media_player6models14MediaFileModelEESt10_Select1stISB_ESt4lessIS5_ESaISB_EE10_Auto_nodeC2IJRKSt21piecewise_construct_tSt5tupleIJRS7_EESN_IJEEEEERSH_DpOT_
FNDA:33,_ZNSt8_Rb_treeINSt7__cxx1112basic_stringIcSt11char_traitsIcESaIcEEESt4pairIKS5_N12media_player6models13PlaylistModelEESt10_Select1stISB_ESt4lessIS5_ESaISB_EE10_Auto_nodeD2Ev
FNDA:40,_ZNSt8_Rb_treeINSt7__cxx1112basic_stringIcSt11char_traitsIcESaIcEEESt4pairIKS5_N12media_player6models14MediaFileModelEESt10_Select1stISB_ESt4lessIS5_ESaISB_EE10_Auto_nodeD2Ev
FNDA:33,_ZNKSt8_Rb_treeINSt7__cxx1112basic_stringIcSt11char_traitsIcESaIcEEESt4pairIKS5_N12media_player6models13PlaylistModelEESt10_Select1stISB_ESt4lessIS5_ESaISB_EE10_Auto_node6_M_keyEv
FNDA:40,_ZNKSt8_Rb_treeINSt7__cxx1112basic_stringIcSt11char_traitsIcESaIcEEESt4pairIKS5_N12media_player6models14MediaFileModelEESt10_Select1stISB_ESt4lessIS5_ESaISB_EE10_Auto_node6_M_keyEv
FNDA:33,_ZNSt8_Rb_treeINSt7__cxx1112basic_stringIcSt11char_traitsIcESaIcEEESt4pairIKS5_N12media_player6models13PlaylistModelEESt10_Select1stISB_ESt4lessIS5_ESaISB_EE10_Auto_node9_M_insertES6_IPSt18_Rb_tree_node_baseSK_E
FNDA:40,_ZNSt8_Rb_treeINSt7__cxx1112basic_stringIcSt11char_traitsIcESaIcEEESt4pairIKS5_N12media_player6models14MediaFileModelEESt10_Select1stISB_ESt4lessIS5_ESaISB_EE10_Auto_node9_M_insertES6_IPSt18_Rb_tree_node_baseSK_E
FNDA:0,_ZNSt15_Rb_tree_headerC2Ev
FNDA:66,_ZNSt8_Rb_treeINSt7__cxx1112basic_stringIcSt11char_traitsIcESaIcEEESt4pairIKS5_N12media_player6models13PlaylistModelEESt10_Select1stISB_ESt4lessIS5_ESaISB_EE8_M_eraseEPSt13_Rb_tree_nodeISB_E
FNDA:98,_ZNSt8_Rb_treeINSt7__cxx1112basic_stringIcSt11char_traitsIcESaIcEEESt4pairIKS5_N12media_player6models14MediaFileModelEESt10_Select1stISB_ESt4lessIS5_ESaISB_EE8_M_eraseEPSt13_Rb_tree_nodeISB_E
FNDA:75,_ZNSt8_Rb_treeINSt7__cxx1112basic_stringIcSt11char_traitsIcESaIcEEESt4pairIKS5_N12media_player6models13PlaylistModelEESt10_Select1stISB_ESt4lessIS5_ESaISB_EE14_M_lower_boundEPSt13_Rb_tree_nodeISB_EPSt18_Rb_tree_node_baseRS7_
FNDA:50,_ZNSt8_Rb_treeINSt7__cxx1112basic_stringIcSt11char_traitsIcESaIcEEESt4pairIKS5_N12media_player6models14MediaFileModelEESt10_Select1stISB_ESt4lessIS5_ESaISB_EE14_M_lower_boundEPSt13_Rb_tree_nodeISB_EPSt18_Rb_tree_node_baseRS7_
FNDA:0,_ZNSt15_Rb_tree_header8_M_resetEv
FNDA:24,_ZNSt8_Rb_treeINSt7__cxx1112basic_stringIcSt11char_traitsIcESaIcEEESt4pairIKS5_N12media_player6models13PlaylistModelEESt10_Select1stISB_ESt4lessIS5_ESaISB_EE24_M_get_insert_unique_posERS7_
FNDA:23,_ZNSt8_Rb_treeINSt7__cxx1112basic_stringIcSt11char_traitsIcESaIcEEESt4pairIKS5_N12media_player6models14MediaFileModelEESt10_Select1stISB_ESt4lessIS5_ESaISB_EE24_M_get_insert_unique_posERS7_
FNDA:33,_ZNSt8_Rb_treeINSt7__cxx1112basic_stringIcSt11char_traitsIcESaIcEEESt4pairIKS5_N12media_player6models13PlaylistModelEESt10_Select1stISB_ESt4lessIS5_ESaISB_EE29_M_get_insert_hint_unique_posESt23_Rb_tree_const_iteratorISB_ERS7_
FNDA:40,_ZNSt8_Rb_treeINSt7__cxx1112basic_stringIcSt11char_traitsIcESaIcEEESt4pairIKS5_N12media_player6models14MediaFileModelEESt10_Select1stISB_ESt4lessIS5_ESaISB_EE29_M_get_insert_hint_unique_posESt23_Rb_tree_const_iteratorISB_ERS7_
FNDA:178,_ZNSt13_Rb_tree_nodeISt4pairIKNSt7__cxx1112basic_stringIcSt11char_traitsIcESaIcEEEN12media_player6models13PlaylistModelEEE9_M_valptrEv
FNDA:181,_ZNSt13_Rb_tree_nodeISt4pairIKNSt7__cxx1112basic_stringIcSt11char_traitsIcESaIcEEEN12media_player6models14MediaFileModelEEE9_M_valptrEv
FNDA:33,_ZNSt8_Rb_treeINSt7__cxx1112basic_stringIcSt11char_traitsIcESaIcEEESt4pairIKS5_N12media_player6models13PlaylistModelEESt10_Select1stISB_ESt4lessIS5_ESaISB_EE14_M_insert_nodeEPSt18_Rb_tree_node_baseSJ_PSt13_Rb_tree_nodeISB_E
FNDA:40,_ZNSt8_Rb_treeINSt7__cxx1112basic_stringIcSt11char_traitsIcESaIcEEESt4pairIKS5_N12media_player6models14MediaFileModelEESt10_Select1stISB_ESt4lessIS5_ESaISB_EE14_M_insert_nodeEPSt18_Rb_tree_node_baseSJ_PSt13_Rb_tree_nodeISB_E
FNDA:127,_ZNKSt13_Rb_tree_nodeISt4pairIKNSt7__cxx1112basic_stringIcSt11char_traitsIcESaIcEEEN12media_player6models13PlaylistModelEEE9_M_valptrEv
FNDA:128,_ZNKSt13_Rb_tree_nodeISt4pairIKNSt7__cxx1112basic_stringIcSt11char_traitsIcESaIcEEEN12media_player6models14MediaFileModelEEE9_M_valptrEv
FNDA:3,_ZNSt8_Rb_treeINSt7__cxx1112basic_stringIcSt11char_traitsIcESaIcEEESt4pairIKS5_N12media_player6models13PlaylistModelEESt10_Select1stISB_ESt4lessIS5_ESaISB_EE22_M_emplace_hint_uniqueIJRKSt21piecewise_construct_tSt5tupleIJOS5_EESM_IJEEEEESt17_Rb_tree_iteratorISB_ESt23_Rb_tree_const_iteratorISB_EDpOT_
FNDA:30,_ZNSt8_Rb_treeINSt7__cxx1112basic_stringIcSt11char_traitsIcESaIcEEESt4pairIKS5_N12media_player6models13PlaylistModelEESt10_Select1stISB_ESt4lessIS5_ESaISB_EE22_M_emplace_hint_uniqueIJRKSt21piecewise_construct_tSt5tupleIJRS7_EESM_IJEEEEESt17_Rb_tree_iteratorISB_ESt23_Rb_tree_const_iteratorISB_EDpOT_
FNDA:40,_ZNSt8_Rb_treeINSt7__cxx1112basic_stringIcSt11char_traitsIcESaIcEEESt4pairIKS5_N12media_player6models14MediaFileModelEESt10_Select1stISB_ESt4lessIS5_ESaISB_EE22_M_emplace_hint_uniqueIJRKSt21piecewise_construct_tSt5tupleIJRS7_EESM_IJEEEEESt17_Rb_tree_iteratorISB_ESt23_Rb_tree_const_iteratorISB_EDpOT_
FNDA:3,_ZNSt8_Rb_treeINSt7__cxx1112basic_stringIcSt11char_traitsIcESaIcEEESt4pairIKS5_N12media_player6models13PlaylistModelEESt10_Select1stISB_ESt4lessIS5_ESaISB_EE12_M_erase_auxESt23_Rb_tree_const_iteratorISB_E
FNDA:1,_ZNSt8_Rb_treeINSt7__cxx1112basic_stringIcSt11char_traitsIcESaIcEEESt4pairIKS5_N12media_player6models14MediaFileModelEESt10_Select1stISB_ESt4lessIS5_ESaISB_EE12_M_erase_auxESt23_Rb_tree_const_iteratorISB_E
FNDA:35,_ZNSt8_Rb_treeINSt7__cxx1112basic_stringIcSt11char_traitsIcESaIcEEESt4pairIKS5_N12media_player6models13PlaylistModelEESt10_Select1stISB_ESt4lessIS5_ESaISB_EE4findERS7_
FNDA:8,_ZNSt8_Rb_treeINSt7__cxx1112basic_stringIcSt11char_traitsIcESaIcEEESt4pairIKS5_N12media_player6models14MediaFileModelEESt10_Select1stISB_ESt4lessIS5_ESaISB_EE4findERS7_
FNDA:420,_ZNSt17_Rb_tree_iteratorISt4pairIKNSt7__cxx1112basic_stringIcSt11char_traitsIcESaIcEEEN12media_player6models13PlaylistModelEEEC2EPSt18_Rb_tree_node_base
FNDA:382,_ZNSt17_Rb_tree_iteratorISt4pairIKNSt7__cxx1112basic_stringIcSt11char_traitsIcESaIcEEEN12media_player6models14MediaFileModelEEEC2EPSt18_Rb_tree_node_base
FNDA:95,_ZNKSt17_Rb_tree_iteratorISt4pairIKNSt7__cxx1112basic_stringIcSt11char_traitsIcESaIcEEEN12media_player6models13PlaylistModelEEEdeEv
FNDA:100,_ZNKSt17_Rb_tree_iteratorISt4pairIKNSt7__cxx1112basic_stringIcSt11char_traitsIcESaIcEEEN12media_player6models14MediaFileModelEEEdeEv
FNDA:17,_ZNKSt17_Rb_tree_iteratorISt4pairIKNSt7__cxx1112basic_stringIcSt11char_traitsIcESaIcEEEN12media_player6models13PlaylistModelEEEptEv
FNDA:1,_ZNKSt17_Rb_tree_iteratorISt4pairIKNSt7__cxx1112basic_stringIcSt11char_traitsIcESaIcEEEN12media_player6models14MediaFileModelEEEptEv
FNDA:43,_ZNSt17_Rb_tree_iteratorISt4pairIKNSt7__cxx1112basic_stringIcSt11char_traitsIcESaIcEEEN12media_player6models13PlaylistModelEEEppEv
FNDA:55,_ZNSt17_Rb_tree_iteratorISt4pairIKNSt7__cxx1112basic_stringIcSt11char_traitsIcESaIcEEEN12media_player6models14MediaFileModelEEEppEv
FNDA:0,_ZNSt17_Rb_tree_iteratorISt4pairIKNSt7__cxx1112basic_stringIcSt11char_traitsIcESaIcEEEN12media_player6models13PlaylistModelEEEmmEv
FNDA:2,_ZNSt17_Rb_tree_iteratorISt4pairIKNSt7__cxx1112basic_stringIcSt11char_traitsIcESaIcEEEN12media_player6models14MediaFileModelEEEmmEv
FNDA:111,_ZSteqRKSt17_Rb_tree_iteratorISt4pairIKNSt7__cxx1112basic_stringIcSt11char_traitsIcESaIcEEEN12media_player6models13PlaylistModelEEESE_
FNDA:77,_ZSteqRKSt17_Rb_tree_iteratorISt4pairIKNSt7__cxx1112basic_stringIcSt11char_traitsIcESaIcEEEN12media_player6models14MediaFileModelEEESE_
FNDA:118,_ZStneRKSt17_Rb_tree_iteratorISt4pairIKNSt7__cxx1112basic_stringIcSt11char_traitsIcESaIcEEEN12media_player6models13PlaylistModelEEESE_
FNDA:130,_ZStneRKSt17_Rb_tree_iteratorISt4pairIKNSt7__cxx1112basic_stringIcSt11char_traitsIcESaIcEEEN12media_player6models14MediaFileModelEEESE_
FNDA:10,_ZNSt23_Rb_tree_const_iteratorISt4pairIKNSt7__cxx1112basic_stringIcSt11char_traitsIcESaIcEEEN12media_player6models14MediaFileModelEEEC2EPKSt18_Rb_tree_node_base
FNDA:36,_ZNSt23_Rb_tree_const_iteratorISt4pairIKNSt7__cxx1112basic_stringIcSt11char_traitsIcESaIcEEEN12media_player6models13PlaylistModelEEEC2ERKSt17_Rb_tree_iteratorISB_E
FNDA:41,_ZNSt23_Rb_tree_const_iteratorISt4pairIKNSt7__cxx1112basic_stringIcSt11char_traitsIcESaIcEEEN12media_player6models14MediaFileModelEEEC2ERKSt17_Rb_tree_iteratorISB_E
FNDA:33,_ZNKSt23_Rb_tree_const_iteratorISt4pairIKNSt7__cxx1112basic_stringIcSt11char_traitsIcESaIcEEEN12media_player6models13PlaylistModelEEE13_M_const_castEv
FNDA:40,_ZNKSt23_Rb_tree_const_iteratorISt4pairIKNSt7__cxx1112basic_stringIcSt11char_traitsIcESaIcEEEN12media_player6models14MediaFileModelEEE13_M_const_castEv
FNDA:7,_ZNKSt23_Rb_tree_const_iteratorISt4pairIKNSt7__cxx1112basic_stringIcSt11char_traitsIcESaIcEEEN12media_player6models14MediaFileModelEEEdeEv
FNDA:7,_ZNSt23_Rb_tree_const_iteratorISt4pairIKNSt7__cxx1112basic_stringIcSt11char_traitsIcESaIcEEEN12media_player6models14MediaFileModelEEEppEv
FNDA:12,_ZStneRKSt23_Rb_tree_const_iteratorISt4pairIKNSt7__cxx1112basic_stringIcSt11char_traitsIcESaIcEEEN12media_player6models14MediaFileModelEEESE_
FNDA:132,_ZNSt8_Rb_treeINSt7__cxx1112basic_stringIcSt11char_traitsIcESaIcEEESt4pairIKS5_N12media_player6models13PlaylistModelEESt10_Select1stISB_ESt4lessIS5_ESaISB_EE21_M_get_Node_allocatorEv
FNDA:160,_ZNSt8_Rb_treeINSt7__cxx1112basic_stringIcSt11char_traitsIcESaIcEEESt4pairIKS5_N12media_player6models14MediaFileModelEESt10_Select1stISB_ESt4lessIS5_ESaISB_EE21_M_get_Node_allocatorEv
FNDA:33,_ZNSt8_Rb_treeINSt7__cxx1112basic_stringIcSt11char_traitsIcESaIcEEESt4pairIKS5_N12media_player6models13PlaylistModelEESt10_Select1stISB_ESt4lessIS5_ESaISB_EE11_M_get_nodeEv
FNDA:40,_ZNSt8_Rb_treeINSt7__cxx1112basic_stringIcSt11char_traitsIcESaIcEEESt4pairIKS5_N12media_player6models14MediaFileModelEESt10_Select1stISB_ESt4lessIS5_ESaISB_EE11_M_get_nodeEv
FNDA:33,_ZNSt8_Rb_treeINSt7__cxx1112basic_stringIcSt11char_traitsIcESaIcEEESt4pairIKS5_N12media_player6models13PlaylistModelEESt10_Select1stISB_ESt4lessIS5_ESaISB_EE11_M_put_nodeEPSt13_Rb_tree_nodeISB_E
FNDA:40,_ZNSt8_Rb_treeINSt7__cxx1112basic_stringIcSt11char_traitsIcESaIcEEESt4pairIKS5_N12media_player6models14MediaFileModelEESt10_Select1stISB_ESt4lessIS5_ESaISB_EE11_M_put_nodeEPSt13_Rb_tree_nodeISB_E
FNDA:3,_ZNSt8_Rb_treeINSt7__cxx1112basic_stringIcSt11char_traitsIcESaIcEEESt4pairIKS5_N12media_player6models13PlaylistModelEESt10_Select1stISB_ESt4lessIS5_ESaISB_EE17_M_construct_nodeIJRKSt21piecewise_construct_tSt5tupleIJOS5_EESM_IJEEEEEvPSt13_Rb_tree_nodeISB_EDpOT_
FNDA:30,_ZNSt8_Rb_treeINSt7__cxx1112basic_stringIcSt11char_traitsIcESaIcEEESt4pairIKS5_N12media_player6models13PlaylistModelEESt10_Select1stISB_ESt4lessIS5_ESaISB_EE17_M_construct_nodeIJRKSt21piecewise_construct_tSt5tupleIJRS7_EESM_IJEEEEEvPSt13_Rb_tree_nodeISB_EDpOT_
FNDA:40,_ZNSt8_Rb_treeINSt7__cxx1112basic_stringIcSt11char_traitsIcESaIcEEESt4pairIKS5_N12media_player6models14MediaFileModelEESt10_Select1stISB_ESt4lessIS5_ESaISB_EE17_M_construct_nodeIJRKSt21piecewise_construct_tSt5tupleIJRS7_EESM_IJEEEEEvPSt13_Rb_tree_nodeISB_EDpOT_
FNDA:3,_ZNSt8_Rb_treeINSt7__cxx1112basic_stringIcSt11char_traitsIcESaIcEEESt4pairIKS5_N12media_player6models13PlaylistModelEESt10_Select1stISB_ESt4lessIS5_ESaISB_EE14_M_create_nodeIJRKSt21piecewise_construct_tSt5tupleIJOS5_EESM_IJEEEEEPSt13_Rb_tree_nodeISB_EDpOT_
FNDA:30,_ZNSt8_Rb_treeINSt7__cxx1112basic_stringIcSt11char_traitsIcESaIcEEESt4pairIKS5_N12media_player6models13PlaylistModelEESt10_Select1stISB_ESt4lessIS5_ESaISB_EE14_M_create_nodeIJRKSt21piecewise_construct_tSt5tupleIJRS7_EESM_IJEEEEEPSt13_Rb_tree_nodeISB_EDpOT_
FNDA:40,_ZNSt8_Rb_treeINSt7__cxx1112basic_stringIcSt11char_traitsIcESaIcEEESt4pairIKS5_N12media_player6models14MediaFileModelEESt10_Select1stISB_ESt4lessIS5_ESaISB_EE14_M_create_nodeIJRKSt21piecewise_construct_tSt5tupleIJRS7_EESM_IJEEEEEPSt13_Rb_tree_nodeISB_EDpOT_
FNDA:33,_ZNSt8_Rb_treeINSt7__cxx1112basic_stringIcSt11char_traitsIcESaIcEEESt4pairIKS5_N12media_player6models13PlaylistModelEESt10_Select1stISB_ESt4lessIS5_ESaISB_EE15_M_destroy_nodeEPSt13_Rb_tree_nodeISB_E
FNDA:40,_ZNSt8_Rb_treeINSt7__cxx1112basic_stringIcSt11char_traitsIcESaIcEEESt4pairIKS5_N12media_player6models14MediaFileModelEESt10_Select1stISB_ESt4lessIS5_ESaISB_EE15_M_destroy_nodeEPSt13_Rb_tree_nodeISB_E
FNDA:33,_ZNSt8_Rb_treeINSt7__cxx1112basic_stringIcSt11char_traitsIcESaIcEEESt4pairIKS5_N12media_player6models13PlaylistModelEESt10_Select1stISB_ESt4lessIS5_ESaISB_EE12_M_drop_nodeEPSt13_Rb_tree_nodeISB_E
FNDA:40,_ZNSt8_Rb_treeINSt7__cxx1112basic_stringIcSt11char_traitsIcESaIcEEESt4pairIKS5_N12media_player6models14MediaFileModelEESt10_Select1stISB_ESt4lessIS5_ESaISB_EE12_M_drop_nodeEPSt13_Rb_tree_nodeISB_E
FNDA:34,_ZNSt8_Rb_treeINSt7__cxx1112basic_stringIcSt11char_traitsIcESaIcEEESt4pairIKS5_N12media_player6models13PlaylistModelEESt10_Select1stISB_ESt4lessIS5_ESaISB_EE13_Rb_tree_implISF_Lb1EEC2Ev
FNDA:58,_ZNSt8_Rb_treeINSt7__cxx1112basic_stringIcSt11char_traitsIcESaIcEEESt4pairIKS5_N12media_player6models14MediaFileModelEESt10_Select1stISB_ESt4lessIS5_ESaISB_EE13_Rb_tree_implISF_Lb1EEC2Ev
FNDA:6,_ZNSt8_Rb_treeINSt7__cxx1112basic_stringIcSt11char_traitsIcESaIcEEESt4pairIKS5_N12media_player6models13PlaylistModelEESt10_Select1stISB_ESt4lessIS5_ESaISB_EE11_M_leftmostEv
FNDA:2,_ZNSt8_Rb_treeINSt7__cxx1112basic_stringIcSt11char_traitsIcESaIcEEESt4pairIKS5_N12media_player6models14MediaFileModelEESt10_Select1stISB_ESt4lessIS5_ESaISB_EE11_M_leftmostEv
FNDA:14,_ZNSt8_Rb_treeINSt7__cxx1112basic_stringIcSt11char_traitsIcESaIcEEESt4pairIKS5_N12media_player6models13PlaylistModelEESt10_Select1stISB_ESt4lessIS5_ESaISB_EE12_M_rightmostEv
FNDA:30,_ZNSt8_Rb_treeINSt7__cxx1112basic_stringIcSt11char_traitsIcESaIcEEESt4pairIKS5_N12media_player6models14MediaFileModelEESt10_Select1stISB_ESt4lessIS5_ESaISB_EE12_M_rightmostEv
FNDA:135,_ZNKSt8_Rb_treeINSt7__cxx1112basic_stringIcSt11char_traitsIcESaIcEEESt4pairIKS5_N12media_player6models13PlaylistModelEESt10_Select1stISB_ESt4lessIS5_ESaISB_EE9_M_mbeginEv
FNDA:132,_ZNKSt8_Rb_treeINSt7__cxx1112basic_stringIcSt11char_traitsIcESaIcEEESt4pairIKS5_N12media_player6models14MediaFileModelEESt10_Select1stISB_ESt4lessIS5_ESaISB_EE9_M_mbeginEv
FNDA:135,_ZNSt8_Rb_treeINSt7__cxx1112basic_stringIcSt11char_traitsIcESaIcEEESt4pairIKS5_N12media_player6models13PlaylistModelEESt10_Select1stISB_ESt4lessIS5_ESaISB_EE8_M_beginEv
FNDA:132,_ZNSt8_Rb_treeINSt7__cxx1112basic_stringIcSt11char_traitsIcESaIcEEESt4pairIKS5_N12media_player6models14MediaFileModelEESt10_Select1stISB_ESt4lessIS5_ESaISB_EE8_M_beginEv
FNDA:163,_ZNSt8_Rb_treeINSt7__cxx1112basic_stringIcSt11char_traitsIcESaIcEEESt4pairIKS5_N12media_player6models13PlaylistModelEESt10_Select1stISB_ESt4lessIS5_ESaISB_EE6_M_endEv
FNDA:151,_ZNSt8_Rb_treeINSt7__cxx1112basic_stringIcSt11char_traitsIcESaIcEEESt4pairIKS5_N12media_player6models14MediaFileModelEESt10_Select1stISB_ESt4lessIS5_ESaISB_EE6_M_endEv
FNDA:127,_ZNSt8_Rb_treeINSt7__cxx1112basic_stringIcSt11char_traitsIcESaIcEEESt4pairIKS5_N12media_player6models13PlaylistModelEESt10_Select1stISB_ESt4lessIS5_ESaISB_EE6_S_keyEPKSt13_Rb_tree_nodeISB_E
FNDA:121,_ZNSt8_Rb_treeINSt7__cxx1112basic_stringIcSt11char_traitsIcESaIcEEESt4pairIKS5_N12media_player6models14MediaFileModelEESt10_Select1stISB_ESt4lessIS5_ESaISB_EE6_S_keyEPKSt13_Rb_tree_nodeISB_E
FNDA:64,_ZNSt8_Rb_treeINSt7__cxx1112basic_stringIcSt11char_traitsIcESaIcEEESt4pairIKS5_N12media_player6models13PlaylistModelEESt10_Select1stISB_ESt4lessIS5_ESaISB_EE7_S_leftEPSt18_Rb_tree_node_base
FNDA:47,_ZNSt8_Rb_treeINSt7__cxx1112basic_stringIcSt11char_traitsIcESaIcEEESt4pairIKS5_N12media_player6models14MediaFileModelEESt10_Select1stISB_ESt4lessIS5_ESaISB_EE7_S_leftEPSt18_Rb_tree_node_base
FNDA:43,_ZNSt8_Rb_treeINSt7__cxx1112basic_stringIcSt11char_traitsIcESaIcEEESt4pairIKS5_N12media_player6models13PlaylistModelEESt10_Select1stISB_ESt4lessIS5_ESaISB_EE8_S_rightEPSt18_Rb_tree_node_base
FNDA:61,_ZNSt8_Rb_treeINSt7__cxx1112basic_stringIcSt11char_traitsIcESaIcEEESt4pairIKS5_N12media_player6models14MediaFileModelEESt10_Select1stISB_ESt4lessIS5_ESaISB_EE8_S_rightEPSt18_Rb_tree_node_base
FNDA:40,_ZNSt8_Rb_treeINSt7__cxx1112basic_stringIcSt11char_traitsIcESaIcEEESt4pairIKS5_N12media_player6models13PlaylistModelEESt10_Select1stISB_ESt4lessIS5_ESaISB_EE6_S_keyEPKSt18_Rb_tree_node_base
FNDA:38,_ZNSt8_Rb_treeINSt7__cxx1112basic_stringIcSt11char_traitsIcESaIcEEESt4pairIKS5_N12media_player6models14MediaFileModelEESt10_Select1stISB_ESt4lessIS5_ESaISB_EE6_S_keyEPKSt18_Rb_tree_node_base
FNDA:34,_ZNSt8_Rb_treeINSt7__cxx1112basic_stringIcSt11char_traitsIcESaIcEEESt4pairIKS5_N12media_player6models13PlaylistModelEESt10_Select1stISB_ESt4lessIS5_ESaISB_EEC2Ev
FNDA:58,_ZNSt8_Rb_treeINSt7__cxx1112basic_stringIcSt11char_traitsIcESaIcEEESt4pairIKS5_N12media_player6models14MediaFileModelEESt10_Select1stISB_ESt4lessIS5_ESaISB_EEC2Ev
FNDA:34,_ZNSt8_Rb_treeINSt7__cxx1112basic_stringIcSt11char_traitsIcESaIcEEESt4pairIKS5_N12media_player6models13PlaylistModelEESt10_Select1stISB_ESt4lessIS5_ESaISB_EED2Ev
FNDA:58,_ZNSt8_Rb_treeINSt7__cxx1112basic_stringIcSt11char_traitsIcESaIcEEESt4pairIKS5_N12media_player6models14MediaFileModelEESt10_Select1stISB_ESt4lessIS5_ESaISB_EED2Ev
FNDA:9,_ZNKSt8_Rb_treeINSt7__cxx1112basic_stringIcSt11char_traitsIcESaIcEEESt4pairIKS5_N12media_player6models13PlaylistModelEESt10_Select1stISB_ESt4lessIS5_ESaISB_EE8key_compEv
FNDA:4,_ZNKSt8_Rb_treeINSt7__cxx1112basic_stringIcSt11char_traitsIcESaIcEEESt4pairIKS5_N12media_player6models14MediaFileModelEESt10_Select1stISB_ESt4lessIS5_ESaISB_EE8key_compEv
FNDA:79,_ZNSt8_Rb_treeINSt7__cxx1112basic_stringIcSt11char_traitsIcESaIcEEESt4pairIKS5_N12media_player6models13PlaylistModelEESt10_Select1stISB_ESt4lessIS5_ESaISB_EE5beginEv
FNDA:95,_ZNSt8_Rb_treeINSt7__cxx1112basic_stringIcSt11char_traitsIcESaIcEEESt4pairIKS5_N12media_player6models14MediaFileModelEESt10_Select1stISB_ESt4lessIS5_ESaISB_EE5beginEv
FNF:111
FNH:107
BRDA:1207,0,0,0
BRDA:1207,0,1,4
BRDA:1207,0,2,0
BRDA:1207,0,3,0
BRDA:1207,0,4,0
BRDA:1207,0,5,4
BRDA:1642,0,0,0
BRDA:1642,0,1,73
BRDA:1657,0,0,73
BRDA:1657,e0,1,0
BRDA:1934,0,0,69
BRDA:1934,0,1,164
BRDA:1951,0,0,75
BRDA:1951,0,1,125
BRDA:1952,0,0,42
BRDA:1952,0,1,33
BRDA:2115,0,0,0
BRDA:2115,0,1,47
BRDA:2118,0,0,-
BRDA:2118,e0,1,-
BRDA:2119,0,0,-
BRDA:2119,0,1,-
BRDA:2122,0,0,47
BRDA:2122,0,1,0
BRDA:2124,0,0,47
BRDA:2124,0,1,0
BRDA:2129,0,0,-
BRDA:2129,e0,1,-
BRDA:2129,0,2,-
BRDA:2129,0,3,-
BRDA:2218,0,0,69
BRDA:2218,0,1,4
BRDA:2221,0,0,22
BRDA:2221,0,1,47
BRDA:2221,0,2,22
BRDA:2221,e0,3,0
BRDA:2221,0,4,22
BRDA:2221,0,5,0
BRDA:2221,0,6,22
BRDA:2221,0,7,47
BRDA:2224,0,0,47
BRDA:2224,e0,1,0
BRDA:2226,0,0,4
BRDA:2226,e0,1,0
BRDA:2226,0,2,4
BRDA:2226,0,3,0
BRDA:2230,0,0,2
BRDA:2230,0,1,2
BRDA:2232,0,0,2
BRDA:2232,e0,1,0
BRDA:2232,0,2,2
BRDA:2232,0,3,0
BRDA:2234,0,0,0
BRDA:2234,0,1,2
BRDA:2240,0,0,-
BRDA:2240,e0,1,-
BRDA:2242,0,0,-
BRDA:2242,e0,1,-
BRDA:2242,0,2,-
BRDA:2242,0,3,-
BRDA:2246,0,0,-
BRDA:2246,0,1,-
BRDA:2248,0,0,-
BRDA:2248,e0,1,-
BRDA:2248,0,2,-
BRDA:2248,0,3,-
BRDA:2250,0,0,-
BRDA:2250,0,1,-
BRDA:2256,0,0,-
BRDA:2256,e0,1,-
BRDA:2381,0,0,22
BRDA:2381,0,1,47
BRDA:2382,0,0,69
BRDA:2382,0,1,4
BRDA:2382,0,2,0
BRDA:2382,0,3,22
BRDA:2462,0,0,73
BRDA:2462,e0,1,0
BRDA:2463,0,0,73
BRDA:2463,e0,1,0
BRDA:2463,0,2,73
BRDA:2463,e0,3,0
BRDA:2464,0,0,73
BRDA:2464,0,1,0
BRDA:2465,0,0,73
BRDA:2465,e0,1,0
BRDA:2532,0,0,43
BRDA:2532,e0,1,0
BRDA:2534,0,0,0
BRDA:2534,0,1,28
BRDA:2535,0,0,28
BRDA:2535,0,1,15
BRDA:2535,0,2,28
BRDA:2535,e0,3,0
BRF:94
BRH:44
DA:146,0
DA:150,0
DA:173,0
DA:174,0
DA:175,0
DA:176,0
DA:177,0
DA:206,0
DA:208,0
DA:209,0
DA:210,0
DA:211,0
DA:212,0
DA:234,359
DA:235,359
DA:238,255
DA:239,255
DA:273,802
DA:274,802
DA:277,195
DA:278,195
DA:281,18
DA:282,18
DA:285,98
DA:287,98
DA:288,98
DA:300,2
DA:302,2
DA:303,2
DA:315,188
DA:316,188
DA:320,248
DA:321,248
DA:347,10
DA:348,10
DA:350,77
DA:351,77
DA:354,73
DA:355,73
DA:358,7
DA:359,7
DA:366,7
DA:368,7
DA:369,7
DA:401,12
DA:402,12
DA:549,292
DA:550,292
DA:562,73
DA:563,146
DA:566,73
DA:567,73
DA:592,73
DA:596,73
DA:597,73
DA:601,0
DA:603,0
DA:604,0
DA:605,0
DA:607,73
DA:611,73
DA:613,73
DA:614,73
DA:615,73
DA:620,73
DA:625,73
DA:626,73
DA:628,73
DA:631,73
DA:633,73
DA:634,73
DA:635,73
DA:669,92
DA:673,92
DA:674,92
DA:720,8
DA:721,8
DA:728,44
DA:729,44
DA:736,267
DA:737,267
DA:740,267
DA:741,267
DA:751,314
DA:752,314
DA:759,248
DA:777,248
DA:781,111
DA:782,111
DA:789,104
DA:790,104
DA:797,78
DA:798,78
DA:930,92
DA:985,92
DA:986,92
DA:993,13
DA:994,13
DA:997,174
DA:998,174
DA:1001,5
DA:1002,5
DA:1005,310
DA:1006,310
DA:1009,5
DA:1010,5
DA:1033,161
DA:1034,161
DA:1205,4
DA:1207,4
DA:1208,4
DA:1209,4
DA:1210,4
DA:1211,4
DA:1253,3
DA:1255,3
DA:1256,3
DA:1257,3
DA:1270,82
DA:1271,82
DA:1635,73
DA:1636,73
DA:1637,73
DA:1638,73
DA:1640,73
DA:1642,73
DA:1643,0
DA:1644,73
DA:1651,73
DA:1652,73
DA:1655,73
DA:1657,73
DA:1658,73
DA:1659,73
DA:1930,164
DA:1934,233
DA:1936,69
DA:1937,69
DA:1938,69
DA:1939,69
DA:1941,164
DA:1947,125
DA:1951,200
DA:1952,75
DA:1953,42
DA:1955,33
DA:1956,125
DA:2108,47
DA:2112,47
DA:2113,47
DA:2114,47
DA:2115,47
DA:2117,0
DA:2118,0
DA:2119,0
DA:2121,47
DA:2122,47
DA:2124,47
DA:2125,47
DA:2127,0
DA:2129,0
DA:2130,0
DA:2131,0
DA:2210,73
DA:2214,73
DA:2218,73
DA:2220,69
DA:2221,69
DA:2222,22
DA:2224,47
DA:2226,4
DA:2229,4
DA:2230,4
DA:2231,2
DA:2232,2
DA:2234,2
DA:2235,0
DA:2237,2
DA:2240,0
DA:2242,0
DA:2245,0
DA:2246,0
DA:2247,0
DA:2248,0
DA:2250,0
DA:2251,0
DA:2253,0
DA:2256,0
DA:2260,0
DA:2377,73
DA:2381,69
DA:2382,142
DA:2385,73
DA:2386,73
DA:2387,73
DA:2388,73
DA:2458,73
DA:2462,73
DA:2463,73
DA:2464,73
DA:2465,73
DA:2466,0
DA:2467,73
DA:2489,4
DA:2494,4
DA:2495,4
DA:2496,4
DA:2497,4
DA:2498,4
DA:2529,43
DA:2532,43
DA:2533,86
DA:2534,28
DA:2535,114
LF:214
LH:176
end_of_record
TN:
SF:/usr/include/c++/13/bits/stl_uninitialized.h
FN:1069,1079,_ZSt19__relocate_object_aIN12media_player12repositories20PlaybackHistoryEntryES2_SaIS2_EEvPT_PT0_RT1_
FN:1069,1079,_ZSt19__relocate_object_aIN12media_player6models13PlaylistModelES2_SaIS2_EEvPT_PT0_RT1_
FN:1069,1079,_ZSt19__relocate_object_aIN12media_player6models14MediaFileModelES2_SaIS2_EEvPT_PT0_RT1_
FN:1069,1079,_ZSt19__relocate_object_aIZN12media_player12repositories18PlaylistRepository19deserializePlaylistERKNSt7__cxx1112basic_stringIcSt11char_traitsIcESaIcEEEE8ItemLineSB_SaISB_EEvPT_PT0_RT1_
FN:1091,1108,_ZSt14__relocate_a_1IPN12media_player12repositories20PlaybackHistoryEntryES3_SaIS2_EET0_T_S6_S5_RT1_
FN:1091,1108,_ZSt14__relocate_a_1IPN12media_player6models13PlaylistModelES3_SaIS2_EET0_T_S6_S5_RT1_
FN:1091,1108,_ZSt14__relocate_a_1IPN12media_player6models14MediaFileModelES3_SaIS2_EET0_T_S6_S5_RT1_
FN:1091,1108,_ZSt14__relocate_a_1IPZN12media_player12repositories18PlaylistRepository19deserializePlaylistERKNSt7__cxx1112basic_stringIcSt11char_traitsIcESaIcEEEE8ItemLineSC_SaISB_EET0_T_SF_SE_RT1_
FN:113,128,_ZSt16__do_uninit_copyIN9__gnu_cxx17__normal_iteratorIPKN12media_player6models14MediaFileModelESt6vectorIS4_SaIS4_EEEEPS4_ET0_T_SD_SC_
FN:113,128,_ZSt16__do_uninit_copyIPN12media_player6models14MediaFileModelES3_ET0_T_S5_S4_
FN:113,128,_ZSt16__do_uninit_copyISt15_Deque_iteratorIN12media_player12repositories20PlaybackHistoryEntryERKS3_PS4_EPS3_ET0_T_SA_S9_
FN:1141,1150,_ZSt12__relocate_aIPN12media_player12repositories20PlaybackHistoryEntryES3_SaIS2_EET0_T_S6_S5_RT1_
FN:1141,1150,_ZSt12__relocate_aIPN12media_player6models13PlaylistModelES3_SaIS2_EET0_T_S6_S5_RT1_
FN:1141,1150,_ZSt12__relocate_aIPN12media_player6models14MediaFileModelES3_SaIS2_EET0_T_S6_S5_RT1_
FN:1141,1150,_ZSt12__relocate_aIPZN12media_player12repositories18PlaylistRepository19deserializePlaylistERKNSt7__cxx1112basic_stringIcSt11char_traitsIcESaIcEEEE8ItemLineSC_SaISB_EET0_T_SF_SE_RT1_
FN:135,137,_ZNSt20__uninitialized_copyILb0EE13__uninit_copyIN9__gnu_cxx17__normal_iteratorIPKN12media_player6models14MediaFileModelESt6vectorIS6_SaIS6_EEEEPS6_EET0_T_SF_SE_
FN:135,137,_ZNSt20__uninitialized_copyILb0EE13__uninit_copyIPN12media_player6models14MediaFileModelES5_EET0_T_S7_S6_
FN:135,137,_ZNSt20__uninitialized_copyILb0EE13__uninit_copyISt15_Deque_iteratorIN12media_player12repositories20PlaybackHistoryEntryERKS5_PS6_EPS5_EET0_T_SC_SB_
FN:163,186,_ZSt18uninitialized_copyIN9__gnu_cxx17__normal_iteratorIPKN12media_player6models14MediaFileModelESt6vectorIS4_SaIS4_EEEEPS4_ET0_T_SD_SC_
FN:163,186,_ZSt18uninitialized_copyIPN12media_player6models14MediaFileModelES3_ET0_T_S5_S4_
FN:163,186,_ZSt18uninitialized_copyISt15_Deque_iteratorIN12media_player12repositories20PlaybackHistoryEntryERKS3_PS4_EPS3_ET0_T_SA_S9_
FN:366,374,_ZSt22__uninitialized_copy_aIN9__gnu_cxx17__normal_iteratorIPKN12media_player6models14MediaFileModelESt6vectorIS4_SaIS4_EEEEPS4_S4_ET0_T_SD_SC_RSaIT1_E
FN:366,374,_ZSt22__uninitialized_copy_aIPN12media_player6models14MediaFileModelES3_S2_ET0_T_S5_S4_RSaIT1_E
FN:366,374,_ZSt22__uninitialized_copy_aISt15_Deque_iteratorIN12media_player12repositories20PlaybackHistoryEntryERKS3_PS4_EPS3_S3_ET0_T_SA_S9_RSaIT1_E
FNDA:0,_ZSt19__relocate_object_aIN12media_player12repositories20PlaybackHistoryEntryES2_SaIS2_EEvPT_PT0_RT1_
FNDA:0,_ZSt19__relocate_object_aIN12media_player6models13PlaylistModelES2_SaIS2_EEvPT_PT0_RT1_
FNDA:0,_ZSt19__relocate_object_aIN12media_player6models14MediaFileModelES2_SaIS2_EEvPT_PT0_RT1_
FNDA:1,_ZSt19__relocate_object_aIZN12media_player12repositories18PlaylistRepository19deserializePlaylistERKNSt7__cxx1112basic_stringIcSt11char_traitsIcESaIcEEEE8ItemLineSB_SaISB_EEvPT_PT0_RT1_
FNDA:0,_ZSt14__relocate_a_1IPN12media_player12repositories20PlaybackHistoryEntryES3_SaIS2_EET0_T_S6_S5_RT1_
FNDA:0,_ZSt14__relocate_a_1IPN12media_player6models13PlaylistModelES3_SaIS2_EET0_T_S6_S5_RT1_
FNDA:0,_ZSt14__relocate_a_1IPN12media_player6models14MediaFileModelES3_SaIS2_EET0_T_S6_S5_RT1_
FNDA:6,_ZSt14__relocate_a_1IPZN12media_player12repositories18PlaylistRepository19deserializePlaylistERKNSt7__cxx1112basic_stringIcSt11char_traitsIcESaIcEEEE8ItemLineSC_SaISB_EET0_T_SF_SE_RT1_
FNDA:0,_ZSt16__do_uninit_copyIN9__gnu_cxx17__normal_iteratorIPKN12media_player6models14MediaFileModelESt6vectorIS4_SaIS4_EEEEPS4_ET0_T_SD_SC_
FNDA:0,_ZSt16__do_uninit_copyIPN12media_player6models14MediaFileModelES3_ET0_T_S5_S4_
FNDA:52,_ZSt16__do_uninit_copyISt15_Deque_iteratorIN12media_player12repositories20PlaybackHistoryEntryERKS3_PS4_EPS3_ET0_T_SA_S9_
FNDA:0,_ZSt12__relocate_aIPN12media_player12repositories20PlaybackHistoryEntryES3_SaIS2_EET0_T_S6_S5_RT1_
FNDA:0,_ZSt12__relocate_aIPN12media_player6models13PlaylistModelES3_SaIS2_EET0_T_S6_S5_RT1_
FNDA:0,_ZSt12__relocate_aIPN12media_player6models14MediaFileModelES3_SaIS2_EET0_T_S6_S5_RT1_
FNDA:6,_ZSt12__relocate_aIPZN12media_player12repositories18PlaylistRepository19deserializePlaylistERKNSt7__cxx1112basic_stringIcSt11char_traitsIcESaIcEEEE8ItemLineSC_SaISB_EET0_T_SF_SE_RT1_
FNDA:0,_ZNSt20__uninitialized_copyILb0EE13__uninit_copyIN9__gnu_cxx17__normal_iteratorIPKN12media_player6models14MediaFileModelESt6vectorIS6_SaIS6_EEEEPS6_EET0_T_SF_SE_
FNDA:0,_ZNSt20__uninitialized_copyILb0EE13__uninit_copyIPN12media_player6models14MediaFileModelES5_EET0_T_S7_S6_
FNDA:52,_ZNSt20__uninitialized_copyILb0EE13__uninit_copyISt15_Deque_iteratorIN12media_player12repositories20PlaybackHistoryEntryERKS5_PS6_EPS5_EET0_T_SC_SB_
FNDA:0,_ZSt18uninitialized_copyIN9__gnu_cxx17__normal_iteratorIPKN12media_player6models14MediaFileModelESt6vectorIS4_SaIS4_EEEEPS4_ET0_T_SD_SC_
FNDA:0,_ZSt18uninitialized_copyIPN12media_player6models14MediaFileModelES3_ET0_T_S5_S4_
FNDA:52,_ZSt18uninitialized_copyISt15_Deque_iteratorIN12media_player12repositories20PlaybackHistoryEntryERKS3_PS4_EPS3_ET0_T_SA_S9_
FNDA:0,_ZSt22__uninitialized_copy_aIN9__gnu_cxx17__normal_iteratorIPKN12media_player6models14MediaFileModelESt6vectorIS4_SaIS4_EEEEPS4_S4_ET0_T_SD_SC_RSaIT1_E
FNDA:0,_ZSt22__uninitialized_copy_aIPN12media_player6models14MediaFileModelES3_S2_ET0_T_S5_S4_RSaIT1_E
FNDA:52,_ZSt22__uninitialized_copy_aISt15_Deque_iteratorIN12media_player12repositories20PlaybackHistoryEntryERKS3_PS4_EPS3_S3_ET0_T_SA_S9_RSaIT1_E
FNF:24
FNH:7
BRDA:119,0,0,317
BRDA:119,0,1,52
BRDA:120,0,0,317
BRDA:120,e0,1,0
BRDA:125,0,0,0
BRDA:125,e0,1,0
BRDA:137,0,0,52
BRDA:137,e0,1,0
BRDA:185,0,0,52
BRDA:185,e0,1,0
BRDA:373,0,0,52
BRDA:373,e0,1,0
BRDA:1104,0,0,1
BRDA:1104,0,1,6
BRF:14
BRH:8
DA:113,52
DA:116,52
DA:119,369
DA:120,317
DA:121,52
DA:123,0
DA:125,0
DA:126,0
DA:135,52
DA:137,52
DA:163,52
DA:174,52
DA:181,52
DA:185,52
DA:366,52
DA:373,52
DA:1069,1
DA:1077,1
DA:1078,1
DA:1079,1
DA:1091,6
DA:1103,6
DA:1104,7
DA:1105,1
DA:1107,6
DA:1141,6
DA:1147,6
DA:1149,6
LF:28
LH:25
end_of_record
TN:
SF:/usr/include/c++/13/bits/stl_vector.h
FN:105,108,_ZNSt12_Vector_baseIN12media_player6models14MediaFileModelESaIS2_EE17_Vector_impl_dataC2EOS5_
FN:1078,1080,_ZNKSt6vectorIN12media_player12repositories20PlaybackHistoryEntryESaIS2_EE8capacityEv
FN:1078,1080,_ZNKSt6vectorIN12media_player6models13PlaylistModelESaIS2_EE8capacityEv
FN:1078,1080,_ZNKSt6vectorIN12media_player6models14MediaFileModelESaIS2_EE8capacityEv
FN:1281,1293,_ZNSt6vectorIN12media_player12repositories20PlaybackHistoryEntryESaIS2_EE9push_backERKS2_
FN:1281,1293,_ZNSt6vectorIN12media_player6models13PlaylistModelESaIS2_EE9push_backERKS2_
FN:1281,1293,_ZNSt6vectorIN12media_player6models14MediaFileModelESaIS2_EE9push_backERKS2_
FN:1281,1293,_ZNSt6vectorIZN12media_player12repositories18PlaylistRepository19deserializePlaylistERKNSt7__cxx1112basic_stringIcSt11char_traitsIcESaIcEEEE8ItemLineSaISB_EE9push_backERKSB_
FN:137,143,_ZNSt12_Vector_baseIN12media_player12repositories20PlaybackHistoryEntryESaIS2_EE12_Vector_implC2Ev
FN:137,143,_ZNSt12_Vector_baseIN12media_player6models13PlaylistModelESaIS2_EE12_Vector_implC2Ev
FN:137,143,_ZNSt12_Vector_baseIN12media_player6models14MediaFileModelESaIS2_EE12_Vector_implC2Ev
FN:137,143,_ZNSt12_Vector_baseIZN12media_player12repositories18PlaylistRepository19deserializePlaylistERKNSt7__cxx1112basic_stringIcSt11char_traitsIcESaIcEEEE8ItemLineSaISB_EE12_Vector_implC2Ev
FN:146,148,_ZNSt12_Vector_baseIN12media_player12repositories20PlaybackHistoryEntryESaIS2_EE12_Vector_implC2ERKS3_
FN:146,148,_ZNSt12_Vector_baseIN12media_player6models14MediaFileModelESaIS2_EE12_Vector_implC2ERKS3_
FN:154,156,_ZNSt12_Vector_baseIN12media_player6models14MediaFileModelESaIS2_EE12_Vector_implC2EOS5_
FN:1605,1606,_ZNSt6vectorIN12media_player6models14MediaFileModelESaIS2_EE5clearEv
FN:1616,1631,_ZNSt6vectorIN12media_player6models14MediaFileModelESaIS2_EE20_M_allocate_and_copyIN9__gnu_cxx17__normal_iteratorIPKS2_S4_EEEEPS2_mT_SC_
FN:1687,1698,_ZNSt6vectorIN12media_player12repositories20PlaybackHistoryEntryESaIS2_EE19_M_range_initializeISt15_Deque_iteratorIS2_RKS2_PS7_EEEvT_SB_St20forward_iterator_tag
FN:1896,1903,_ZNKSt6vectorIN12media_player12repositories20PlaybackHistoryEntryESaIS2_EE12_M_check_lenEmPKc
FN:1896,1903,_ZNKSt6vectorIN12media_player6models13PlaylistModelESaIS2_EE12_M_check_lenEmPKc
FN:1896,1903,_ZNKSt6vectorIN12media_player6models14MediaFileModelESaIS2_EE12_M_check_lenEmPKc
FN:1896,1903,_ZNKSt6vectorIZN12media_player12repositories18PlaylistRepository19deserializePlaylistERKNSt7__cxx1112basic_stringIcSt11char_traitsIcESaIcEEEE8ItemLineSaISB_EE12_M_check_lenEmPKc
FN:1907,1913,_ZNSt6vectorIN12media_player12repositories20PlaybackHistoryEntryESaIS2_EE17_S_check_init_lenEmRKS3_
FN:1916,1925,_ZNSt6vectorIN12media_player12repositories20PlaybackHistoryEntryESaIS2_EE11_S_max_sizeERKS3_
FN:1916,1925,_ZNSt6vectorIN12media_player6models13PlaylistModelESaIS2_EE11_S_max_sizeERKS3_
FN:1916,1925,_ZNSt6vectorIN12media_player6models14MediaFileModelESaIS2_EE11_S_max_sizeERKS3_
FN:1916,1925,_ZNSt6vectorIZN12media_player12repositories18PlaylistRepository19deserializePlaylistERKNSt7__cxx1112basic_stringIcSt11char_traitsIcESaIcEEEE8ItemLineSaISB_EE11_S_max_sizeERKSC_
FN:1933,1942,_ZNSt6vectorIN12media_player6models14MediaFileModelESaIS2_EE15_M_erase_at_endEPS2_
FN:301,302,_ZNSt12_Vector_baseIN12media_player12repositories20PlaybackHistoryEntryESaIS2_EE19_M_get_Tp_allocatorEv
FN:301,302,_ZNSt12_Vector_baseIN12media_player6models13PlaylistModelESaIS2_EE19_M_get_Tp_allocatorEv
FN:301,302,_ZNSt12_Vector_baseIN12media_player6models14MediaFileModelESaIS2_EE19_M_get_Tp_allocatorEv
FN:301,302,_ZNSt12_Vector_baseIZN12media_player12repositories18PlaylistRepository19deserializePlaylistERKNSt7__cxx1112basic_stringIcSt11char_traitsIcESaIcEEEE8ItemLineSaISB_EE19_M_get_Tp_allocatorEv
FN:306,307,_ZNKSt12_Vector_baseIN12media_player12repositories20PlaybackHistoryEntryESaIS2_EE19_M_get_Tp_allocatorEv
FN:306,307,_ZNKSt12_Vector_baseIN12media_player6models13PlaylistModelESaIS2_EE19_M_get_Tp_allocatorEv
FN:306,307,_ZNKSt12_Vector_baseIN12media_player6models14MediaFileModelESaIS2_EE19_M_get_Tp_allocatorEv
FN:306,307,_ZNKSt12_Vector_baseIZN12media_player12repositories18PlaylistRepository19deserializePlaylistERKNSt7__cxx1112basic_stringIcSt11char_traitsIcESaIcEEEE8ItemLineSaISB_EE19_M_get_Tp_allocatorEv
FN:315,315,_ZNSt12_Vector_baseIN12media_player12repositories20PlaybackHistoryEntryESaIS2_EEC2Ev
FN:315,315,_ZNSt12_Vector_baseIN12media_player6models13PlaylistModelESaIS2_EEC2Ev
FN:315,315,_ZNSt12_Vector_baseIN12media_player6models14MediaFileModelESaIS2_EEC2Ev
FN:315,315,_ZNSt12_Vector_baseIZN12media_player12repositories18PlaylistRepository19deserializePlaylistERKNSt7__cxx1112basic_stringIcSt11char_traitsIcESaIcEEEE8ItemLineSaISB_EEC2Ev
FN:321,322,_ZNSt12_Vector_baseIN12media_player12repositories20PlaybackHistoryEntryESaIS2_EEC2ERKS3_
FN:333,335,_ZNSt12_Vector_baseIN12media_player6models14MediaFileModelESaIS2_EEC2EmRKS3_
FN:338,338,_ZNSt12_Vector_baseIN12media_player6models14MediaFileModelESaIS2_EEC2EOS4_
FN:367,371,_ZNSt12_Vector_baseIN12media_player12repositories20PlaybackHistoryEntryESaIS2_EED2Ev
FN:367,371,_ZNSt12_Vector_baseIN12media_player6models13PlaylistModelESaIS2_EED2Ev
FN:367,371,_ZNSt12_Vector_baseIN12media_player6models14MediaFileModelESaIS2_EED2Ev
FN:367,371,_ZNSt12_Vector_baseIZN12media_player12repositories18PlaylistRepository19deserializePlaylistERKNSt7__cxx1112basic_stringIcSt11char_traitsIcESaIcEEEE8ItemLineSaISB_EED2Ev
FN:378,382,_ZNSt12_Vector_baseIN12media_player12repositories20PlaybackHistoryEntryESaIS2_EE11_M_allocateEm
FN:378,382,_ZNSt12_Vector_baseIN12media_player6models13PlaylistModelESaIS2_EE11_M_allocateEm
FN:378,382,_ZNSt12_Vector_baseIN12media_player6models14MediaFileModelESaIS2_EE11_M_allocateEm
FN:378,382,_ZNSt12_Vector_baseIZN12media_player12repositories18PlaylistRepository19deserializePlaylistERKNSt7__cxx1112basic_stringIcSt11char_traitsIcESaIcEEEE8ItemLineSaISB_EE11_M_allocateEm
FN:386,391,_ZNSt12_Vector_baseIN12media_player12repositories20PlaybackHistoryEntryESaIS2_EE13_M_deallocateEPS2_m
FN:386,391,_ZNSt12_Vector_baseIN12media_player6models13PlaylistModelESaIS2_EE13_M_deallocateEPS2_m
FN:386,391,_ZNSt12_Vector_baseIN12media_player6models14MediaFileModelESaIS2_EE13_M_deallocateEPS2_m
FN:386,391,_ZNSt12_Vector_baseIZN12media_player12repositories18PlaylistRepository19deserializePlaylistERKNSt7__cxx1112basic_stringIcSt11char_traitsIcESaIcEEEE8ItemLineSaISB_EE13_M_deallocateEPSB_m
FN:396,401,_ZNSt12_Vector_baseIN12media_player6models14MediaFileModelESaIS2_EE17_M_create_storageEm
FN:504,514,_ZNSt6vectorIN12media_player12repositories20PlaybackHistoryEntryESaIS2_EE11_S_relocateEPS2_S5_S5_RS3_
FN:504,514,_ZNSt6vectorIN12media_player6models13PlaylistModelESaIS2_EE11_S_relocateEPS2_S5_S5_RS3_
FN:504,514,_ZNSt6vectorIN12media_player6models14MediaFileModelESaIS2_EE11_S_relocateEPS2_S5_S5_RS3_
FN:504,514,_ZNSt6vectorIZN12media_player12repositories18PlaylistRepository19deserializePlaylistERKNSt7__cxx1112basic_stringIcSt11char_traitsIcESaIcEEEE8ItemLineSaISB_EE11_S_relocateEPSB_SE_SE_RSC_
FN:531,531,_ZNSt6vectorIN12media_player12repositories20PlaybackHistoryEntryESaIS2_EEC2Ev
FN:531,531,_ZNSt6vectorIN12media_player6models13PlaylistModelESaIS2_EEC2Ev
FN:531,531,_ZNSt6vectorIN12media_player6models14MediaFileModelESaIS2_EEC2Ev
FN:531,531,_ZNSt6vectorIZN12media_player12repositories18PlaylistRepository19deserializePlaylistERKNSt7__cxx1112basic_stringIcSt11char_traitsIcESaIcEEEE8ItemLineSaISB_EEC2Ev
FN:601,609,_ZNSt6vectorIN12media_player6models14MediaFileModelESaIS2_EEC2ERKS4_
FN:620,620,_ZNSt6vectorIN12media_player6models14MediaFileModelESaIS2_EEC2EOS4_
FN:707,713,_ZNSt6vectorIN12media_player12repositories20PlaybackHistoryEntryESaIS2_EEC2ISt15_Deque_iteratorIS2_RKS2_PS7_EvEET_SB_RKS3_
FN:733,738,_ZNSt6vectorIN12media_player12repositories20PlaybackHistoryEntryESaIS2_EED2Ev
FN:733,738,_ZNSt6vectorIN12media_player6models13PlaylistModelESaIS2_EED2Ev
FN:733,738,_ZNSt6vectorIN12media_player6models14MediaFileModelESaIS2_EED2Ev
FN:733,738,_ZNSt6vectorIZN12media_player12repositories18PlaylistRepository19deserializePlaylistERKNSt7__cxx1112basic_stringIcSt11char_traitsIcESaIcEEEE8ItemLineSaISB_EED2Ev
FN:873,874,_ZNSt6vectorIN12media_player12repositories20PlaybackHistoryEntryESaIS2_EE5beginEv
FN:873,874,_ZNSt6vectorIN12media_player6models13PlaylistModelESaIS2_EE5beginEv
FN:873,874,_ZNSt6vectorIN12media_player6models14MediaFileModelESaIS2_EE5beginEv
FN:873,874,_ZNSt6vectorIZN12media_player12repositories18PlaylistRepository19deserializePlaylistERKNSt7__cxx1112basic_stringIcSt11char_traitsIcESaIcEEEE8ItemLineSaISB_EE5beginEv
FN:883,884,_ZNKSt6vectorIN12media_player12repositories20PlaybackHistoryEntryESaIS2_EE5beginEv
FN:883,884,_ZNKSt6vectorIN12media_player6models13PlaylistModelESaIS2_EE5beginEv
FN:883,884,_ZNKSt6vectorIN12media_player6models14MediaFileModelESaIS2_EE5beginEv
FN:893,894,_ZNSt6vectorIN12media_player12repositories20PlaybackHistoryEntryESaIS2_EE3endEv
FN:893,894,_ZNSt6vectorIN12media_player6models13PlaylistModelESaIS2_EE3endEv
FN:893,894,_ZNSt6vectorIN12media_player6models14MediaFileModelESaIS2_EE3endEv
FN:893,894,_ZNSt6vectorIZN12media_player12repositories18PlaylistRepository19deserializePlaylistERKNSt7__cxx1112basic_stringIcSt11char_traitsIcESaIcEEEE8ItemLineSaISB_EE3endEv
FN:903,904,_ZNKSt6vectorIN12media_player12repositories20PlaybackHistoryEntryESaIS2_EE3endEv
FN:903,904,_ZNKSt6vectorIN12media_player6models13PlaylistModelESaIS2_EE3endEv
FN:903,904,_ZNKSt6vectorIN12media_player6models14MediaFileModelESaIS2_EE3endEv
FN:99,101,_ZNSt12_Vector_baseIN12media_player12repositories20PlaybackHistoryEntryESaIS2_EE17_Vector_impl_dataC2Ev
FN:99,101,_ZNSt12_Vector_baseIN12media_player6models13PlaylistModelESaIS2_EE17_Vector_impl_dataC2Ev
FN:99,101,_ZNSt12_Vector_baseIN12media_player6models14MediaFileModelESaIS2_EE17_Vector_impl_dataC2Ev
FN:99,101,_ZNSt12_Vector_baseIZN12media_player12repositories18PlaylistRepository19deserializePlaylistERKNSt7__cxx1112basic_stringIcSt11char_traitsIcESaIcEEEE8ItemLineSaISB_EE17_Vector_impl_dataC2Ev
FN:992,993,_ZNKSt6vectorIN12media_player12repositories20PlaybackHistoryEntryESaIS2_EE4sizeEv
FN:992,993,_ZNKSt6vectorIN12media_player6models13PlaylistModelESaIS2_EE4sizeEv
FN:992,993,_ZNKSt6vectorIN12media_player6models14MediaFileModelESaIS2_EE4sizeEv
FN:992,993,_ZNKSt6vectorIZN12media_player12repositories18PlaylistRepository19deserializePlaylistERKNSt7__cxx1112basic_stringIcSt11char_traitsIcESaIcEEEE8ItemLineSaISB_EE4sizeEv
FN:998,999,_ZNKSt6vectorIN12media_player12repositories20PlaybackHistoryEntryESaIS2_EE8max_sizeEv
FN:998,999,_ZNKSt6vectorIN12media_player6models13PlaylistModelESaIS2_EE8max_sizeEv
FN:998,999,_ZNKSt6vectorIN12media_player6models14MediaFileModelESaIS2_EE8max_sizeEv
FN:998,999,_ZNKSt6vectorIZN12media_player12repositories18PlaylistRepository19deserializePlaylistERKNSt7__cxx1112basic_stringIcSt11char_traitsIcESaIcEEEE8ItemLineSaISB_EE8max_sizeEv
FNDA:0,_ZNSt12_Vector_baseIN12media_player6models14MediaFileModelESaIS2_EE17_Vector_impl_dataC2EOS5_
FNDA:0,_ZNKSt6vectorIN12media_player12repositories20PlaybackHistoryEntryESaIS2_EE8capacityEv
FNDA:5,_ZNKSt6vectorIN12media_player6models13PlaylistModelESaIS2_EE8capacityEv
FNDA:0,_ZNKSt6vectorIN12media_player6models14MediaFileModelESaIS2_EE8capacityEv
FNDA:0,_ZNSt6vectorIN12media_player12repositories20PlaybackHistoryEntryESaIS2_EE9push_backERKS2_
FNDA:6,_ZNSt6vectorIN12media_player6models13PlaylistModelESaIS2_EE9push_backERKS2_
FNDA:0,_ZNSt6vectorIN12media_player6models14MediaFileModelESaIS2_EE9push_backERKS2_
FNDA:3,_ZNSt6vectorIZN12media_player12repositories18PlaylistRepository19deserializePlaylistERKNSt7__cxx1112basic_stringIcSt11char_traitsIcESaIcEEEE8ItemLineSaISB_EE9push_backERKSB_
FNDA:0,_ZNSt12_Vector_baseIN12media_player12repositories20PlaybackHistoryEntryESaIS2_EE12_Vector_implC2Ev
FNDA:0,_ZNSt12_Vector_baseIN12media_player6models13PlaylistModelESaIS2_EE12_Vector_implC2Ev
FNDA:0,_ZNSt12_Vector_baseIN12media_player6models14MediaFileModelESaIS2_EE12_Vector_implC2Ev
FNDA:3,_ZNSt12_Vector_baseIZN12media_player12repositories18PlaylistRepository19deserializePlaylistERKNSt7__cxx1112basic_stringIcSt11char_traitsIcESaIcEEEE8ItemLineSaISB_EE12_Vector_implC2Ev
FNDA:52,_ZNSt12_Vector_baseIN12media_player12repositories20PlaybackHistoryEntryESaIS2_EE12_Vector_implC2ERKS3_
FNDA:0,_ZNSt12_Vector_baseIN12media_player6models14MediaFileModelESaIS2_EE12_Vector_implC2ERKS3_
FNDA:0,_ZNSt12_Vector_baseIN12media_player6models14MediaFileModelESaIS2_EE12_Vector_implC2EOS5_
FNDA:0,_ZNSt6vectorIN12media_player6models14MediaFileModelESaIS2_EE5clearEv
FNDA:0,_ZNSt6vectorIN12media_player6models14MediaFileModelESaIS2_EE20_M_allocate_and_copyIN9__gnu_cxx17__normal_iteratorIPKS2_S4_EEEEPS2_mT_SC_
FNDA:52,_ZNSt6vectorIN12media_player12repositories20PlaybackHistoryEntryESaIS2_EE19_M_range_initializeISt15_Deque_iteratorIS2_RKS2_PS7_EEEvT_SB_St20forward_iterator_tag
FNDA:0,_ZNKSt6vectorIN12media_player12repositories20PlaybackHistoryEntryESaIS2_EE12_M_check_lenEmPKc
FNDA:0,_ZNKSt6vectorIN12media_player6models13PlaylistModelESaIS2_EE12_M_check_lenEmPKc
FNDA:0,_ZNKSt6vectorIN12media_player6models14MediaFileModelESaIS2_EE12_M_check_lenEmPKc
FNDA:3,_ZNKSt6vectorIZN12media_player12repositories18PlaylistRepository19deserializePlaylistERKNSt7__cxx1112basic_stringIcSt11char_traitsIcESaIcEEEE8ItemLineSaISB_EE12_M_check_lenEmPKc
FNDA:52,_ZNSt6vectorIN12media_player12repositories20PlaybackHistoryEntryESaIS2_EE17_S_check_init_lenEmRKS3_
FNDA:0,_ZNSt6vectorIN12media_player12repositories20PlaybackHistoryEntryESaIS2_EE11_S_max_sizeERKS3_
FNDA:0,_ZNSt6vectorIN12media_player6models13PlaylistModelESaIS2_EE11_S_max_sizeERKS3_
FNDA:0,_ZNSt6vectorIN12media_player6models14MediaFileModelESaIS2_EE11_S_max_sizeERKS3_
FNDA:6,_ZNSt6vectorIZN12media_player12repositories18PlaylistRepository19deserializePlaylistERKNSt7__cxx1112basic_stringIcSt11char_traitsIcESaIcEEEE8ItemLineSaISB_EE11_S_max_sizeERKSC_
FNDA:0,_ZNSt6vectorIN12media_player6models14MediaFileModelESaIS2_EE15_M_erase_at_endEPS2_
FNDA:0,_ZNSt12_Vector_baseIN12media_player12repositories20PlaybackHistoryEntryESaIS2_EE19_M_get_Tp_allocatorEv
FNDA:0,_ZNSt12_Vector_baseIN12media_player6models13PlaylistModelESaIS2_EE19_M_get_Tp_allocatorEv
FNDA:0,_ZNSt12_Vector_baseIN12media_player6models14MediaFileModelESaIS2_EE19_M_get_Tp_allocatorEv
FNDA:9,_ZNSt12_Vector_baseIZN12media_player12repositories18PlaylistRepository19deserializePlaylistERKNSt7__cxx1112basic_stringIcSt11char_traitsIcESaIcEEEE8ItemLineSaISB_EE19_M_get_Tp_allocatorEv
FNDA:0,_ZNKSt12_Vector_baseIN12media_player12repositories20PlaybackHistoryEntryESaIS2_EE19_M_get_Tp_allocatorEv
FNDA:0,_ZNKSt12_Vector_baseIN12media_player6models13PlaylistModelESaIS2_EE19_M_get_Tp_allocatorEv
FNDA:0,_ZNKSt12_Vector_baseIN12media_player6models14MediaFileModelESaIS2_EE19_M_get_Tp_allocatorEv
FNDA:6,_ZNKSt12_Vector_baseIZN12media_player12repositories18PlaylistRepository19deserializePlaylistERKNSt7__cxx1112basic_stringIcSt11char_traitsIcESaIcEEEE8ItemLineSaISB_EE19_M_get_Tp_allocatorEv
FNDA:0,_ZNSt12_Vector_baseIN12media_player12repositories20PlaybackHistoryEntryESaIS2_EEC2Ev
FNDA:0,_ZNSt12_Vector_baseIN12media_player6models13PlaylistModelESaIS2_EEC2Ev
FNDA:0,_ZNSt12_Vector_baseIN12media_player6models14MediaFileModelESaIS2_EEC2Ev
FNDA:3,_ZNSt12_Vector_baseIZN12media_player12repositories18PlaylistRepository19deserializePlaylistERKNSt7__cxx1112basic_stringIcSt11char_traitsIcESaIcEEEE8ItemLineSaISB_EEC2Ev
FNDA:52,_ZNSt12_Vector_baseIN12media_player12repositories20PlaybackHistoryEntryESaIS2_EEC2ERKS3_
FNDA:0,_ZNSt12_Vector_baseIN12media_player6models14MediaFileModelESaIS2_EEC2EmRKS3_
FNDA:0,_ZNSt12_Vector_baseIN12media_player6models14MediaFileModelESaIS2_EEC2EOS4_
FNDA:0,_ZNSt12_Vector_baseIN12media_player12repositories20PlaybackHistoryEntryESaIS2_EED2Ev
FNDA:0,_ZNSt12_Vector_baseIN12media_player6models13PlaylistModelESaIS2_EED2Ev
FNDA:0,_ZNSt12_Vector_baseIN12media_player6models14MediaFileModelESaIS2_EED2Ev
FNDA:3,_ZNSt12_Vector_baseIZN12media_player12repositories18PlaylistRepository19deserializePlaylistERKNSt7__cxx1112basic_stringIcSt11char_traitsIcESaIcEEEE8ItemLineSaISB_EED2Ev
FNDA:0,_ZNSt12_Vector_baseIN12media_player12repositories20PlaybackHistoryEntryESaIS2_EE11_M_allocateEm
FNDA:0,_ZNSt12_Vector_baseIN12media_player6models13PlaylistModelESaIS2_EE11_M_allocateEm
FNDA:0,_ZNSt12_Vector_baseIN12media_player6models14MediaFileModelESaIS2_EE11_M_allocateEm
FNDA:3,_ZNSt12_Vector_baseIZN12media_player12repositories18PlaylistRepository19deserializePlaylistERKNSt7__cxx1112basic_stringIcSt11char_traitsIcESaIcEEEE8ItemLineSaISB_EE11_M_allocateEm
FNDA:0,_ZNSt12_Vector_baseIN12media_player12repositories20PlaybackHistoryEntryESaIS2_EE13_M_deallocateEPS2_m
FNDA:0,_ZNSt12_Vector_baseIN12media_player6models13PlaylistModelESaIS2_EE13_M_deallocateEPS2_m
FNDA:0,_ZNSt12_Vector_baseIN12media_player6models14MediaFileModelESaIS2_EE13_M_deallocateEPS2_m
FNDA:6,_ZNSt12_Vector_baseIZN12media_player12repositories18PlaylistRepository19deserializePlaylistERKNSt7__cxx1112basic_stringIcSt11char_traitsIcESaIcEEEE8ItemLineSaISB_EE13_M_deallocateEPSB_m
FNDA:0,_ZNSt12_Vector_baseIN12media_player6models14MediaFileModelESaIS2_EE17_M_create_storageEm
FNDA:0,_ZNSt6vectorIN12media_player12repositories20PlaybackHistoryEntryESaIS2_EE11_S_relocateEPS2_S5_S5_RS3_
FNDA:0,_ZNSt6vectorIN12media_player6models13PlaylistModelESaIS2_EE11_S_relocateEPS2_S5_S5_RS3_
FNDA:0,_ZNSt6vectorIN12media_player6models14MediaFileModelESaIS2_EE11_S_relocateEPS2_S5_S5_RS3_
FNDA:6,_ZNSt6vectorIZN12media_player12repositories18PlaylistRepository19deserializePlaylistERKNSt7__cxx1112basic_stringIcSt11char_traitsIcESaIcEEEE8ItemLineSaISB_EE11_S_relocateEPSB_SE_SE_RSC_
FNDA:0,_ZNSt6vectorIN12media_player12repositories20PlaybackHistoryEntryESaIS2_EEC2Ev
FNDA:0,_ZNSt6vectorIN12media_player6models13PlaylistModelESaIS2_EEC2Ev
FNDA:0,_ZNSt6vectorIN12media_player6models14MediaFileModelESaIS2_EEC2Ev
FNDA:3,_ZNSt6vectorIZN12media_player12repositories18PlaylistRepository19deserializePlaylistERKNSt7__cxx1112basic_stringIcSt11char_traitsIcESaIcEEEE8ItemLineSaISB_EEC2Ev
FNDA:0,_ZNSt6vectorIN12media_player6models14MediaFileModelESaIS2_EEC2ERKS4_
FNDA:0,_ZNSt6vectorIN12media_player6models14MediaFileModelESaIS2_EEC2EOS4_
FNDA:52,_ZNSt6vectorIN12media_player12repositories20PlaybackHistoryEntryESaIS2_EEC2ISt15_Deque_iteratorIS2_RKS2_PS7_EvEET_SB_RKS3_
FNDA:0,_ZNSt6vectorIN12media_player12repositories20PlaybackHistoryEntryESaIS2_EED2Ev
FNDA:0,_ZNSt6vectorIN12media_player6models13PlaylistModelESaIS2_EED2Ev
FNDA:0,_ZNSt6vectorIN12media_player6models14MediaFileModelESaIS2_EED2Ev
FNDA:3,_ZNSt6vectorIZN12media_player12repositories18PlaylistRepository19deserializePlaylistERKNSt7__cxx1112basic_stringIcSt11char_traitsIcESaIcEEEE8ItemLineSaISB_EED2Ev
FNDA:0,_ZNSt6vectorIN12media_player12repositories20PlaybackHistoryEntryESaIS2_EE5beginEv
FNDA:0,_ZNSt6vectorIN12media_player6models13PlaylistModelESaIS2_EE5beginEv
FNDA:0,_ZNSt6vectorIN12media_player6models14MediaFileModelESaIS2_EE5beginEv
FNDA:6,_ZNSt6vectorIZN12media_player12repositories18PlaylistRepository19deserializePlaylistERKNSt7__cxx1112basic_stringIcSt11char_traitsIcESaIcEEEE8ItemLineSaISB_EE5beginEv
FNDA:0,_ZNKSt6vectorIN12media_player12repositories20PlaybackHistoryEntryESaIS2_EE5beginEv
FNDA:0,_ZNKSt6vectorIN12media_player6models13PlaylistModelESaIS2_EE5beginEv
FNDA:0,_ZNKSt6vectorIN12media_player6models14MediaFileModelESaIS2_EE5beginEv
FNDA:0,_ZNSt6vectorIN12media_player12repositories20PlaybackHistoryEntryESaIS2_EE3endEv
FNDA:0,_ZNSt6vectorIN12media_player6models13PlaylistModelESaIS2_EE3endEv
FNDA:0,_ZNSt6vectorIN12media_player6models14MediaFileModelESaIS2_EE3endEv
FNDA:6,_ZNSt6vectorIZN12media_player12repositories18PlaylistRepository19deserializePlaylistERKNSt7__cxx1112basic_stringIcSt11char_traitsIcESaIcEEEE8ItemLineSaISB_EE3endEv
FNDA:0,_ZNKSt6vectorIN12media_player12repositories20PlaybackHistoryEntryESaIS2_EE3endEv
FNDA:0,_ZNKSt6vectorIN12media_player6models13PlaylistModelESaIS2_EE3endEv
FNDA:0,_ZNKSt6vectorIN12media_player6models14MediaFileModelESaIS2_EE3endEv
FNDA:0,_ZNSt12_Vector_baseIN12media_player12repositories20PlaybackHistoryEntryESaIS2_EE17_Vector_impl_dataC2Ev
FNDA:0,_ZNSt12_Vector_baseIN12media_player6models13PlaylistModelESaIS2_EE17_Vector_impl_dataC2Ev
FNDA:0,_ZNSt12_Vector_baseIN12media_player6models14MediaFileModelESaIS2_EE17_Vector_impl_dataC2Ev
FNDA:3,_ZNSt12_Vector_baseIZN12media_player12repositories18PlaylistRepository19deserializePlaylistERKNSt7__cxx1112basic_stringIcSt11char_traitsIcESaIcEEEE8ItemLineSaISB_EE17_Vector_impl_dataC2Ev
FNDA:0,_ZNKSt6vectorIN12media_player12repositories20PlaybackHistoryEntryESaIS2_EE4sizeEv
FNDA:0,_ZNKSt6vectorIN12media_player6models13PlaylistModelESaIS2_EE4sizeEv
FNDA:0,_ZNKSt6vectorIN12media_player6models14MediaFileModelESaIS2_EE4sizeEv
FNDA:12,_ZNKSt6vectorIZN12media_player12repositories18PlaylistRepository19deserializePlaylistERKNSt7__cxx1112basic_stringIcSt11char_traitsIcESaIcEEEE8ItemLineSaISB_EE4sizeEv
FNDA:0,_ZNKSt6vectorIN12media_player12repositories20PlaybackHistoryEntryESaIS2_EE8max_sizeEv
FNDA:0,_ZNKSt6vectorIN12media_player6models13PlaylistModelESaIS2_EE8max_sizeEv
FNDA:0,_ZNKSt6vectorIN12media_player6models14MediaFileModelESaIS2_EE8max_sizeEv
FNDA:6,_ZNKSt6vectorIZN12media_player12repositories18PlaylistRepository19deserializePlaylistERKNSt7__cxx1112basic_stringIcSt11char_traitsIcESaIcEEEE8ItemLineSaISB_EE8max_sizeEv
FNF:97
FNH:25
BRDA:335,0,0,-
BRDA:335,e0,1,-
BRDA:381,0,0,3
BRDA:381,0,1,0
BRDA:389,0,0,3
BRDA:389,0,1,3
BRDA:603,0,0,-
BRDA:603,e0,1,-
BRDA:606,0,0,-
BRDA:606,e0,1,-
BRDA:711,0,0,52
BRDA:711,e0,1,0
BRDA:1283,0,0,3
BRDA:1283,0,1,6
BRDA:1622,0,0,-
BRDA:1622,e0,1,-
BRDA:1628,0,0,0
BRDA:1628,e0,1,0
BRDA:1695,0,0,52
BRDA:1695,e0,1,0
BRDA:1898,0,0,0
BRDA:1898,0,1,3
BRDA:1902,0,0,3
BRDA:1902,0,1,0
BRDA:1902,0,2,0
BRDA:1902,0,3,3
BRDA:1909,0,0,0
BRDA:1909,0,1,52
BRDA:1935,0,0,-
BRDA:1935,0,1,-
BRF:30
BRH:11
DA:99,3
DA:100,3
DA:101,3
DA:105,0
DA:106,0
DA:107,0
DA:108,0
DA:137,3
DA:142,3
DA:143,3
DA:146,52
DA:147,52
DA:148,52
DA:154,0
DA:155,0
DA:156,0
DA:301,9
DA:302,9
DA:306,6
DA:307,6
DA:315,3
DA:321,52
DA:322,52
DA:333,0
DA:334,0
DA:335,0
DA:338,0
DA:367,3
DA:369,3
DA:370,3
DA:371,3
DA:378,3
DA:381,6
DA:386,6
DA:389,6
DA:390,3
DA:391,6
DA:396,0
DA:398,0
DA:399,0
DA:400,0
DA:401,0
DA:504,6
DA:509,6
DA:531,3
DA:601,0
DA:603,0
DA:605,0
DA:606,0
DA:608,0
DA:609,0
DA:620,0
DA:707,52
DA:709,52
DA:711,52
DA:712,52
DA:713,52
DA:733,3
DA:735,3
DA:736,3
DA:738,3
DA:873,6
DA:874,6
DA:883,0
DA:884,0
DA:893,6
DA:894,6
DA:903,0
DA:904,0
DA:992,12
DA:993,12
DA:998,6
DA:999,6
DA:1078,5
DA:1079,5
DA:1080,5
DA:1281,9
DA:1283,9
DA:1286,3
DA:1288,3
DA:1292,6
DA:1293,9
DA:1605,0
DA:1606,0
DA:1616,0
DA:1619,0
DA:1622,0
DA:1623,0
DA:1624,0
DA:1626,0
DA:1628,0
DA:1629,0
DA:1687,52
DA:1690,52
DA:1692,52
DA:1693,52
DA:1694,52
DA:1695,52
DA:1697,52
DA:1698,52
DA:1896,3
DA:1898,3
DA:1899,0
DA:1901,3
DA:1902,3
DA:1907,52
DA:1909,52
DA:1910,0
DA:1912,52
DA:1916,6
DA:1921,6
DA:1923,6
DA:1924,6
DA:1933,0
DA:1935,0
DA:1937,0
DA:1938,0
DA:1939,0
DA:1942,0
LF:119
LH:74
end_of_record
TN:
SF:/usr/include/c++/13/bits/unique_ptr.h
FN:197,197,_ZNSt15__uniq_ptr_implINSt10filesystem7__cxx114path5_List5_ImplENS3_13_Impl_deleterEE6_M_ptrEv
FN:201,201,_ZNSt15__uniq_ptr_implINSt10filesystem7__cxx114path5_List5_ImplENS3_13_Impl_deleterEE10_M_deleterEv
FN:398,406,_ZNSt10unique_ptrINSt10filesystem7__cxx114path5_List5_ImplENS3_13_Impl_deleterEED2Ev
FN:475,476,_ZNSt10unique_ptrINSt10filesystem7__cxx114path5_List5_ImplENS3_13_Impl_deleterEE11get_deleterEv
FNDA:0,_ZNSt15__uniq_ptr_implINSt10filesystem7__cxx114path5_List5_ImplENS3_13_Impl_deleterEE6_M_ptrEv
FNDA:0,_ZNSt15__uniq_ptr_implINSt10filesystem7__cxx114path5_List5_ImplENS3_13_Impl_deleterEE10_M_deleterEv
FNDA:0,_ZNSt10unique_ptrINSt10filesystem7__cxx114path5_List5_ImplENS3_13_Impl_deleterEED2Ev
FNDA:0,_ZNSt10unique_ptrINSt10filesystem7__cxx114path5_List5_ImplENS3_13_Impl_deleterEE11get_deleterEv
FNF:4
FNH:0
BRDA:403,0,0,-
BRDA:403,0,1,-
BRF:2
BRH:0
DA:197,0
DA:201,0
DA:398,0
DA:402,0
DA:403,0
DA:404,0
DA:405,0
DA:406,0
DA:475,0
DA:476,0
LF:10
LH:0
end_of_record
TN:
SF:/usr/include/c++/13/bits/vector.tcc
FN:210,265,_ZNSt6vectorIN12media_player6models14MediaFileModelESaIS2_EEaSERKS4_
FN:445,524,_ZNSt6vectorIN12media_player12repositories20PlaybackHistoryEntryESaIS2_EE17_M_realloc_insertIJRKS2_EEEvN9__gnu_cxx17__normal_iteratorIPS2_S4_EEDpOT_
FN:445,524,_ZNSt6vectorIN12media_player6models13PlaylistModelESaIS2_EE17_M_realloc_insertIJRKS2_EEEvN9__gnu_cxx17__normal_iteratorIPS2_S4_EEDpOT_
FN:445,524,_ZNSt6vectorIN12media_player6models14MediaFileModelESaIS2_EE17_M_realloc_insertIJRKS2_EEEvN9__gnu_cxx17__normal_iteratorIPS2_S4_EEDpOT_
FN:445,524,_ZNSt6vectorIZN12media_player12repositories18PlaylistRepository19deserializePlaylistERKNSt7__cxx1112basic_stringIcSt11char_traitsIcESaIcEEEE8ItemLineSaISB_EE17_M_realloc_insertIJRKSB_EEEvN9__gnu_cxx17__normal_iteratorIPSB_SD_EEDpOT_
FN:67,100,_ZNSt6vectorIN12media_player12repositories20PlaybackHistoryEntryESaIS2_EE7reserveEm
FN:67,100,_ZNSt6vectorIN12media_player6models13PlaylistModelESaIS2_EE7reserveEm
FN:67,100,_ZNSt6vectorIN12media_player6models14MediaFileModelESaIS2_EE7reserveEm
FNDA:0,_ZNSt6vectorIN12media_player6models14MediaFileModelESaIS2_EEaSERKS4_
FNDA:0,_ZNSt6vectorIN12media_player12repositories20PlaybackHistoryEntryESaIS2_EE17_M_realloc_insertIJRKS2_EEEvN9__gnu_cxx17__normal_iteratorIPS2_S4_EEDpOT_
FNDA:3,_ZNSt6vectorIN12media_player6models13PlaylistModelESaIS2_EE17_M_realloc_insertIJRKS2_EEEvN9__gnu_cxx17__normal_iteratorIPS2_S4_EEDpOT_
FNDA:0,_ZNSt6vectorIN12media_player6models14MediaFileModelESaIS2_EE17_M_realloc_insertIJRKS2_EEEvN9__gnu_cxx17__normal_iteratorIPS2_S4_EEDpOT_
FNDA:3,_ZNSt6vectorIZN12media_player12repositories18PlaylistRepository19deserializePlaylistERKNSt7__cxx1112basic_stringIcSt11char_traitsIcESaIcEEEE8ItemLineSaISB_EE17_M_realloc_insertIJRKSB_EEEvN9__gnu_cxx17__normal_iteratorIPSB_SD_EEDpOT_
FNDA:0,_ZNSt6vectorIN12media_player12repositories20PlaybackHistoryEntryESaIS2_EE7reserveEm
FNDA:5,_ZNSt6vectorIN12media_player6models13PlaylistModelESaIS2_EE7reserveEm
FNDA:0,_ZNSt6vectorIN12media_player6models14MediaFileModelESaIS2_EE7reserveEm
FNF:8
FNH:3
BRDA:70,0,0,0
BRDA:70,0,1,5
BRDA:72,0,0,2
BRDA:72,0,1,3
BRDA:213,0,0,-
BRDA:213,0,1,-
BRDA:217,0,0,-
BRDA:217,0,1,-
BRDA:220,0,0,-
BRDA:220,0,1,-
BRDA:220,0,2,-
BRDA:220,0,3,-
BRDA:220,0,4,-
BRDA:220,0,5,-
BRDA:236,0,0,-
BRDA:236,0,1,-
BRDA:248,0,0,-
BRDA:248,0,1,-
BRDA:506,0,0,0
BRDA:506,0,1,0
BRDA:511,0,0,0
BRDA:511,e0,1,0
BRF:22
BRH:3
DA:67,5
DA:70,5
DA:71,0
DA:72,5
DA:74,2
DA:79,2
DA:80,2
DA:81,2
DA:93,2
DA:94,2
DA:95,2
DA:96,2
DA:97,2
DA:98,2
DA:100,5
DA:210,0
DA:213,0
DA:217,0
DA:219,0
DA:220,0
DA:223,0
DA:224,0
DA:225,0
DA:226,0
DA:227,0
DA:228,0
DA:229,0
DA:231,0
DA:232,0
DA:235,0
DA:236,0
DA:238,0
DA:240,0
DA:241,0
DA:242,0
DA:243,0
DA:244,0
DA:245,0
DA:246,0
DA:248,0
DA:250,0
DA:251,0
DA:255,0
DA:257,0
DA:258,0
DA:260,0
DA:262,0
DA:264,0
DA:445,6
DA:455,6
DA:456,6
DA:457,6
DA:458,6
DA:459,6
DA:460,6
DA:468,6
DA:469,6
DA:475,6
DA:480,6
DA:481,6
DA:483,6
DA:485,6
DA:486,6
DA:504,0
DA:506,0
DA:507,0
DA:508,0
DA:510,0
DA:511,0
DA:512,0
DA:519,6
DA:520,6
DA:521,6
DA:522,6
DA:523,6
DA:524,6
LF:76
LH:35
end_of_record
TN:
SF:/usr/include/c++/13/ext/aligned_buffer.h
FN:64,65,_ZN9__gnu_cxx16__aligned_membufISt4pairIKNSt7__cxx1112basic_stringIcSt11char_traitsIcESaIcEEEN12media_player6models13PlaylistModelEEE7_M_addrEv
FN:64,65,_ZN9__gnu_cxx16__aligned_membufISt4pairIKNSt7__cxx1112basic_stringIcSt11char_traitsIcESaIcEEEN12media_player6models14MediaFileModelEEE7_M_addrEv
FN:68,69,_ZNK9__gnu_cxx16__aligned_membufISt4pairIKNSt7__cxx1112basic_stringIcSt11char_traitsIcESaIcEEEN12media_player6models13PlaylistModelEEE7_M_addrEv
FN:68,69,_ZNK9__gnu_cxx16__aligned_membufISt4pairIKNSt7__cxx1112basic_stringIcSt11char_traitsIcESaIcEEEN12media_player6models14MediaFileModelEEE7_M_addrEv
FN:72,73,_ZN9__gnu_cxx16__aligned_membufISt4pairIKNSt7__cxx1112basic_stringIcSt11char_traitsIcESaIcEEEN12media_player6models13PlaylistModelEEE6_M_ptrEv
FN:72,73,_ZN9__gnu_cxx16__aligned_membufISt4pairIKNSt7__cxx1112basic_stringIcSt11char_traitsIcESaIcEEEN12media_player6models14MediaFileModelEEE6_M_ptrEv
FN:76,77,_ZNK9__gnu_cxx16__aligned_membufISt4pairIKNSt7__cxx1112basic_stringIcSt11char_traitsIcESaIcEEEN12media_player6models13PlaylistModelEEE6_M_ptrEv
FN:76,77,_ZNK9__gnu_cxx16__aligned_membufISt4pairIKNSt7__cxx1112basic_stringIcSt11char_traitsIcESaIcEEEN12media_player6models14MediaFileModelEEE6_M_ptrEv
FNDA:178,_ZN9__gnu_cxx16__aligned_membufISt4pairIKNSt7__cxx1112basic_stringIcSt11char_traitsIcESaIcEEEN12media_player6models13PlaylistModelEEE7_M_addrEv
FNDA:181,_ZN9__gnu_cxx16__aligned_membufISt4pairIKNSt7__cxx1112basic_stringIcSt11char_traitsIcESaIcEEEN12media_player6models14MediaFileModelEEE7_M_addrEv
FNDA:127,_ZNK9__gnu_cxx16__aligned_membufISt4pairIKNSt7__cxx1112basic_stringIcSt11char_traitsIcESaIcEEEN12media_player6models13PlaylistModelEEE7_M_addrEv
FNDA:128,_ZNK9__gnu_cxx16__aligned_membufISt4pairIKNSt7__cxx1112basic_stringIcSt11char_traitsIcESaIcEEEN12media_player6models14MediaFileModelEEE7_M_addrEv
FNDA:178,_ZN9__gnu_cxx16__aligned_membufISt4pairIKNSt7__cxx1112basic_stringIcSt11char_traitsIcESaIcEEEN12media_player6models13PlaylistModelEEE6_M_ptrEv
FNDA:181,_ZN9__gnu_cxx16__aligned_membufISt4pairIKNSt7__cxx1112basic_stringIcSt11char_traitsIcESaIcEEEN12media_player6models14MediaFileModelEEE6_M_ptrEv
FNDA:127,_ZNK9__gnu_cxx16__aligned_membufISt4pairIKNSt7__cxx1112basic_stringIcSt11char_traitsIcESaIcEEEN12media_player6models13PlaylistModelEEE6_M_ptrEv
FNDA:128,_ZNK9__gnu_cxx16__aligned_membufISt4pairIKNSt7__cxx1112basic_stringIcSt11char_traitsIcESaIcEEEN12media_player6models14MediaFileModelEEE6_M_ptrEv
FNF:8
FNH:8
DA:64,359
DA:65,359
DA:68,255
DA:69,255
DA:72,359
DA:73,359
DA:76,255
DA:77,255
LF:8
LH:8
end_of_record
TN:
SF:/usr/include/c++/13/ext/alloc_traits.h
FNF:0
FNH:0
DA:98,0
DA:106,0
DA:118,0
LF:3
LH:0
end_of_record
TN:
SF:/usr/include/c++/13/ext/atomicity.h
FNF:0
FNH:0
BRDA:98,0,0,-
BRDA:98,0,1,-
BRDA:98,0,2,-
BRDA:98,0,3,-
BRDA:108,0,0,-
BRDA:108,0,1,-
BRF:6
BRH:0
DA:52,0
DA:66,0
DA:71,0
DA:84,0
DA:85,0
DA:86,0
DA:92,0
DA:98,0
DA:99,0
DA:101,0
DA:108,0
DA:112,0
LF:12
LH:0
end_of_record
TN:
SF:/usr/include/c++/13/ext/string_conversions.h
FN:56,96,_ZN9__gnu_cxx6__stoaIxxcJiEEET0_PFT_PKT1_PPS3_DpT2_EPKcS5_PmS9_
FN:65,65,_ZZN9__gnu_cxx6__stoaIxxcJiEEET0_PFT_PKT1_PPS3_DpT2_EPKcS5_PmS9_EN11_Save_errnoC2Ev
FN:66,66,_ZZN9__gnu_cxx6__stoaIxxcJiEEET0_PFT_PKT1_PPS3_DpT2_EPKcS5_PmS9_EN11_Save_errnoD2Ev
FN:72,72,_ZZN9__gnu_cxx6__stoaIxxcJiEEET0_PFT_PKT1_PPS3_DpT2_EPKcS5_PmS9_EN10_Range_chk6_S_chkExSt17integral_constantIbLb0EE
FNDA:306,_ZN9__gnu_cxx6__stoaIxxcJiEEET0_PFT_PKT1_PPS3_DpT2_EPKcS5_PmS9_
FNDA:306,_ZZN9__gnu_cxx6__stoaIxxcJiEEET0_PFT_PKT1_PPS3_DpT2_EPKcS5_PmS9_EN11_Save_errnoC2Ev
FNDA:306,_ZZN9__gnu_cxx6__stoaIxxcJiEEET0_PFT_PKT1_PPS3_DpT2_EPKcS5_PmS9_EN11_Save_errnoD2Ev
FNDA:306,_ZZN9__gnu_cxx6__stoaIxxcJiEEET0_PFT_PKT1_PPS3_DpT2_EPKcS5_PmS9_EN10_Range_chk6_S_chkExSt17integral_constantIbLb0EE
FNF:4
FNH:4
BRDA:66,0,0,306
BRDA:66,0,1,0
BRDA:82,0,0,306
BRDA:82,e0,1,0
BRDA:84,0,0,0
BRDA:84,0,1,306
BRDA:87,0,0,306
BRDA:87,0,1,0
BRDA:87,0,2,0
BRDA:87,0,3,306
BRDA:87,0,4,0
BRDA:87,0,5,306
BRDA:92,0,0,0
BRDA:92,0,1,306
BRF:14
BRH:7
DA:56,306
DA:65,306
DA:66,306
DA:68,306
DA:72,306
DA:82,306
DA:84,306
DA:85,0
DA:86,612
DA:87,306
DA:88,0
DA:90,306
DA:92,306
DA:93,0
DA:95,306
DA:96,306
LF:16
LH:13
end_of_record
TN:
SF:/usr/include/c++/13/mutex
FN:111,111,_ZNSt15recursive_mutexC2Ev
FN:118,125,_ZNSt15recursive_mutex4lockEv
FN:136,140,_ZNSt15recursive_mutex6unlockEv
FN:81,81,_ZNSt22__recursive_mutex_baseC2Ev
FNDA:0,_ZNSt15recursive_mutexC2Ev
FNDA:0,_ZNSt15recursive_mutex4lockEv
FNDA:0,_ZNSt15recursive_mutex6unlockEv
FNDA:0,_ZNSt22__recursive_mutex_baseC2Ev
FNF:4
FNH:0
BRDA:123,0,0,-
BRDA:123,0,1,-
BRF:2
BRH:0
DA:81,0
DA:111,0
DA:118,0
DA:120,0
DA:123,0
DA:124,0
DA:125,0
DA:136,0
DA:139,0
DA:140,0
LF:10
LH:0
end_of_record
TN:
SF:/usr/include/c++/13/new
FN:174,175,_ZnwmPv
FN:180,180,_ZdlPvS_
FNDA:0,_ZnwmPv
FNDA:0,_ZdlPvS_
FNF:2
FNH:0
DA:174,0
DA:175,0
DA:180,0
LF:3
LH:0
end_of_record
TN:
SF:/usr/include/c++/13/optional
FN:120,120,_ZNSt22_Optional_payload_baseIN12media_player12repositories20PlaybackHistoryEntryEEC2Ev
FN:120,120,_ZNSt22_Optional_payload_baseIN12media_player6models13PlaylistModelEEC2Ev
FN:120,120,_ZNSt22_Optional_payload_baseIN12media_player6models14MediaFileModelEEC2Ev
FN:121,121,_ZNSt22_Optional_payload_baseIN12media_player6models13PlaylistModelEED2Ev
FN:125,128,_ZNSt22_Optional_payload_baseIN12media_player12repositories20PlaybackHistoryEntryEEC2IJRKS2_EEESt10in_place_tDpOT_
FN:125,128,_ZNSt22_Optional_payload_baseIN12media_player6models13PlaylistModelEEC2IJRKS2_EEESt10in_place_tDpOT_
FN:125,128,_ZNSt22_Optional_payload_baseIN12media_player6models13PlaylistModelEEC2IJRS2_EEESt10in_place_tDpOT_
FN:125,128,_ZNSt22_Optional_payload_baseIN12media_player6models13PlaylistModelEEC2IJS2_EEESt10in_place_tDpOT_
FN:125,128,_ZNSt22_Optional_payload_baseIN12media_player6models14MediaFileModelEEC2IJRS2_EEESt10in_place_tDpOT_
FN:239,239,_ZNSt22_Optional_payload_baseIN12media_player12repositories20PlaybackHistoryEntryEE8_StorageIS2_Lb0EEC2Ev
FN:239,239,_ZNSt22_Optional_payload_baseIN12media_player6models13PlaylistModelEE8_StorageIS2_Lb0EEC2Ev
FN:239,239,_ZNSt22_Optional_payload_baseIN12media_player6models14MediaFileModelEE8_StorageIS2_Lb0EEC2Ev
FN:243,245,_ZNSt22_Optional_payload_baseIN12media_player12repositories20PlaybackHistoryEntryEE8_StorageIS2_Lb0EEC2IJRKS2_EEESt10in_place_tDpOT_
FN:243,245,_ZNSt22_Optional_payload_baseIN12media_player6models13PlaylistModelEE8_StorageIS2_Lb0EEC2IJRKS2_EEESt10in_place_tDpOT_
FN:243,245,_ZNSt22_Optional_payload_baseIN12media_player6models13PlaylistModelEE8_StorageIS2_Lb0EEC2IJRS2_EEESt10in_place_tDpOT_
FN:243,245,_ZNSt22_Optional_payload_baseIN12media_player6models13PlaylistModelEE8_StorageIS2_Lb0EEC2IJS2_EEESt10in_place_tDpOT_
FN:243,245,_ZNSt22_Optional_payload_baseIN12media_player6models14MediaFileModelEE8_StorageIS2_Lb0EEC2IJRS2_EEESt10in_place_tDpOT_
FN:263,263,_ZNSt22_Optional_payload_baseIN12media_player6models13PlaylistModelEE8_StorageIS2_Lb0EED2Ev
FN:284,288,_ZNSt22_Optional_payload_baseIN12media_player6models13PlaylistModelEE10_M_destroyEv
FN:306,307,_ZNSt22_Optional_payload_baseIN12media_player6models13PlaylistModelEE6_M_getEv
FN:315,321,_ZNSt22_Optional_payload_baseIN12media_player6models13PlaylistModelEE8_M_resetEv
FN:401,401,_ZNSt17_Optional_payloadIN12media_player12repositories20PlaybackHistoryEntryELb1ELb0ELb0EEC2Ev
FN:401,401,_ZNSt17_Optional_payloadIN12media_player6models13PlaylistModelELb1ELb0ELb0EEC2Ev
FN:401,401,_ZNSt17_Optional_payloadIN12media_player6models14MediaFileModelELb1ELb0ELb0EEC2Ev
FN:402,402,_ZNSt17_Optional_payloadIN12media_player6models13PlaylistModelELb1ELb0ELb0EED2Ev
FN:434,434,_ZNSt17_Optional_payloadIN12media_player12repositories20PlaybackHistoryEntryELb0ELb0ELb0EEC2Ev
FN:434,434,_ZNSt17_Optional_payloadIN12media_player6models13PlaylistModelELb0ELb0ELb0EEC2Ev
FN:434,434,_ZNSt17_Optional_payloadIN12media_player6models14MediaFileModelELb0ELb0ELb0EEC2Ev
FN:441,441,_ZNSt17_Optional_payloadIN12media_player6models13PlaylistModelELb0ELb0ELb0EED2Ev
FN:472,473,_ZNKSt19_Optional_base_implIN12media_player6models13PlaylistModelESt14_Optional_baseIS2_Lb0ELb0EEE13_M_is_engagedEv
FN:477,481,_ZNSt19_Optional_base_implIN12media_player6models13PlaylistModelESt14_Optional_baseIS2_Lb0ELb0EEE6_M_getEv
FN:516,516,_ZNSt14_Optional_baseIN12media_player12repositories20PlaybackHistoryEntryELb0ELb0EEC2Ev
FN:516,516,_ZNSt14_Optional_baseIN12media_player6models13PlaylistModelELb0ELb0EEC2Ev
FN:516,516,_ZNSt14_Optional_baseIN12media_player6models14MediaFileModelELb0ELb0EEC2Ev
FN:522,524,_ZNSt14_Optional_baseIN12media_player12repositories20PlaybackHistoryEntryELb0ELb0EEC2IJRKS2_ELb0EEESt10in_place_tDpOT_
FN:522,524,_ZNSt14_Optional_baseIN12media_player6models13PlaylistModelELb0ELb0EEC2IJRKS2_ELb0EEESt10in_place_tDpOT_
FN:522,524,_ZNSt14_Optional_baseIN12media_player6models13PlaylistModelELb0ELb0EEC2IJRS2_ELb0EEESt10in_place_tDpOT_
FN:522,524,_ZNSt14_Optional_baseIN12media_player6models13PlaylistModelELb0ELb0EEC2IJS2_ELb0EEESt10in_place_tDpOT_
FN:522,524,_ZNSt14_Optional_baseIN12media_player6models14MediaFileModelELb0ELb0EEC2IJRS2_ELb0EEESt10in_place_tDpOT_
FN:741,741,_ZNSt8optionalIN12media_player12repositories20PlaybackHistoryEntryEEC2ESt9nullopt_t
FN:741,741,_ZNSt8optionalIN12media_player6models13PlaylistModelEEC2ESt9nullopt_t
FN:741,741,_ZNSt8optionalIN12media_player6models14MediaFileModelEEC2ESt9nullopt_t
FN:749,751,_ZNSt8optionalIN12media_player12repositories20PlaybackHistoryEntryEEC2IRKS2_Lb1EEEOT_
FN:749,751,_ZNSt8optionalIN12media_player6models13PlaylistModelEEC2IRKS2_Lb1EEEOT_
FN:749,751,_ZNSt8optionalIN12media_player6models13PlaylistModelEEC2IRS2_Lb1EEEOT_
FN:749,751,_ZNSt8optionalIN12media_player6models13PlaylistModelEEC2IS2_Lb1EEEOT_
FN:749,751,_ZNSt8optionalIN12media_player6models14MediaFileModelEEC2IRS2_Lb1EEEOT_
FN:967,968,_ZNSt8optionalIN12media_player6models13PlaylistModelEEptEv
FN:975,976,_ZNRSt8optionalIN12media_player6models13PlaylistModelEEdeEv
FN:986,987,_ZNKSt8optionalIN12media_player6models13PlaylistModelEEcvbEv
FNDA:5,_ZNSt22_Optional_payload_baseIN12media_player12repositories20PlaybackHistoryEntryEEC2Ev
FNDA:10,_ZNSt22_Optional_payload_baseIN12media_player6models13PlaylistModelEEC2Ev
FNDA:0,_ZNSt22_Optional_payload_baseIN12media_player6models14MediaFileModelEEC2Ev
FNDA:0,_ZNSt22_Optional_payload_baseIN12media_player6models13PlaylistModelEED2Ev
FNDA:3,_ZNSt22_Optional_payload_baseIN12media_player12repositories20PlaybackHistoryEntryEEC2IJRKS2_EEESt10in_place_tDpOT_
FNDA:6,_ZNSt22_Optional_payload_baseIN12media_player6models13PlaylistModelEEC2IJRKS2_EEESt10in_place_tDpOT_
FNDA:14,_ZNSt22_Optional_payload_baseIN12media_player6models13PlaylistModelEEC2IJRS2_EEESt10in_place_tDpOT_
FNDA:3,_ZNSt22_Optional_payload_baseIN12media_player6models13PlaylistModelEEC2IJS2_EEESt10in_place_tDpOT_
FNDA:1,_ZNSt22_Optional_payload_baseIN12media_player6models14MediaFileModelEEC2IJRS2_EEESt10in_place_tDpOT_
FNDA:5,_ZNSt22_Optional_payload_baseIN12media_player12repositories20PlaybackHistoryEntryEE8_StorageIS2_Lb0EEC2Ev
FNDA:10,_ZNSt22_Optional_payload_baseIN12media_player6models13PlaylistModelEE8_StorageIS2_Lb0EEC2Ev
FNDA:0,_ZNSt22_Optional_payload_baseIN12media_player6models14MediaFileModelEE8_StorageIS2_Lb0EEC2Ev
FNDA:3,_ZNSt22_Optional_payload_baseIN12media_player12repositories20PlaybackHistoryEntryEE8_StorageIS2_Lb0EEC2IJRKS2_EEESt10in_place_tDpOT_
FNDA:6,_ZNSt22_Optional_payload_baseIN12media_player6models13PlaylistModelEE8_StorageIS2_Lb0EEC2IJRKS2_EEESt10in_place_tDpOT_
FNDA:14,_ZNSt22_Optional_payload_baseIN12media_player6models13PlaylistModelEE8_StorageIS2_Lb0EEC2IJRS2_EEESt10in_place_tDpOT_
FNDA:3,_ZNSt22_Optional_payload_baseIN12media_player6models13PlaylistModelEE8_StorageIS2_Lb0EEC2IJS2_EEESt10in_place_tDpOT_
FNDA:1,_ZNSt22_Optional_payload_baseIN12media_player6models14MediaFileModelEE8_StorageIS2_Lb0EEC2IJRS2_EEESt10in_place_tDpOT_
FNDA:0,_ZNSt22_Optional_payload_baseIN12media_player6models13PlaylistModelEE8_StorageIS2_Lb0EED2Ev
FNDA:0,_ZNSt22_Optional_payload_baseIN12media_player6models13PlaylistModelEE10_M_destroyEv
FNDA:0,_ZNSt22_Optional_payload_baseIN12media_player6models13PlaylistModelEE6_M_getEv
FNDA:0,_ZNSt22_Optional_payload_baseIN12media_player6models13PlaylistModelEE8_M_resetEv
FNDA:5,_ZNSt17_Optional_payloadIN12media_player12repositories20PlaybackHistoryEntryELb1ELb0ELb0EEC2Ev
FNDA:10,_ZNSt17_Optional_payloadIN12media_player6models13PlaylistModelELb1ELb0ELb0EEC2Ev
FNDA:0,_ZNSt17_Optional_payloadIN12media_player6models14MediaFileModelELb1ELb0ELb0EEC2Ev
FNDA:0,_ZNSt17_Optional_payloadIN12media_player6models13PlaylistModelELb1ELb0ELb0EED2Ev
FNDA:5,_ZNSt17_Optional_payloadIN12media_player12repositories20PlaybackHistoryEntryELb0ELb0ELb0EEC2Ev
FNDA:10,_ZNSt17_Optional_payloadIN12media_player6models13PlaylistModelELb0ELb0ELb0EEC2Ev
FNDA:0,_ZNSt17_Optional_payloadIN12media_player6models14MediaFileModelELb0ELb0ELb0EEC2Ev
FNDA:0,_ZNSt17_Optional_payloadIN12media_player6models13PlaylistModelELb0ELb0ELb0EED2Ev
FNDA:0,_ZNKSt19_Optional_base_implIN12media_player6models13PlaylistModelESt14_Optional_baseIS2_Lb0ELb0EEE13_M_is_engagedEv
FNDA:0,_ZNSt19_Optional_base_implIN12media_player6models13PlaylistModelESt14_Optional_baseIS2_Lb0ELb0EEE6_M_getEv
FNDA:5,_ZNSt14_Optional_baseIN12media_player12repositories20PlaybackHistoryEntryELb0ELb0EEC2Ev
FNDA:10,_ZNSt14_Optional_baseIN12media_player6models13PlaylistModelELb0ELb0EEC2Ev
FNDA:0,_ZNSt14_Optional_baseIN12media_player6models14MediaFileModelELb0ELb0EEC2Ev
FNDA:3,_ZNSt14_Optional_baseIN12media_player12repositories20PlaybackHistoryEntryELb0ELb0EEC2IJRKS2_ELb0EEESt10in_place_tDpOT_
FNDA:6,_ZNSt14_Optional_baseIN12media_player6models13PlaylistModelELb0ELb0EEC2IJRKS2_ELb0EEESt10in_place_tDpOT_
FNDA:14,_ZNSt14_Optional_baseIN12media_player6models13PlaylistModelELb0ELb0EEC2IJRS2_ELb0EEESt10in_place_tDpOT_
FNDA:3,_ZNSt14_Optional_baseIN12media_player6models13PlaylistModelELb0ELb0EEC2IJS2_ELb0EEESt10in_place_tDpOT_
FNDA:1,_ZNSt14_Optional_baseIN12media_player6models14MediaFileModelELb0ELb0EEC2IJRS2_ELb0EEESt10in_place_tDpOT_
FNDA:5,_ZNSt8optionalIN12media_player12repositories20PlaybackHistoryEntryEEC2ESt9nullopt_t
FNDA:10,_ZNSt8optionalIN12media_player6models13PlaylistModelEEC2ESt9nullopt_t
FNDA:0,_ZNSt8optionalIN12media_player6models14MediaFileModelEEC2ESt9nullopt_t
FNDA:3,_ZNSt8optionalIN12media_player12repositories20PlaybackHistoryEntryEEC2IRKS2_Lb1EEEOT_
FNDA:6,_ZNSt8optionalIN12media_player6models13PlaylistModelEEC2IRKS2_Lb1EEEOT_
FNDA:14,_ZNSt8optionalIN12media_player6models13PlaylistModelEEC2IRS2_Lb1EEEOT_
FNDA:3,_ZNSt8optionalIN12media_player6models13PlaylistModelEEC2IS2_Lb1EEEOT_
FNDA:1,_ZNSt8optionalIN12media_player6models14MediaFileModelEEC2IRS2_Lb1EEEOT_
FNDA:0,_ZNSt8optionalIN12media_player6models13PlaylistModelEEptEv
FNDA:0,_ZNRSt8optionalIN12media_player6models13PlaylistModelEEdeEv
FNDA:0,_ZNKSt8optionalIN12media_player6models13PlaylistModelEEcvbEv
FNF:50
FNH:32
BRDA:317,0,0,-
BRDA:317,0,1,-
BRDA:479,0,0,-
BRDA:479,0,1,-
BRDA:479,0,2,-
BRDA:479,0,3,-
BRDA:479,0,4,-
BRDA:479,0,5,-
BRF:8
BRH:0
DA:120,15
DA:121,0
DA:125,27
DA:126,27
DA:127,27
DA:128,27
DA:239,15
DA:243,27
DA:244,27
DA:245,27
DA:263,0
DA:284,0
DA:286,0
DA:287,0
DA:288,0
DA:306,0
DA:307,0
DA:315,0
DA:317,0
DA:318,0
DA:320,0
DA:321,0
DA:401,15
DA:402,0
DA:434,15
DA:441,0
DA:472,0
DA:473,0
DA:477,0
DA:479,0
DA:480,0
DA:516,15
DA:522,27
DA:523,27
DA:524,27
DA:741,15
DA:749,27
DA:751,27
DA:967,0
DA:968,0
DA:975,0
DA:976,0
DA:986,0
DA:987,0
LF:44
LH:18
end_of_record
TN:
SF:/usr/include/c++/13/string_view
FN:140,143,_ZNSt17basic_string_viewIcSt11char_traitsIcEEC2EPKc
FN:229,230,_ZNKSt17basic_string_viewIcSt11char_traitsIcEE4sizeEv
FN:289,290,_ZNKSt17basic_string_viewIcSt11char_traitsIcEE4dataEv
FNDA:0,_ZNSt17basic_string_viewIcSt11char_traitsIcEEC2EPKc
FNDA:0,_ZNKSt17basic_string_viewIcSt11char_traitsIcEE4sizeEv
FNDA:0,_ZNKSt17basic_string_viewIcSt11char_traitsIcEE4dataEv
FNF:3
FNH:0
DA:140,0
DA:141,0
DA:142,0
DA:143,0
DA:229,0
DA:230,0
DA:289,0
DA:290,0
LF:8
LH:0
end_of_record
TN:
SF:/usr/include/c++/13/tuple
FN:125,125,_ZNSt10_Head_baseILm1ENSt10filesystem7__cxx114path5_List13_Impl_deleterELb1EE7_M_headERS5_
FN:1787,1788,_ZSt12__get_helperILm0EONSt7__cxx1112basic_stringIcSt11char_traitsIcESaIcEEEJEERT0_RSt11_Tuple_implIXT_EJS7_DpT1_EE
FN:1787,1788,_ZSt12__get_helperILm0EPNSt10filesystem7__cxx114path5_List5_ImplEJNS3_13_Impl_deleterEEERT0_RSt11_Tuple_implIXT_EJS7_DpT1_EE
FN:1787,1788,_ZSt12__get_helperILm0ERKNSt7__cxx1112basic_stringIcSt11char_traitsIcESaIcEEEJEERT0_RSt11_Tuple_implIXT_EJS8_DpT1_EE
FN:1787,1788,_ZSt12__get_helperILm1ENSt10filesystem7__cxx114path5_List13_Impl_deleterEJEERT0_RSt11_Tuple_implIXT_EJS5_DpT1_EE
FN:1803,1804,_ZSt3getILm0EJONSt7__cxx1112basic_stringIcSt11char_traitsIcESaIcEEEEERNSt13tuple_elementIXT_ESt5tupleIJDpT0_EEE4typeERSB_
FN:1803,1804,_ZSt3getILm0EJPNSt10filesystem7__cxx114path5_List5_ImplENS3_13_Impl_deleterEEERNSt13tuple_elementIXT_ESt5tupleIJDpT0_EEE4typeERSB_
FN:1803,1804,_ZSt3getILm0EJRKNSt7__cxx1112basic_stringIcSt11char_traitsIcESaIcEEEEERNSt13tuple_elementIXT_ESt5tupleIJDpT0_EEE4typeERSC_
FN:1803,1804,_ZSt3getILm1EJPNSt10filesystem7__cxx114path5_List5_ImplENS3_13_Impl_deleterEEERNSt13tuple_elementIXT_ESt5tupleIJDpT0_EEE4typeERSB_
FN:193,194,_ZNSt10_Head_baseILm0ERKNSt7__cxx1112basic_stringIcSt11char_traitsIcESaIcEEELb0EEC2ES7_
FN:200,201,_ZNSt10_Head_baseILm0EONSt7__cxx1112basic_stringIcSt11char_traitsIcESaIcEEELb0EEC2IS5_EEOT_
FN:2013,2014,_ZSt16forward_as_tupleIJNSt7__cxx1112basic_stringIcSt11char_traitsIcESaIcEEEEESt5tupleIJDpOT_EES9_
FN:2252,2258,_ZNSt4pairIKNSt7__cxx1112basic_stringIcSt11char_traitsIcESaIcEEEN12media_player6models13PlaylistModelEEC2IJOS5_EJEEESt21piecewise_construct_tSt5tupleIJDpT_EESE_IJDpT0_EE
FN:2252,2258,_ZNSt4pairIKNSt7__cxx1112basic_stringIcSt11char_traitsIcESaIcEEEN12media_player6models13PlaylistModelEEC2IJRS6_EJEEESt21piecewise_construct_tSt5tupleIJDpT_EESE_IJDpT0_EE
FN:2252,2258,_ZNSt4pairIKNSt7__cxx1112basic_stringIcSt11char_traitsIcESaIcEEEN12media_player6models14MediaFileModelEEC2IJRS6_EJEEESt21piecewise_construct_tSt5tupleIJDpT_EESE_IJDpT0_EE
FN:2264,2269,_ZNSt4pairIKNSt7__cxx1112basic_stringIcSt11char_traitsIcESaIcEEEN12media_player6models13PlaylistModelEEC2IJOS5_EJLm0EEJEJEEERSt5tupleIJDpT_EERSD_IJDpT1_EESt12_Index_tupleIJXspT0_EEESM_IJXspT2_EEE
FN:2264,2269,_ZNSt4pairIKNSt7__cxx1112basic_stringIcSt11char_traitsIcESaIcEEEN12media_player6models13PlaylistModelEEC2IJRS6_EJLm0EEJEJEEERSt5tupleIJDpT_EERSD_IJDpT1_EESt12_Index_tupleIJXspT0_EEESM_IJXspT2_EEE
FN:2264,2269,_ZNSt4pairIKNSt7__cxx1112basic_stringIcSt11char_traitsIcESaIcEEEN12media_player6models14MediaFileModelEEC2IJRS6_EJLm0EEJEJEEERSt5tupleIJDpT_EERSD_IJDpT1_EESt12_Index_tupleIJXspT0_EEESM_IJXspT2_EEE
FN:234,234,_ZNSt10_Head_baseILm0EONSt7__cxx1112basic_stringIcSt11char_traitsIcESaIcEEELb0EE7_M_headERS7_
FN:234,234,_ZNSt10_Head_baseILm0EPNSt10filesystem7__cxx114path5_List5_ImplELb0EE7_M_headERS6_
FN:234,234,_ZNSt10_Head_baseILm0ERKNSt7__cxx1112basic_stringIcSt11char_traitsIcESaIcEEELb0EE7_M_headERS8_
FN:269,269,_ZNSt11_Tuple_implILm0EJPNSt10filesystem7__cxx114path5_List5_ImplENS3_13_Impl_deleterEEE7_M_headERS7_
FN:497,497,_ZNSt11_Tuple_implILm0EJONSt7__cxx1112basic_stringIcSt11char_traitsIcESaIcEEEEE7_M_headERS7_
FN:497,497,_ZNSt11_Tuple_implILm0EJRKNSt7__cxx1112basic_stringIcSt11char_traitsIcESaIcEEEEE7_M_headERS8_
FN:497,497,_ZNSt11_Tuple_implILm1EJNSt10filesystem7__cxx114path5_List13_Impl_deleterEEE7_M_headERS5_
FN:507,509,_ZNSt11_Tuple_implILm0EJRKNSt7__cxx1112basic_stringIcSt11char_traitsIcESaIcEEEEEC2ES7_
FN:513,515,_ZNSt11_Tuple_implILm0EJONSt7__cxx1112basic_stringIcSt11char_traitsIcESaIcEEEEEC2IS5_EEOT_
FN:527,530,_ZNSt11_Tuple_implILm0EJONSt7__cxx1112basic_stringIcSt11char_traitsIcESaIcEEEEEC2EOS7_
FN:527,530,_ZNSt11_Tuple_implILm0EJRKNSt7__cxx1112basic_stringIcSt11char_traitsIcESaIcEEEEEC2EOS8_
FN:874,876,_ZNSt5tupleIJRKNSt7__cxx1112basic_stringIcSt11char_traitsIcESaIcEEEEEC2ILb1ELb1EEES7_
FN:889,891,_ZNSt5tupleIJONSt7__cxx1112basic_stringIcSt11char_traitsIcESaIcEEEEEC2IJS5_ELb1ELb1EEEDpOT_
FN:903,903,_ZNSt5tupleIJONSt7__cxx1112basic_stringIcSt11char_traitsIcESaIcEEEEEC2EOS7_
FN:903,903,_ZNSt5tupleIJRKNSt7__cxx1112basic_stringIcSt11char_traitsIcESaIcEEEEEC2EOS8_
FNDA:0,_ZNSt10_Head_baseILm1ENSt10filesystem7__cxx114path5_List13_Impl_deleterELb1EE7_M_headERS5_
FNDA:3,_ZSt12__get_helperILm0EONSt7__cxx1112basic_stringIcSt11char_traitsIcESaIcEEEJEERT0_RSt11_Tuple_implIXT_EJS7_DpT1_EE
FNDA:0,_ZSt12__get_helperILm0EPNSt10filesystem7__cxx114path5_List5_ImplEJNS3_13_Impl_deleterEEERT0_RSt11_Tuple_implIXT_EJS7_DpT1_EE
FNDA:0,_ZSt12__get_helperILm0ERKNSt7__cxx1112basic_stringIcSt11char_traitsIcESaIcEEEJEERT0_RSt11_Tuple_implIXT_EJS8_DpT1_EE
FNDA:0,_ZSt12__get_helperILm1ENSt10filesystem7__cxx114path5_List13_Impl_deleterEJEERT0_RSt11_Tuple_implIXT_EJS5_DpT1_EE
FNDA:3,_ZSt3getILm0EJONSt7__cxx1112basic_stringIcSt11char_traitsIcESaIcEEEEERNSt13tuple_elementIXT_ESt5tupleIJDpT0_EEE4typeERSB_
FNDA:0,_ZSt3getILm0EJPNSt10filesystem7__cxx114path5_List5_ImplENS3_13_Impl_deleterEEERNSt13tuple_elementIXT_ESt5tupleIJDpT0_EEE4typeERSB_
FNDA:0,_ZSt3getILm0EJRKNSt7__cxx1112basic_stringIcSt11char_traitsIcESaIcEEEEERNSt13tuple_elementIXT_ESt5tupleIJDpT0_EEE4typeERSC_
FNDA:0,_ZSt3getILm1EJPNSt10filesystem7__cxx114path5_List5_ImplENS3_13_Impl_deleterEEERNSt13tuple_elementIXT_ESt5tupleIJDpT0_EEE4typeERSB_
FNDA:0,_ZNSt10_Head_baseILm0ERKNSt7__cxx1112basic_stringIcSt11char_traitsIcESaIcEEELb0EEC2ES7_
FNDA:3,_ZNSt10_Head_baseILm0EONSt7__cxx1112basic_stringIcSt11char_traitsIcESaIcEEELb0EEC2IS5_EEOT_
FNDA:3,_ZSt16forward_as_tupleIJNSt7__cxx1112basic_stringIcSt11char_traitsIcESaIcEEEEESt5tupleIJDpOT_EES9_
FNDA:3,_ZNSt4pairIKNSt7__cxx1112basic_stringIcSt11char_traitsIcESaIcEEEN12media_player6models13PlaylistModelEEC2IJOS5_EJEEESt21piecewise_construct_tSt5tupleIJDpT_EESE_IJDpT0_EE
FNDA:30,_ZNSt4pairIKNSt7__cxx1112basic_stringIcSt11char_traitsIcESaIcEEEN12media_player6models13PlaylistModelEEC2IJRS6_EJEEESt21piecewise_construct_tSt5tupleIJDpT_EESE_IJDpT0_EE
FNDA:40,_ZNSt4pairIKNSt7__cxx1112basic_stringIcSt11char_traitsIcESaIcEEEN12media_player6models14MediaFileModelEEC2IJRS6_EJEEESt21piecewise_construct_tSt5tupleIJDpT_EESE_IJDpT0_EE
FNDA:3,_ZNSt4pairIKNSt7__cxx1112basic_stringIcSt11char_traitsIcESaIcEEEN12media_player6models13PlaylistModelEEC2IJOS5_EJLm0EEJEJEEERSt5tupleIJDpT_EERSD_IJDpT1_EESt12_Index_tupleIJXspT0_EEESM_IJXspT2_EEE
FNDA:30,_ZNSt4pairIKNSt7__cxx1112basic_stringIcSt11char_traitsIcESaIcEEEN12media_player6models13PlaylistModelEEC2IJRS6_EJLm0EEJEJEEERSt5tupleIJDpT_EERSD_IJDpT1_EESt12_Index_tupleIJXspT0_EEESM_IJXspT2_EEE
FNDA:40,_ZNSt4pairIKNSt7__cxx1112basic_stringIcSt11char_traitsIcESaIcEEEN12media_player6models14MediaFileModelEEC2IJRS6_EJLm0EEJEJEEERSt5tupleIJDpT_EERSD_IJDpT1_EESt12_Index_tupleIJXspT0_EEESM_IJXspT2_EEE
FNDA:3,_ZNSt10_Head_baseILm0EONSt7__cxx1112basic_stringIcSt11char_traitsIcESaIcEEELb0EE7_M_headERS7_
FNDA:0,_ZNSt10_Head_baseILm0EPNSt10filesystem7__cxx114path5_List5_ImplELb0EE7_M_headERS6_
FNDA:0,_ZNSt10_Head_baseILm0ERKNSt7__cxx1112basic_stringIcSt11char_traitsIcESaIcEEELb0EE7_M_headERS8_
FNDA:0,_ZNSt11_Tuple_implILm0EJPNSt10filesystem7__cxx114path5_List5_ImplENS3_13_Impl_deleterEEE7_M_headERS7_
FNDA:3,_ZNSt11_Tuple_implILm0EJONSt7__cxx1112basic_stringIcSt11char_traitsIcESaIcEEEEE7_M_headERS7_
FNDA:0,_ZNSt11_Tuple_implILm0EJRKNSt7__cxx1112basic_stringIcSt11char_traitsIcESaIcEEEEE7_M_headERS8_
FNDA:0,_ZNSt11_Tuple_implILm1EJNSt10filesystem7__cxx114path5_List13_Impl_deleterEEE7_M_headERS5_
FNDA:0,_ZNSt11_Tuple_implILm0EJRKNSt7__cxx1112basic_stringIcSt11char_traitsIcESaIcEEEEEC2ES7_
FNDA:3,_ZNSt11_Tuple_implILm0EJONSt7__cxx1112basic_stringIcSt11char_traitsIcESaIcEEEEEC2IS5_EEOT_
FNDA:3,_ZNSt11_Tuple_implILm0EJONSt7__cxx1112basic_stringIcSt11char_traitsIcESaIcEEEEEC2EOS7_
FNDA:0,_ZNSt11_Tuple_implILm0EJRKNSt7__cxx1112basic_stringIcSt11char_traitsIcESaIcEEEEEC2EOS8_
FNDA:0,_ZNSt5tupleIJRKNSt7__cxx1112basic_stringIcSt11char_traitsIcESaIcEEEEEC2ILb1ELb1EEES7_
FNDA:3,_ZNSt5tupleIJONSt7__cxx1112basic_stringIcSt11char_traitsIcESaIcEEEEEC2IJS5_ELb1ELb1EEEDpOT_
FNDA:3,_ZNSt5tupleIJONSt7__cxx1112basic_stringIcSt11char_traitsIcESaIcEEEEEC2EOS7_
FNDA:0,_ZNSt5tupleIJRKNSt7__cxx1112basic_stringIcSt11char_traitsIcESaIcEEEEEC2EOS8_
FNF:33
FNH:16
BRDA:2268,0,0,73
BRDA:2268,e0,1,0
BRF:2
BRH:1
DA:125,0
DA:193,0
DA:194,0
DA:200,3
DA:201,3
DA:234,3
DA:269,0
DA:497,3
DA:507,0
DA:508,0
DA:509,0
DA:513,3
DA:514,3
DA:515,3
DA:527,3
DA:529,3
DA:530,3
DA:874,0
DA:876,0
DA:889,3
DA:891,3
DA:903,3
DA:1787,3
DA:1788,3
DA:1803,3
DA:1804,3
DA:2013,3
DA:2014,3
DA:2252,73
DA:2257,73
DA:2258,73
DA:2264,73
DA:2267,73
DA:2268,73
DA:2269,73
LF:35
LH:26
end_of_record
TN:
SF:/usr/include/x86_64-linux-gnu/c++/13/bits/c++config.h
FN:540,551,_ZSt23__is_constant_evaluatedv
FNDA:0,_ZSt23__is_constant_evaluatedv
FNF:1
FNH:0
DA:540,0
DA:547,0
LF:2
LH:0
end_of_record
TN:
SF:/usr/include/x86_64-linux-gnu/c++/13/bits/gthr-default.h
FN:300,303,_ZL18__gthread_active_pv
FN:746,752,_ZL20__gthread_mutex_lockP15pthread_mutex_t
FN:776,782,_ZL22__gthread_mutex_unlockP15pthread_mutex_t
FN:809,812,_ZL30__gthread_recursive_mutex_lockP15pthread_mutex_t
FN:830,833,_ZL32__gthread_recursive_mutex_unlockP15pthread_mutex_t
FNDA:0,_ZL18__gthread_active_pv
FNDA:0,_ZL20__gthread_mutex_lockP15pthread_mutex_t
FNDA:0,_ZL22__gthread_mutex_unlockP15pthread_mutex_t
FNDA:0,_ZL30__gthread_recursive_mutex_lockP15pthread_mutex_t
FNDA:0,_ZL32__gthread_recursive_mutex_unlockP15pthread_mutex_t
FNF:5
FNH:0
BRDA:748,0,0,-
BRDA:748,0,1,-
BRDA:778,0,0,-
BRDA:778,0,1,-
BRF:4
BRH:0
DA:300,0
DA:302,0
DA:746,0
DA:748,0
DA:749,0
DA:751,0
DA:776,0
DA:778,0
DA:779,0
DA:781,0
DA:809,0
DA:811,0
DA:830,0
DA:832,0
LF:14
LH:0
end_of_record
