TN:
SF:/home/duong/MediaPlayerApp/inc/models/HistoryModel.h
FNF:0
FNH:0
LF:0
LH:0
end_of_record
TN:
SF:/home/duong/MediaPlayerApp/inc/models/LibraryModel.h
FN:40,43,_ZNK12media_player6models12LibraryModel13getMediaCountEv
FN:50,53,_ZNK12media_player6models12LibraryModel11getAllMediaEv
FNDA:0,_ZNK12media_player6models12LibraryModel13getMediaCountEv
FNDA:0,_ZNK12media_player6models12LibraryModel11getAllMediaEv
FNF:2
FNH:0
DA:40,0
DA:42,0
DA:50,0
DA:52,0
LF:4
LH:0
end_of_record
TN:
SF:/home/duong/MediaPlayerApp/inc/models/MediaFileModel.h
FN:31,34,_ZNK12media_player6models14MediaFileModel11getFilePathB5cxx11Ev
FN:36,39,_ZNK12media_player6models14MediaFileModel11getFileNameB5cxx11Ev
FN:46,49,_ZNK12media_player6models14MediaFileModel7getTypeEv
FN:57,57,_ZNK12media_player6models14MediaFileModel8getTitleB5cxx11Ev
FN:58,58,_ZNK12media_player6models14MediaFileModel9getArtistB5cxx11Ev
FN:63,63,_ZN12media_player6models14MediaFileModel8setTitleERKNSt7__cxx1112basic_stringIcSt11char_traitsIcESaIcEEE
FN:64,64,_ZN12media_player6models14MediaFileModel9setArtistERKNSt7__cxx1112basic_stringIcSt11char_traitsIcESaIcEEE
FN:65,65,_ZN12media_player6models14MediaFileModel8setAlbumERKNSt7__cxx1112basic_stringIcSt11char_traitsIcESaIcEEE
FN:76,79,_ZNK12media_player6models14MediaFileModel7isVideoEv
FNDA:0,_ZNK12media_player6models14MediaFileModel11getFilePathB5cxx11Ev
FNDA:0,_ZNK12media_player6models14MediaFileModel11getFileNameB5cxx11Ev
FNDA:0,_ZNK12media_player6models14MediaFileModel7getTypeEv
FNDA:0,_ZNK12media_player6models14MediaFileModel8getTitleB5cxx11Ev
FNDA:0,_ZNK12media_player6models14MediaFileModel9getArtistB5cxx11Ev
FNDA:0,_ZN12media_player6models14MediaFileModel8setTitleERKNSt7__cxx1112basic_stringIcSt11char_traitsIcESaIcEEE
FNDA:0,_ZN12media_player6models14MediaFileModel9setArtistERKNSt7__cxx1112basic_stringIcSt11char_traitsIcESaIcEEE
FNDA:0,_ZN12media_player6models14MediaFileModel8setAlbumERKNSt7__cxx1112basic_stringIcSt11char_traitsIcESaIcEEE
FNDA:11,_ZNK12media_player6models14MediaFileModel7isVideoEv
FNF:9
FNH:1
DA:31,0
DA:33,0
DA:36,0
DA:38,0
DA:46,0
DA:48,0
DA:57,0
DA:58,0
DA:63,0
DA:64,0
DA:65,0
DA:76,11
DA:78,11
LF:13
LH:2
end_of_record
TN:
SF:/home/duong/MediaPlayerApp/inc/models/MetadataModel.h
FN:22,25,_ZNK12media_player6models13MetadataModel8getTitleB5cxx11Ev
FN:27,30,_ZNK12media_player6models13MetadataModel9getArtistB5cxx11Ev
FN:32,35,_ZNK12media_player6models13MetadataModel8getAlbumB5cxx11Ev
FNDA:0,_ZNK12media_player6models13MetadataModel8getTitleB5cxx11Ev
FNDA:0,_ZNK12media_player6models13MetadataModel9getArtistB5cxx11Ev
FNDA:0,_ZNK12media_player6models13MetadataModel8getAlbumB5cxx11Ev
FNF:3
FNH:0
DA:22,0
DA:24,0
DA:27,0
DA:29,0
DA:32,0
DA:34,0
LF:6
LH:0
end_of_record
TN:
SF:/home/duong/MediaPlayerApp/inc/models/PlaybackStateModel.h
FN:100,104,_ZNK12media_player6models18PlaybackStateModel18getCurrentFilePathB5cxx11Ev
FN:106,111,_ZN12media_player6models18PlaybackStateModel18setCurrentFilePathERKNSt7__cxx1112basic_stringIcSt11char_traitsIcESaIcEEE
FN:114,118,_ZNK12media_player6models18PlaybackStateModel19getCurrentMediaTypeEv
FN:120,124,_ZN12media_player6models18PlaybackStateModel19setCurrentMediaTypeENS0_9MediaTypeE
FN:152,156,_ZNK12media_player6models18PlaybackStateModel9isPlayingEv
FN:158,162,_ZNK12media_player6models18PlaybackStateModel8isPausedEv
FN:164,168,_ZNK12media_player6models18PlaybackStateModel9isStoppedEv
FN:191,197,_ZN12media_player6models18PlaybackStateModel15setCurrentTitleERKNSt7__cxx1112basic_stringIcSt11char_traitsIcESaIcEEE
FN:203,209,_ZN12media_player6models18PlaybackStateModel16setCurrentArtistERKNSt7__cxx1112basic_stringIcSt11char_traitsIcESaIcEEE
FN:53,60,_ZN12media_player6models18PlaybackStateModel8setStateENS0_13PlaybackStateE
FN:63,67,_ZNK12media_player6models18PlaybackStateModel18getCurrentPositionEv
FN:69,73,_ZN12media_player6models18PlaybackStateModel18setCurrentPositionEi
FN:81,85,_ZN12media_player6models18PlaybackStateModel16setTotalDurationEi
FN:88,92,_ZNK12media_player6models18PlaybackStateModel9getVolumeEv
FN:94,97,_ZN12media_player6models18PlaybackStateModel9setVolumeEi
FNDA:0,_ZNK12media_player6models18PlaybackStateModel18getCurrentFilePathB5cxx11Ev
FNDA:0,_ZN12media_player6models18PlaybackStateModel18setCurrentFilePathERKNSt7__cxx1112basic_stringIcSt11char_traitsIcESaIcEEE
FNDA:2,_ZNK12media_player6models18PlaybackStateModel19getCurrentMediaTypeEv
FNDA:86,_ZN12media_player6models18PlaybackStateModel19setCurrentMediaTypeENS0_9MediaTypeE
FNDA:0,_ZNK12media_player6models18PlaybackStateModel9isPlayingEv
FNDA:0,_ZNK12media_player6models18PlaybackStateModel8isPausedEv
FNDA:0,_ZNK12media_player6models18PlaybackStateModel9isStoppedEv
FNDA:0,_ZN12media_player6models18PlaybackStateModel15setCurrentTitleERKNSt7__cxx1112basic_stringIcSt11char_traitsIcESaIcEEE
FNDA:0,_ZN12media_player6models18PlaybackStateModel16setCurrentArtistERKNSt7__cxx1112basic_stringIcSt11char_traitsIcESaIcEEE
FNDA:0,_ZN12media_player6models18PlaybackStateModel8setStateENS0_13PlaybackStateE
FNDA:0,_ZNK12media_player6models18PlaybackStateModel18getCurrentPositionEv
FNDA:0,_ZN12media_player6models18PlaybackStateModel18setCurrentPositionEi
FNDA:0,_ZN12media_player6models18PlaybackStateModel16setTotalDurationEi
FNDA:0,_ZNK12media_player6models18PlaybackStateModel9getVolumeEv
FNDA:0,_ZN12media_player6models18PlaybackStateModel9setVolumeEi
FNF:15
FNH:2
BRDA:55,0,0,-
BRDA:55,e0,1,-
BRDA:56,0,0,-
BRDA:56,0,1,-
BRDA:58,0,0,-
BRDA:58,0,1,-
BRDA:58,0,2,-
BRDA:58,e0,3,-
BRDA:65,0,0,-
BRDA:65,e0,1,-
BRDA:71,0,0,-
BRDA:71,e0,1,-
BRDA:83,0,0,-
BRDA:83,e0,1,-
BRDA:90,0,0,-
BRDA:90,e0,1,-
BRDA:95,0,0,-
BRDA:95,e0,1,-
BRDA:102,0,0,-
BRDA:102,e0,1,-
BRDA:103,0,0,-
BRDA:103,e0,1,-
BRDA:108,0,0,-
BRDA:108,e0,1,-
BRDA:109,0,0,-
BRDA:109,e0,1,-
BRDA:110,0,0,-
BRDA:110,0,1,-
BRDA:110,0,2,-
BRDA:110,e0,3,-
BRDA:116,0,0,2
BRDA:116,e0,1,0
BRDA:122,0,0,86
BRDA:122,e0,1,0
BRDA:154,0,0,-
BRDA:154,e0,1,-
BRDA:160,0,0,-
BRDA:160,e0,1,-
BRDA:166,0,0,-
BRDA:166,e0,1,-
BRDA:193,0,0,-
BRDA:193,e0,1,-
BRDA:194,0,0,-
BRDA:194,e0,1,-
BRDA:196,0,0,-
BRDA:196,0,1,-
BRDA:205,0,0,-
BRDA:205,e0,1,-
BRDA:206,0,0,-
BRDA:206,e0,1,-
BRDA:208,0,0,-
BRDA:208,0,1,-
BRF:52
BRH:2
DA:53,0
DA:55,0
DA:56,0
DA:57,0
DA:58,0
DA:60,0
DA:63,0
DA:65,0
DA:66,0
DA:67,0
DA:69,0
DA:71,0
DA:72,0
DA:73,0
DA:81,0
DA:83,0
DA:84,0
DA:85,0
DA:88,0
DA:90,0
DA:91,0
DA:92,0
DA:94,0
DA:95,0
DA:96,0
DA:97,0
DA:100,0
DA:102,0
DA:103,0
DA:104,0
DA:106,0
DA:108,0
DA:109,0
DA:110,0
DA:111,0
DA:114,2
DA:116,2
DA:117,2
DA:118,2
DA:120,86
DA:122,86
DA:123,86
DA:124,86
DA:152,0
DA:154,0
DA:155,0
DA:156,0
DA:158,0
DA:160,0
DA:161,0
DA:162,0
DA:164,0
DA:166,0
DA:167,0
DA:168,0
DA:191,0
DA:193,0
DA:194,0
DA:195,0
DA:196,0
DA:197,0
DA:203,0
DA:205,0
DA:206,0
DA:207,0
DA:208,0
DA:209,0
LF:67
LH:8
end_of_record
TN:
SF:/home/duong/MediaPlayerApp/inc/models/PlaylistModel.h
FN:31,34,_ZN12media_player6models13PlaylistModel7setNameERKNSt7__cxx1112basic_stringIcSt11char_traitsIcESaIcEEE
FN:60,63,_ZNK12media_player6models13PlaylistModel8getItemsEv
FNDA:0,_ZN12media_player6models13PlaylistModel7setNameERKNSt7__cxx1112basic_stringIcSt11char_traitsIcESaIcEEE
FNDA:0,_ZNK12media_player6models13PlaylistModel8getItemsEv
FNF:2
FNH:0
DA:31,0
DA:33,0
DA:34,0
DA:60,0
DA:62,0
LF:5
LH:0
end_of_record
TN:
SF:/home/duong/MediaPlayerApp/inc/models/QueueModel.h
FN:44,47,_ZNK12media_player6models10QueueModel15getCurrentIndexEv
FN:49,52,_ZNK12media_player6models10QueueModel4sizeEv
FN:54,57,_ZNK12media_player6models10QueueModel7isEmptyEv
FN:62,65,_ZNK12media_player6models10QueueModel11getAllItemsEv
FN:74,77,_ZNK12media_player6models10QueueModel16isShuffleEnabledEv
FN:80,83,_ZNK12media_player6models10QueueModel13getRepeatModeEv
FN:84,87,_ZNK12media_player6models10QueueModel16isLoopOneEnabledEv
FN:88,91,_ZNK12media_player6models10QueueModel16isLoopAllEnabledEv
FNDA:0,_ZNK12media_player6models10QueueModel15getCurrentIndexEv
FNDA:0,_ZNK12media_player6models10QueueModel4sizeEv
FNDA:0,_ZNK12media_player6models10QueueModel7isEmptyEv
FNDA:0,_ZNK12media_player6models10QueueModel11getAllItemsEv
FNDA:0,_ZNK12media_player6models10QueueModel16isShuffleEnabledEv
FNDA:0,_ZNK12media_player6models10QueueModel13getRepeatModeEv
FNDA:0,_ZNK12media_player6models10QueueModel16isLoopOneEnabledEv
FNDA:0,_ZNK12media_player6models10QueueModel16isLoopAllEnabledEv
FNF:8
FNH:0
DA:44,0
DA:46,0
DA:49,0
DA:51,0
DA:54,0
DA:56,0
DA:62,0
DA:64,0
DA:74,0
DA:76,0
DA:80,0
DA:82,0
DA:84,0
DA:86,0
DA:88,0
DA:90,0
LF:16
LH:0
end_of_record
TN:
SF:/home/duong/MediaPlayerApp/src/controllers/HardwareController.cpp
FN:107,126,_ZZN12media_player11controllers18HardwareController11autoConnectEvENKUlvE_clEv
FN:131,195,_ZN12media_player11controllers18HardwareController18scanAvailablePortsB5cxx11Ev
FN:197,205,_ZN12media_player11controllers18HardwareController7connectERKNSt7__cxx1112basic_stringIcSt11char_traitsIcESaIcEEEi
FN:207,217,_ZN12media_player11controllers18HardwareController10disconnectEv
FN:219,222,_ZNK12media_player11controllers18HardwareController11isConnectedEv
FN:224,247,_ZN12media_player11controllers18HardwareController17refreshConnectionEv
FN:249,261,_ZN12media_player11controllers18HardwareController19sendCurrentSongInfoERKNSt7__cxx1112basic_stringIcSt11char_traitsIcESaIcEEES9_
FN:263,275,_ZN12media_player11controllers18HardwareController17sendPlaybackStateEb
FN:277,280,_ZN12media_player11controllers18HardwareController17setButtonCallbackESt8functionIFvNS0_14HardwareButtonEEE
FN:28,53,_ZN12media_player11controllers18HardwareControllerC2ESt10shared_ptrINS_8services20ISerialCommunicationEES2_INS_6models18PlaybackStateModelEE
FN:282,285,_ZN12media_player11controllers18HardwareController17setVolumeCallbackESt8functionIFviEE
FN:287,299,_ZN12media_player11controllers18HardwareController20onSerialDataReceivedERKNSt7__cxx1112basic_stringIcSt11char_traitsIcESaIcEEE
FN:301,352,_ZN12media_player11controllers18HardwareController13processBufferEv
FN:354,416,_ZN12media_player11controllers18HardwareController19parseS32K144MessageERKNSt7__cxx1112basic_stringIcSt11char_traitsIcESaIcEEE
FN:39,42,_ZZN12media_player11controllers18HardwareControllerC4ESt10shared_ptrINS_8services20ISerialCommunicationEES2_INS_6models18PlaybackStateModelEEENKUlRKNSt7__cxx1112basic_stringIcSt11char_traitsIcESaIcEEEE_clESG_
FN:47,50,_ZZN12media_player11controllers18HardwareControllerC4ESt10shared_ptrINS_8services20ISerialCommunicationEES2_INS_6models18PlaybackStateModelEEENKUlRKNSt7__cxx1112basic_stringIcSt11char_traitsIcESaIcEEEE0_clESG_
FN:55,64,_ZN12media_player11controllers18HardwareControllerD2Ev
FN:66,79,_ZN12media_player11controllers18HardwareController10initializeEv
FN:81,129,_ZN12media_player11controllers18HardwareController11autoConnectEv
FNDA:3,_ZZN12media_player11controllers18HardwareController11autoConnectEvENKUlvE_clEv
FNDA:3,_ZN12media_player11controllers18HardwareController18scanAvailablePortsB5cxx11Ev
FNDA:3,_ZN12media_player11controllers18HardwareController7connectERKNSt7__cxx1112basic_stringIcSt11char_traitsIcESaIcEEEi
FNDA:31,_ZN12media_player11controllers18HardwareController10disconnectEv
FNDA:9,_ZNK12media_player11controllers18HardwareController11isConnectedEv
FNDA:4,_ZN12media_player11controllers18HardwareController17refreshConnectionEv
FNDA:3,_ZN12media_player11controllers18HardwareController19sendCurrentSongInfoERKNSt7__cxx1112basic_stringIcSt11char_traitsIcESaIcEEES9_
FNDA:4,_ZN12media_player11controllers18HardwareController17sendPlaybackStateEb
FNDA:7,_ZN12media_player11controllers18HardwareController17setButtonCallbackESt8functionIFvNS0_14HardwareButtonEEE
FNDA:28,_ZN12media_player11controllers18HardwareControllerC2ESt10shared_ptrINS_8services20ISerialCommunicationEES2_INS_6models18PlaybackStateModelEE
FNDA:6,_ZN12media_player11controllers18HardwareController17setVolumeCallbackESt8functionIFviEE
FNDA:19,_ZN12media_player11controllers18HardwareController20onSerialDataReceivedERKNSt7__cxx1112basic_stringIcSt11char_traitsIcESaIcEEE
FNDA:19,_ZN12media_player11controllers18HardwareController13processBufferEv
FNDA:15,_ZN12media_player11controllers18HardwareController19parseS32K144MessageERKNSt7__cxx1112basic_stringIcSt11char_traitsIcESaIcEEE
FNDA:19,_ZZN12media_player11controllers18HardwareControllerC4ESt10shared_ptrINS_8services20ISerialCommunicationEES2_INS_6models18PlaybackStateModelEEENKUlRKNSt7__cxx1112basic_stringIcSt11char_traitsIcESaIcEEEE_clESG_
FNDA:1,_ZZN12media_player11controllers18HardwareControllerC4ESt10shared_ptrINS_8services20ISerialCommunicationEES2_INS_6models18PlaybackStateModelEEENKUlRKNSt7__cxx1112basic_stringIcSt11char_traitsIcESaIcEEEE0_clESG_
FNDA:28,_ZN12media_player11controllers18HardwareControllerD2Ev
FNDA:3,_ZN12media_player11controllers18HardwareController10initializeEv
FNDA:6,_ZN12media_player11controllers18HardwareController11autoConnectEv
FNF:19
FNH:19
BRDA:38,0,0,28
BRDA:38,e0,1,0
BRDA:46,0,0,28
BRDA:46,e0,1,0
BRDA:58,0,0,3
BRDA:58,0,1,25
BRDA:69,0,0,3
BRDA:69,e0,1,0
BRDA:69,0,2,1
BRDA:69,0,3,2
BRDA:75,0,0,2
BRDA:75,e0,1,0
BRDA:78,0,0,2
BRDA:78,e0,1,0
BRDA:83,0,0,6
BRDA:83,e0,1,0
BRDA:85,0,0,1
BRDA:85,0,1,5
BRDA:90,0,0,5
BRDA:90,e0,1,0
BRDA:90,0,2,2
BRDA:90,0,3,3
BRDA:97,0,0,0
BRDA:97,0,1,3
BRDA:100,0,0,-
BRDA:100,e0,1,-
BRDA:107,0,0,3
BRDA:107,e0,1,0
BRDA:108,0,0,3
BRDA:108,e0,1,0
BRDA:111,0,0,0
BRDA:111,0,1,3
BRDA:114,0,0,-
BRDA:114,0,1,-
BRDA:116,0,0,-
BRDA:116,e0,1,-
BRDA:116,0,2,-
BRDA:116,0,3,-
BRDA:136,0,0,3
BRDA:136,e0,1,0
BRDA:138,0,0,6
BRDA:138,0,1,3
BRDA:140,0,0,60
BRDA:140,0,1,6
BRDA:142,0,0,60
BRDA:142,e0,1,0
BRDA:144,0,0,60
BRDA:144,e0,1,0
BRDA:144,0,2,60
BRDA:144,e0,3,0
BRDA:144,0,4,0
BRDA:144,0,5,60
BRDA:146,0,0,-
BRDA:146,e0,1,-
BRDA:152,0,0,3
BRDA:152,e0,1,0
BRDA:154,0,0,6
BRDA:154,0,1,3
BRDA:156,0,0,6
BRDA:156,e0,1,0
BRDA:156,0,2,6
BRDA:156,e0,3,0
BRDA:156,0,4,6
BRDA:156,0,5,0
BRDA:161,0,0,-
BRDA:161,e0,1,-
BRDA:161,0,2,-
BRDA:161,e0,3,-
BRDA:161,0,4,-
BRDA:161,e0,5,-
BRDA:161,0,6,-
BRDA:161,0,7,-
BRDA:163,0,0,-
BRDA:163,e0,1,-
BRDA:163,0,2,-
BRDA:163,0,3,-
BRDA:163,0,4,-
BRDA:163,e0,5,-
BRDA:163,0,6,-
BRDA:163,0,7,-
BRDA:163,0,8,-
BRDA:163,0,9,-
BRDA:165,0,0,-
BRDA:165,e0,1,-
BRDA:165,0,2,-
BRDA:165,e0,3,-
BRDA:171,0,0,3
BRDA:171,e0,1,0
BRDA:172,0,0,3
BRDA:172,e0,1,0
BRDA:172,0,2,3
BRDA:172,e0,3,0
BRDA:174,0,0,3
BRDA:174,e0,1,0
BRDA:175,0,0,3
BRDA:175,0,1,0
BRDA:177,0,0,3
BRDA:177,e0,1,0
BRDA:181,0,0,-
BRDA:181,0,1,-
BRDA:183,0,0,-
BRDA:183,0,1,-
BRDA:185,0,0,-
BRDA:185,e0,1,-
BRDA:188,0,0,-
BRDA:188,e0,1,-
BRDA:199,0,0,2
BRDA:199,0,1,1
BRDA:209,0,0,31
BRDA:209,e0,1,0
BRDA:209,0,2,20
BRDA:209,0,3,11
BRDA:211,0,0,20
BRDA:211,e0,1,0
BRDA:215,0,0,31
BRDA:215,e0,1,0
BRDA:226,0,0,4
BRDA:226,e0,1,0
BRDA:226,0,2,2
BRDA:226,0,3,2
BRDA:232,0,0,0
BRDA:232,0,1,2
BRDA:238,0,0,2
BRDA:238,e0,1,0
BRDA:238,0,2,2
BRDA:238,e0,3,0
BRDA:238,0,4,2
BRDA:238,0,5,0
BRDA:246,0,0,-
BRDA:246,e0,1,-
BRDA:251,0,0,3
BRDA:251,e0,1,0
BRDA:251,0,2,2
BRDA:251,0,3,1
BRDA:257,0,0,1
BRDA:257,e0,1,0
BRDA:257,0,2,1
BRDA:257,e0,3,0
BRDA:257,0,4,1
BRDA:257,e0,5,0
BRDA:257,0,6,1
BRDA:257,e0,7,0
BRDA:260,0,0,1
BRDA:260,e0,1,0
BRDA:265,0,0,4
BRDA:265,e0,1,0
BRDA:265,0,2,2
BRDA:265,0,3,2
BRDA:271,0,0,1
BRDA:271,0,1,1
BRDA:271,0,2,2
BRDA:271,e0,3,0
BRDA:272,0,0,2
BRDA:272,e0,1,0
BRDA:272,0,2,2
BRDA:272,e0,3,0
BRDA:274,0,0,2
BRDA:274,e0,1,0
BRDA:293,0,0,19
BRDA:293,e0,1,0
BRDA:294,0,0,19
BRDA:294,e0,1,0
BRDA:303,0,0,19
BRDA:303,e0,1,0
BRDA:308,0,0,20
BRDA:308,0,1,14
BRDA:313,0,0,3
BRDA:313,0,1,17
BRDA:316,0,0,3
BRDA:316,e0,1,0
BRDA:323,0,0,2
BRDA:323,0,1,15
BRDA:326,0,0,2
BRDA:326,e0,1,0
BRDA:331,0,0,15
BRDA:331,e0,1,0
BRDA:334,0,0,15
BRDA:334,e0,1,0
BRDA:341,0,0,14
BRDA:341,0,1,5
BRDA:341,0,2,14
BRDA:341,0,3,0
BRDA:341,0,4,14
BRDA:341,0,5,5
BRDA:343,0,0,14
BRDA:343,e0,1,0
BRDA:348,0,0,1
BRDA:348,0,1,18
BRDA:359,0,0,15
BRDA:359,e0,1,0
BRDA:359,0,2,8
BRDA:359,0,3,7
BRDA:363,0,0,8
BRDA:363,e0,1,0
BRDA:363,0,2,8
BRDA:363,e0,3,0
BRDA:363,0,4,8
BRDA:363,e0,5,0
BRDA:366,0,0,8
BRDA:366,0,1,0
BRDA:366,0,2,2
BRDA:366,0,3,6
BRDA:371,0,0,5
BRDA:371,0,1,1
BRDA:373,0,0,5
BRDA:373,e0,1,0
BRDA:378,0,0,0
BRDA:378,0,1,0
BRDA:385,0,0,7
BRDA:385,e0,1,0
BRDA:385,0,2,7
BRDA:385,0,3,0
BRDA:389,0,0,7
BRDA:389,e0,1,0
BRDA:389,0,2,7
BRDA:389,e0,3,0
BRDA:389,0,4,7
BRDA:389,e0,5,0
BRDA:392,0,0,6
BRDA:392,0,1,1
BRDA:392,0,2,3
BRDA:392,0,3,3
BRDA:396,0,0,3
BRDA:396,0,1,0
BRDA:398,0,0,3
BRDA:398,e0,1,0
BRDA:408,0,0,0
BRDA:408,0,1,0
BRF:228
BRH:115
DA:28,28
DA:31,28
DA:32,28
DA:33,28
DA:34,28
DA:35,28
DA:38,56
DA:39,28
DA:41,19
DA:42,19
DA:46,28
DA:47,0
DA:50,1
DA:53,28
DA:55,28
DA:57,28
DA:58,28
DA:60,3
DA:63,28
DA:64,28
DA:66,3
DA:69,3
DA:71,1
DA:75,2
DA:76,2
DA:78,2
DA:79,2
DA:81,6
DA:83,6
DA:85,6
DA:87,1
DA:90,5
DA:92,2
DA:95,3
DA:97,3
DA:99,0
DA:100,0
DA:103,3
DA:104,3
DA:107,6
DA:108,3
DA:109,3
DA:111,3
DA:114,0
DA:116,0
DA:118,0
DA:119,0
DA:125,3
DA:126,6
DA:128,3
DA:129,6
DA:131,3
DA:133,3
DA:136,6
DA:138,9
DA:140,66
DA:142,60
DA:144,60
DA:146,0
DA:148,60
DA:152,6
DA:154,9
DA:156,6
DA:158,6
DA:161,0
DA:163,0
DA:165,0
DA:167,0
DA:171,3
DA:172,3
DA:174,3
DA:175,3
DA:177,3
DA:181,0
DA:183,0
DA:185,0
DA:188,0
DA:194,6
DA:195,3
DA:197,3
DA:199,3
DA:201,2
DA:204,1
DA:207,31
DA:209,31
DA:211,20
DA:215,31
DA:216,31
DA:217,31
DA:219,9
DA:221,9
DA:224,4
DA:226,4
DA:228,4
DA:232,2
DA:234,0
DA:237,2
DA:238,2
DA:240,2
DA:243,0
DA:246,0
DA:249,3
DA:251,3
DA:253,2
DA:257,1
DA:260,1
DA:261,1
DA:263,4
DA:265,4
DA:267,2
DA:271,2
DA:272,2
DA:274,2
DA:275,2
DA:277,7
DA:279,7
DA:280,7
DA:282,6
DA:284,6
DA:285,6
DA:287,19
DA:293,19
DA:294,19
DA:295,19
DA:298,19
DA:299,19
DA:301,19
DA:303,19
DA:306,19
DA:308,34
DA:311,20
DA:313,20
DA:316,3
DA:317,5
DA:321,17
DA:323,17
DA:326,2
DA:327,2
DA:331,15
DA:334,15
DA:337,15
DA:338,15
DA:341,19
DA:343,14
DA:347,19
DA:348,19
DA:350,1
DA:352,19
DA:354,15
DA:356,15
DA:359,15
DA:363,8
DA:366,8
DA:368,2
DA:371,6
DA:373,5
DA:376,6
DA:378,0
DA:381,0
DA:385,7
DA:389,7
DA:392,7
DA:394,3
DA:396,3
DA:398,3
DA:401,3
DA:408,0
DA:411,0
DA:415,4
DA:416,15
LF:170
LH:147
end_of_record
TN:
SF:/home/duong/MediaPlayerApp/src/controllers/HistoryController.cpp
FN:103,109,_ZN12media_player11controllers17HistoryController12addToHistoryERKNS_6models14MediaFileModelE
FN:111,117,_ZN12media_player11controllers17HistoryController12clearHistoryEv
FN:119,127,_ZN12media_player11controllers17HistoryController14refreshHistoryEv
FN:133,140,_ZNK12media_player11controllers17HistoryController13getLastPlayedEv
FN:142,149,_ZNK12media_player11controllers17HistoryController17getPreviousPlayedEv
FN:15,24,_ZN12media_player11controllers17HistoryControllerC2ESt10shared_ptrINS_6models12HistoryModelEES2_INS0_15QueueControllerEES2_INS0_18PlaybackControllerEE
FN:26,28,_ZN12media_player11controllers17HistoryControllerD2Ev
FN:34,41,_ZNK12media_player11controllers17HistoryController17getHistoryEntriesEv
FN:43,50,_ZNK12media_player11controllers17HistoryController16getRecentHistoryEm
FN:52,59,_ZNK12media_player11controllers17HistoryController15getHistoryCountEv
FN:61,68,_ZNK12media_player11controllers17HistoryController14isHistoryEmptyEv
FN:74,101,_ZN12media_player11controllers17HistoryController15playFromHistoryEm
FNDA:5,_ZN12media_player11controllers17HistoryController12addToHistoryERKNS_6models14MediaFileModelE
FNDA:2,_ZN12media_player11controllers17HistoryController12clearHistoryEv
FNDA:1,_ZN12media_player11controllers17HistoryController14refreshHistoryEv
FNDA:4,_ZNK12media_player11controllers17HistoryController13getLastPlayedEv
FNDA:4,_ZNK12media_player11controllers17HistoryController17getPreviousPlayedEv
FNDA:32,_ZN12media_player11controllers17HistoryControllerC2ESt10shared_ptrINS_6models12HistoryModelEES2_INS0_15QueueControllerEES2_INS0_18PlaybackControllerEE
FNDA:32,_ZN12media_player11controllers17HistoryControllerD2Ev
FNDA:4,_ZNK12media_player11controllers17HistoryController17getHistoryEntriesEv
FNDA:1,_ZNK12media_player11controllers17HistoryController16getRecentHistoryEm
FNDA:5,_ZNK12media_player11controllers17HistoryController15getHistoryCountEv
FNDA:6,_ZNK12media_player11controllers17HistoryController14isHistoryEmptyEv
FNDA:7,_ZN12media_player11controllers17HistoryController15playFromHistoryEm
FNF:12
FNH:12
BRDA:36,0,0,1
BRDA:36,0,1,3
BRDA:45,0,0,0
BRDA:45,0,1,1
BRDA:54,0,0,1
BRDA:54,0,1,4
BRDA:63,0,0,2
BRDA:63,0,1,4
BRDA:76,0,0,7
BRDA:76,0,1,0
BRDA:76,0,2,6
BRDA:76,0,3,1
BRDA:76,0,4,0
BRDA:76,0,5,6
BRDA:76,0,6,1
BRDA:76,0,7,6
BRDA:82,0,0,6
BRDA:82,e0,1,0
BRDA:83,0,0,2
BRDA:83,0,1,4
BRDA:88,0,0,4
BRDA:88,e0,1,0
BRDA:91,0,0,4
BRDA:91,e0,1,0
BRDA:94,0,0,4
BRDA:94,e0,1,0
BRDA:95,0,0,4
BRDA:95,0,1,0
BRDA:97,0,0,4
BRDA:97,e0,1,0
BRDA:105,0,0,4
BRDA:105,0,1,1
BRDA:113,0,0,1
BRDA:113,0,1,1
BRDA:123,0,0,0
BRDA:123,0,1,1
BRDA:135,0,0,1
BRDA:135,0,1,3
BRDA:144,0,0,1
BRDA:144,0,1,3
BRF:40
BRH:30
DA:15,32
DA:19,32
DA:20,32
DA:21,32
DA:22,32
DA:24,32
DA:26,32
DA:28,32
DA:34,4
DA:36,4
DA:38,1
DA:40,3
DA:43,1
DA:45,1
DA:47,0
DA:49,1
DA:52,5
DA:54,5
DA:56,1
DA:58,4
DA:61,6
DA:63,6
DA:65,2
DA:67,4
DA:74,7
DA:76,7
DA:78,1
DA:82,6
DA:83,6
DA:85,2
DA:88,4
DA:91,4
DA:94,4
DA:95,4
DA:97,4
DA:100,4
DA:101,6
DA:103,5
DA:105,5
DA:107,4
DA:109,5
DA:111,2
DA:113,2
DA:115,1
DA:117,2
DA:119,1
DA:123,1
DA:125,0
DA:127,1
DA:133,4
DA:135,4
DA:137,1
DA:139,3
DA:142,4
DA:144,4
DA:146,1
DA:148,3
LF:57
LH:55
end_of_record
TN:
SF:/home/duong/MediaPlayerApp/src/controllers/LibraryController.cpp
FN:100,103,_ZNK12media_player11controllers17LibraryController11sortByAlbumEb
FN:105,108,_ZNK12media_player11controllers17LibraryController13getTotalCountEv
FN:110,113,_ZNK12media_player11controllers17LibraryController13getAudioCountEv
FN:115,118,_ZNK12media_player11controllers17LibraryController13getVideoCountEv
FN:20,28,_ZNK12media_player11controllers17LibraryController12readMetadataERKNSt7__cxx1112basic_stringIcSt11char_traitsIcESaIcEEE
FN:30,48,_ZN12media_player11controllers17LibraryController14updateMetadataERKNS_6models14MediaFileModelERKNS2_13MetadataModelE
FN:50,52,_ZN12media_player11controllers17LibraryControllerD2Ev
FN:54,57,_ZNK12media_player11controllers17LibraryController11getAllMediaEv
FN:59,62,_ZNK12media_player11controllers17LibraryController7getPageEmm
FN:64,67,_ZNK12media_player11controllers17LibraryController13getAudioFilesEv
FN:69,83,_ZNK12media_player11controllers17LibraryController13getVideoFilesEv
FN:85,88,_ZNK12media_player11controllers17LibraryController6searchERKNSt7__cxx1112basic_stringIcSt11char_traitsIcESaIcEEE
FN:9,18,_ZN12media_player11controllers17LibraryControllerC2ESt10shared_ptrINS_6models12LibraryModelEES2_INS_12repositories17LibraryRepositoryEES2_INS_8services15IMetadataReaderEE
FN:90,93,_ZNK12media_player11controllers17LibraryController11sortByTitleEb
FN:95,98,_ZNK12media_player11controllers17LibraryController12sortByArtistEb
FNDA:1,_ZNK12media_player11controllers17LibraryController11sortByAlbumEb
FNDA:1,_ZNK12media_player11controllers17LibraryController13getTotalCountEv
FNDA:1,_ZNK12media_player11controllers17LibraryController13getAudioCountEv
FNDA:1,_ZNK12media_player11controllers17LibraryController13getVideoCountEv
FNDA:2,_ZNK12media_player11controllers17LibraryController12readMetadataERKNSt7__cxx1112basic_stringIcSt11char_traitsIcESaIcEEE
FNDA:1,_ZN12media_player11controllers17LibraryController14updateMetadataERKNS_6models14MediaFileModelERKNS2_13MetadataModelE
FNDA:4,_ZN12media_player11controllers17LibraryControllerD2Ev
FNDA:1,_ZNK12media_player11controllers17LibraryController11getAllMediaEv
FNDA:1,_ZNK12media_player11controllers17LibraryController7getPageEmm
FNDA:1,_ZNK12media_player11controllers17LibraryController13getAudioFilesEv
FNDA:1,_ZNK12media_player11controllers17LibraryController13getVideoFilesEv
FNDA:1,_ZNK12media_player11controllers17LibraryController6searchERKNSt7__cxx1112basic_stringIcSt11char_traitsIcESaIcEEE
FNDA:4,_ZN12media_player11controllers17LibraryControllerC2ESt10shared_ptrINS_6models12LibraryModelEES2_INS_12repositories17LibraryRepositoryEES2_INS_8services15IMetadataReaderEE
FNDA:1,_ZNK12media_player11controllers17LibraryController11sortByTitleEb
FNDA:1,_ZNK12media_player11controllers17LibraryController12sortByArtistEb
FNF:15
FNH:15
BRDA:22,0,0,2
BRDA:22,0,1,0
BRDA:22,0,2,2
BRDA:22,e0,3,0
BRDA:22,0,4,1
BRDA:22,0,5,1
BRDA:22,0,6,1
BRDA:22,0,7,1
BRDA:24,0,0,1
BRDA:24,e0,1,0
BRDA:25,0,0,0
BRDA:25,0,1,1
BRDA:32,0,0,0
BRDA:32,0,1,1
BRDA:35,0,0,1
BRDA:35,e0,1,0
BRDA:35,0,2,1
BRDA:35,e0,3,0
BRDA:35,0,4,1
BRDA:35,0,5,0
BRDA:37,0,0,1
BRDA:37,e0,1,0
BRDA:38,0,0,1
BRDA:38,e0,1,0
BRDA:38,0,2,1
BRDA:38,e0,3,0
BRDA:39,0,0,1
BRDA:39,e0,1,0
BRDA:39,0,2,1
BRDA:39,e0,3,0
BRDA:40,0,0,1
BRDA:40,e0,1,0
BRDA:40,0,2,1
BRDA:40,e0,3,0
BRDA:44,0,0,1
BRDA:44,e0,1,0
BRDA:44,0,2,1
BRDA:44,e0,3,0
BRDA:71,0,0,1
BRDA:71,e0,1,0
BRDA:74,0,0,3
BRDA:74,0,1,1
BRDA:76,0,0,0
BRDA:76,0,1,3
BRDA:78,0,0,-
BRDA:78,e0,1,-
BRF:46
BRH:25
DA:9,4
DA:13,4
DA:14,4
DA:15,4
DA:16,4
DA:18,4
DA:20,2
DA:22,2
DA:23,1
DA:24,1
DA:25,1
DA:26,0
DA:27,1
DA:28,1
DA:30,1
DA:32,1
DA:35,1
DA:37,1
DA:38,1
DA:39,1
DA:40,1
DA:44,1
DA:45,1
DA:46,1
DA:47,0
DA:50,4
DA:52,4
DA:54,1
DA:56,1
DA:59,1
DA:61,1
DA:64,1
DA:66,1
DA:69,1
DA:71,1
DA:72,1
DA:74,4
DA:76,3
DA:78,0
DA:82,2
DA:83,1
DA:85,1
DA:87,1
DA:90,1
DA:92,1
DA:95,1
DA:97,1
DA:100,1
DA:102,1
DA:105,1
DA:107,1
DA:110,1
DA:112,1
DA:115,1
DA:117,1
LF:55
LH:52
end_of_record
TN:
SF:/home/duong/MediaPlayerApp/src/controllers/MainController.cpp
FN:29,32,_ZN12media_player11controllers14MainControllerD2Ev
FN:34,51,_ZN12media_player11controllers14MainController10navigateToENS0_10ScreenTypeE
FN:53,56,_ZNK12media_player11controllers14MainController16getCurrentScreenEv
FN:58,67,_ZN12media_player11controllers14MainController10initializeEv
FN:69,89,_ZN12media_player11controllers14MainController8shutdownEv
FN:9,27,_ZN12media_player11controllers14MainControllerC2ESt10shared_ptrINS0_18PlaybackControllerEES2_INS0_16SourceControllerEES2_INS0_17LibraryControllerEES2_INS0_18PlaylistControllerEES2_INS0_15QueueControllerEES2_INS0_18HardwareControllerEES2_INS_6models16SystemStateModelEE
FN:91,95,_ZN12media_player11controllers14MainController20handleGlobalKeyPressEi
FN:97,100,_ZN12media_player11controllers14MainController17handleGlobalEventERKNSt7__cxx1112basic_stringIcSt11char_traitsIcESaIcEEE
FNDA:1,_ZN12media_player11controllers14MainControllerD2Ev
FNDA:4,_ZN12media_player11controllers14MainController10navigateToENS0_10ScreenTypeE
FNDA:1,_ZNK12media_player11controllers14MainController16getCurrentScreenEv
FNDA:1,_ZN12media_player11controllers14MainController10initializeEv
FNDA:2,_ZN12media_player11controllers14MainController8shutdownEv
FNDA:1,_ZN12media_player11controllers14MainControllerC2ESt10shared_ptrINS0_18PlaybackControllerEES2_INS0_16SourceControllerEES2_INS0_17LibraryControllerEES2_INS0_18PlaylistControllerEES2_INS0_15QueueControllerEES2_INS0_18HardwareControllerEES2_INS_6models16SystemStateModelEE
FNDA:1,_ZN12media_player11controllers14MainController20handleGlobalKeyPressEi
FNDA:1,_ZN12media_player11controllers14MainController17handleGlobalEventERKNSt7__cxx1112basic_stringIcSt11char_traitsIcESaIcEEE
FNF:8
FNH:8
BRDA:38,0,0,0
BRDA:38,0,1,1
BRDA:38,0,2,1
BRDA:38,0,3,1
BRDA:38,0,4,1
BRDA:38,0,5,0
BRDA:61,0,0,1
BRDA:61,0,1,0
BRDA:72,0,0,2
BRDA:72,0,1,0
BRDA:78,0,0,0
BRDA:78,0,1,2
BRDA:84,0,0,2
BRDA:84,0,1,0
BRF:14
BRH:8
DA:9,1
DA:17,1
DA:18,1
DA:19,1
DA:20,1
DA:21,1
DA:22,1
DA:23,1
DA:24,1
DA:25,1
DA:27,1
DA:29,1
DA:31,1
DA:32,1
DA:34,4
DA:36,4
DA:38,4
DA:40,0
DA:41,0
DA:42,1
DA:43,1
DA:44,1
DA:45,1
DA:46,1
DA:47,1
DA:48,1
DA:49,1
DA:51,4
DA:53,1
DA:55,1
DA:58,1
DA:61,1
DA:63,1
DA:66,1
DA:69,2
DA:72,2
DA:74,2
DA:78,2
DA:80,0
DA:84,2
DA:86,2
DA:89,2
DA:91,1
DA:95,1
DA:97,1
DA:100,1
LF:46
LH:43
end_of_record
TN:
SF:/home/duong/MediaPlayerApp/src/controllers/PlaybackController.cpp
FN:10,53,_ZN12media_player11controllers18PlaybackControllerC2ESt10shared_ptrINS_6models10QueueModelEES2_INS3_18PlaybackStateModelEES2_INS3_12HistoryModelEE
FN:131,141,_ZN12media_player11controllers18PlaybackController5pauseEv
FN:143,187,_ZN12media_player11controllers18PlaybackController15togglePlayPauseEv
FN:189,209,_ZN12media_player11controllers18PlaybackController4stopEv
FN:211,222,_ZN12media_player11controllers18PlaybackController8playNextEv
FN:227,292,_ZN12media_player11controllers18PlaybackController12playPreviousEv
FN:26,29,_ZZN12media_player11controllers18PlaybackControllerC4ESt10shared_ptrINS_6models10QueueModelEES2_INS3_18PlaybackStateModelEES2_INS3_12HistoryModelEEENKUlNS_8services13PlaybackStateEE_clESB_
FN:294,306,_ZN12media_player11controllers18PlaybackController10playItemAtEm
FN:308,333,_ZN12media_player11controllers18PlaybackController21playMediaWithoutQueueERKNS_6models14MediaFileModelE
FN:33,36,_ZZN12media_player11controllers18PlaybackControllerC4ESt10shared_ptrINS_6models10QueueModelEES2_INS3_18PlaybackStateModelEES2_INS3_12HistoryModelEEENKUliiE_clEii
FN:335,345,_ZN12media_player11controllers18PlaybackController4seekEi
FN:347,357,_ZN12media_player11controllers18PlaybackController9setVolumeEi
FN:359,363,_ZNK12media_player11controllers18PlaybackController9getVolumeEv
FN:365,369,_ZNK12media_player11controllers18PlaybackController9isPlayingEv
FN:371,375,_ZNK12media_player11controllers18PlaybackController8isPausedEv
FN:377,381,_ZNK12media_player11controllers18PlaybackController9isStoppedEv
FN:383,387,_ZNK12media_player11controllers18PlaybackController18getCurrentFilePathB5cxx11Ev
FN:389,393,_ZNK12media_player11controllers18PlaybackController19getCurrentMediaTypeEv
FN:395,429,_ZN12media_player11controllers18PlaybackController19selectAndLoadEngineERKNS_6models14MediaFileModelE
FN:40,43,_ZZN12media_player11controllers18PlaybackControllerC4ESt10shared_ptrINS_6models10QueueModelEES2_INS3_18PlaybackStateModelEES2_INS3_12HistoryModelEEENKUlRKNSt7__cxx1112basic_stringIcSt11char_traitsIcESaIcEEEE_clESH_
FN:431,440,_ZN12media_player11controllers18PlaybackController20cleanupCurrentEngineEv
FN:442,462,_ZN12media_player11controllers18PlaybackController14onStateChangedENS_8services13PlaybackStateE
FN:464,469,_ZN12media_player11controllers18PlaybackController17onPositionChangedEii
FN:47,50,_ZZN12media_player11controllers18PlaybackControllerC4ESt10shared_ptrINS_6models10QueueModelEES2_INS3_18PlaybackStateModelEES2_INS3_12HistoryModelEEENKUlvE_clEv
FN:471,490,_ZN12media_player11controllers18PlaybackController7onErrorERKNSt7__cxx1112basic_stringIcSt11char_traitsIcESaIcEEE
FN:492,561,_ZN12media_player11controllers18PlaybackController10onFinishedEv
FN:55,58,_ZN12media_player11controllers18PlaybackControllerD2Ev
FN:563,572,_ZN12media_player11controllers18PlaybackController14setAudioEngineESt10unique_ptrINS_8services15IPlaybackEngineESt14default_deleteIS4_EE
FN:567,567,_ZZN12media_player11controllers18PlaybackController14setAudioEngineESt10unique_ptrINS_8services15IPlaybackEngineESt14default_deleteIS4_EEENKUlNS3_13PlaybackStateEE_clES8_
FN:568,568,_ZZN12media_player11controllers18PlaybackController14setAudioEngineESt10unique_ptrINS_8services15IPlaybackEngineESt14default_deleteIS4_EEENKUliiE_clEii
FN:569,569,_ZZN12media_player11controllers18PlaybackController14setAudioEngineESt10unique_ptrINS_8services15IPlaybackEngineESt14default_deleteIS4_EEENKUlRKNSt7__cxx1112basic_stringIcSt11char_traitsIcESaIcEEEE_clESF_
FN:570,570,_ZZN12media_player11controllers18PlaybackController14setAudioEngineESt10unique_ptrINS_8services15IPlaybackEngineESt14default_deleteIS4_EEENKUlvE_clEv
FN:60,129,_ZN12media_player11controllers18PlaybackController4playEv
FNDA:66,_ZN12media_player11controllers18PlaybackControllerC2ESt10shared_ptrINS_6models10QueueModelEES2_INS3_18PlaybackStateModelEES2_INS3_12HistoryModelEE
FNDA:6,_ZN12media_player11controllers18PlaybackController5pauseEv
FNDA:9,_ZN12media_player11controllers18PlaybackController15togglePlayPauseEv
FNDA:79,_ZN12media_player11controllers18PlaybackController4stopEv
FNDA:8,_ZN12media_player11controllers18PlaybackController8playNextEv
FNDA:7,_ZN12media_player11controllers18PlaybackController12playPreviousEv
FNDA:0,_ZZN12media_player11controllers18PlaybackControllerC4ESt10shared_ptrINS_6models10QueueModelEES2_INS3_18PlaybackStateModelEES2_INS3_12HistoryModelEEENKUlNS_8services13PlaybackStateEE_clESB_
FNDA:6,_ZN12media_player11controllers18PlaybackController10playItemAtEm
FNDA:9,_ZN12media_player11controllers18PlaybackController21playMediaWithoutQueueERKNS_6models14MediaFileModelE
FNDA:0,_ZZN12media_player11controllers18PlaybackControllerC4ESt10shared_ptrINS_6models10QueueModelEES2_INS3_18PlaybackStateModelEES2_INS3_12HistoryModelEEENKUliiE_clEii
FNDA:3,_ZN12media_player11controllers18PlaybackController4seekEi
FNDA:3,_ZN12media_player11controllers18PlaybackController9setVolumeEi
FNDA:1,_ZNK12media_player11controllers18PlaybackController9getVolumeEv
FNDA:30,_ZNK12media_player11controllers18PlaybackController9isPlayingEv
FNDA:9,_ZNK12media_player11controllers18PlaybackController8isPausedEv
FNDA:7,_ZNK12media_player11controllers18PlaybackController9isStoppedEv
FNDA:12,_ZNK12media_player11controllers18PlaybackController18getCurrentFilePathB5cxx11Ev
FNDA:2,_ZNK12media_player11controllers18PlaybackController19getCurrentMediaTypeEv
FNDA:48,_ZN12media_player11controllers18PlaybackController19selectAndLoadEngineERKNS_6models14MediaFileModelE
FNDA:0,_ZZN12media_player11controllers18PlaybackControllerC4ESt10shared_ptrINS_6models10QueueModelEES2_INS3_18PlaybackStateModelEES2_INS3_12HistoryModelEEENKUlRKNSt7__cxx1112basic_stringIcSt11char_traitsIcESaIcEEEE_clESH_
FNDA:81,_ZN12media_player11controllers18PlaybackController20cleanupCurrentEngineEv
FNDA:133,_ZN12media_player11controllers18PlaybackController14onStateChangedENS_8services13PlaybackStateE
FNDA:2,_ZN12media_player11controllers18PlaybackController17onPositionChangedEii
FNDA:0,_ZZN12media_player11controllers18PlaybackControllerC4ESt10shared_ptrINS_6models10QueueModelEES2_INS3_18PlaybackStateModelEES2_INS3_12HistoryModelEEENKUlvE_clEv
FNDA:1,_ZN12media_player11controllers18PlaybackController7onErrorERKNSt7__cxx1112basic_stringIcSt11char_traitsIcESaIcEEE
FNDA:9,_ZN12media_player11controllers18PlaybackController10onFinishedEv
FNDA:66,_ZN12media_player11controllers18PlaybackControllerD2Ev
FNDA:41,_ZN12media_player11controllers18PlaybackController14setAudioEngineESt10unique_ptrINS_8services15IPlaybackEngineESt14default_deleteIS4_EE
FNDA:133,_ZZN12media_player11controllers18PlaybackController14setAudioEngineESt10unique_ptrINS_8services15IPlaybackEngineESt14default_deleteIS4_EEENKUlNS3_13PlaybackStateEE_clES8_
FNDA:2,_ZZN12media_player11controllers18PlaybackController14setAudioEngineESt10unique_ptrINS_8services15IPlaybackEngineESt14default_deleteIS4_EEENKUliiE_clEii
FNDA:1,_ZZN12media_player11controllers18PlaybackController14setAudioEngineESt10unique_ptrINS_8services15IPlaybackEngineESt14default_deleteIS4_EEENKUlRKNSt7__cxx1112basic_stringIcSt11char_traitsIcESaIcEEEE_clESF_
FNDA:9,_ZZN12media_player11controllers18PlaybackController14setAudioEngineESt10unique_ptrINS_8services15IPlaybackEngineESt14default_deleteIS4_EEENKUlvE_clEv
FNDA:41,_ZN12media_player11controllers18PlaybackController4playEv
FNF:33
FNH:29
BRDA:22,0,0,66
BRDA:22,e0,1,0
BRDA:25,0,0,66
BRDA:25,e0,1,0
BRDA:32,0,0,66
BRDA:32,e0,1,0
BRDA:39,0,0,66
BRDA:39,e0,1,0
BRDA:46,0,0,66
BRDA:46,e0,1,0
BRDA:62,0,0,41
BRDA:62,e0,1,0
BRDA:66,0,0,41
BRDA:66,e0,1,0
BRDA:68,0,0,2
BRDA:68,0,1,39
BRDA:74,0,0,41
BRDA:74,0,1,4
BRDA:74,0,2,41
BRDA:74,e0,3,0
BRDA:74,0,4,41
BRDA:74,e0,5,0
BRDA:74,0,6,41
BRDA:74,e0,7,0
BRDA:74,0,8,6
BRDA:74,0,9,35
BRDA:74,0,10,41
BRDA:74,0,11,4
BRDA:74,0,12,41
BRDA:74,0,13,4
BRDA:74,0,14,6
BRDA:74,0,15,39
BRDA:74,0,16,0
BRDA:74,0,17,0
BRDA:74,0,18,0
BRDA:74,0,19,0
BRDA:76,0,0,6
BRDA:76,e0,1,0
BRDA:76,0,2,6
BRDA:76,e0,3,0
BRDA:77,0,0,6
BRDA:77,e0,1,0
BRDA:78,0,0,6
BRDA:78,e0,1,0
BRDA:80,0,0,4
BRDA:80,0,1,35
BRDA:82,0,0,4
BRDA:82,e0,1,0
BRDA:88,0,0,35
BRDA:88,e0,1,0
BRDA:88,0,2,35
BRDA:88,0,3,0
BRDA:88,0,4,35
BRDA:88,e0,5,0
BRDA:88,0,6,0
BRDA:88,e0,7,0
BRDA:88,0,8,35
BRDA:88,e0,9,0
BRDA:89,0,0,35
BRDA:89,e0,1,0
BRDA:89,0,2,35
BRDA:89,0,3,0
BRDA:89,0,4,35
BRDA:89,e0,5,0
BRDA:89,0,6,0
BRDA:89,e0,7,0
BRDA:89,0,8,35
BRDA:89,e0,9,0
BRDA:89,0,10,35
BRDA:89,0,11,0
BRDA:89,0,12,0
BRDA:89,0,13,0
BRDA:90,0,0,35
BRDA:90,e0,1,0
BRDA:93,0,0,35
BRDA:93,e0,1,0
BRDA:93,0,2,35
BRDA:93,e0,3,0
BRDA:93,0,4,35
BRDA:93,0,5,0
BRDA:95,0,0,35
BRDA:95,e0,1,0
BRDA:95,0,2,1
BRDA:95,0,3,34
BRDA:97,0,0,1
BRDA:97,e0,1,0
BRDA:97,0,2,1
BRDA:97,e0,3,0
BRDA:98,0,0,1
BRDA:98,e0,1,0
BRDA:99,0,0,1
BRDA:99,e0,1,0
BRDA:102,0,0,34
BRDA:102,e0,1,0
BRDA:102,0,2,34
BRDA:102,e0,3,0
BRDA:106,0,0,0
BRDA:106,0,1,34
BRDA:111,0,0,34
BRDA:111,e0,1,0
BRDA:113,0,0,34
BRDA:113,0,1,0
BRDA:116,0,0,1
BRDA:116,0,1,33
BRDA:120,0,0,33
BRDA:120,0,1,0
BRDA:122,0,0,33
BRDA:122,e0,1,0
BRDA:122,0,2,33
BRDA:122,e0,3,0
BRDA:123,0,0,33
BRDA:123,e0,1,0
BRDA:133,0,0,6
BRDA:133,e0,1,0
BRDA:135,0,0,0
BRDA:135,0,1,6
BRDA:140,0,0,6
BRDA:140,e0,1,0
BRDA:145,0,0,9
BRDA:145,e0,1,0
BRDA:147,0,0,9
BRDA:147,e0,1,0
BRDA:147,0,2,2
BRDA:147,0,3,7
BRDA:149,0,0,2
BRDA:149,e0,1,0
BRDA:151,0,0,7
BRDA:151,e0,1,0
BRDA:151,0,2,2
BRDA:151,0,3,5
BRDA:151,0,4,2
BRDA:151,0,5,0
BRDA:151,0,6,2
BRDA:151,0,7,5
BRDA:154,0,0,2
BRDA:154,e0,1,0
BRDA:159,0,0,2
BRDA:159,0,1,3
BRDA:159,0,2,2
BRDA:159,0,3,0
BRDA:159,0,4,2
BRDA:159,0,5,3
BRDA:162,0,0,2
BRDA:162,e0,1,0
BRDA:162,0,2,1
BRDA:162,0,3,1
BRDA:165,0,0,1
BRDA:165,e0,1,0
BRDA:170,0,0,1
BRDA:170,e0,1,0
BRDA:170,0,2,1
BRDA:170,0,3,0
BRDA:172,0,0,1
BRDA:172,e0,1,0
BRDA:172,0,2,1
BRDA:172,e0,3,0
BRDA:173,0,0,1
BRDA:173,e0,1,0
BRDA:173,0,2,1
BRDA:173,0,3,0
BRDA:173,0,4,1
BRDA:173,e0,5,0
BRDA:173,0,6,0
BRDA:173,e0,7,0
BRDA:173,0,8,1
BRDA:173,e0,9,0
BRDA:174,0,0,1
BRDA:174,e0,1,0
BRDA:174,0,2,1
BRDA:174,0,3,0
BRDA:174,0,4,1
BRDA:174,e0,5,0
BRDA:174,0,6,0
BRDA:174,e0,7,0
BRDA:174,0,8,1
BRDA:174,e0,9,0
BRDA:174,0,10,1
BRDA:174,0,11,0
BRDA:174,0,12,0
BRDA:174,0,13,0
BRDA:175,0,0,1
BRDA:175,e0,1,0
BRDA:176,0,0,1
BRDA:176,e0,1,0
BRDA:183,0,0,3
BRDA:183,e0,1,0
BRDA:191,0,0,79
BRDA:191,e0,1,0
BRDA:193,0,0,33
BRDA:193,0,1,46
BRDA:198,0,0,46
BRDA:198,e0,1,0
BRDA:200,0,0,38
BRDA:200,0,1,8
BRDA:202,0,0,38
BRDA:202,e0,1,0
BRDA:202,0,2,38
BRDA:202,e0,3,0
BRDA:203,0,0,38
BRDA:203,e0,1,0
BRDA:204,0,0,38
BRDA:204,e0,1,0
BRDA:213,0,0,8
BRDA:213,e0,1,0
BRDA:214,0,0,8
BRDA:214,e0,1,0
BRDA:215,0,0,6
BRDA:215,0,1,2
BRDA:217,0,0,6
BRDA:217,e0,1,0
BRDA:218,0,0,6
BRDA:218,e0,1,0
BRDA:220,0,0,2
BRDA:220,e0,1,0
BRDA:229,0,0,7
BRDA:229,e0,1,0
BRDA:231,0,0,7
BRDA:231,e0,1,0
BRDA:232,0,0,7
BRDA:232,e0,1,0
BRDA:233,0,0,7
BRDA:233,0,1,0
BRDA:233,0,2,7
BRDA:233,e0,3,0
BRDA:233,0,4,7
BRDA:233,0,5,0
BRDA:233,0,6,7
BRDA:233,0,7,0
BRDA:233,0,8,0
BRDA:233,0,9,0
BRDA:235,0,0,7
BRDA:235,0,1,0
BRDA:235,0,2,7
BRDA:235,e0,3,0
BRDA:235,0,4,0
BRDA:235,0,5,7
BRDA:235,0,6,0
BRDA:235,e0,7,0
BRDA:235,0,8,0
BRDA:235,0,9,0
BRDA:235,0,10,3
BRDA:235,0,11,4
BRDA:236,0,0,3
BRDA:236,0,1,4
BRDA:239,0,0,3
BRDA:239,0,1,0
BRDA:239,0,2,3
BRDA:239,0,3,0
BRDA:239,0,4,3
BRDA:239,0,5,0
BRDA:240,0,0,3
BRDA:240,e0,1,0
BRDA:240,0,2,3
BRDA:240,e0,3,0
BRDA:241,0,0,3
BRDA:241,0,1,0
BRDA:241,0,2,3
BRDA:241,e0,3,0
BRDA:241,0,4,3
BRDA:241,0,5,0
BRDA:245,0,0,4
BRDA:245,e0,1,0
BRDA:246,0,0,4
BRDA:246,0,1,0
BRDA:251,0,0,4
BRDA:251,0,1,0
BRDA:251,0,2,4
BRDA:251,e0,3,0
BRDA:251,0,4,4
BRDA:251,0,5,0
BRDA:251,0,6,4
BRDA:251,0,7,0
BRDA:254,0,0,4
BRDA:254,e0,1,0
BRDA:257,0,0,4
BRDA:257,e0,1,0
BRDA:259,0,0,3
BRDA:259,0,1,1
BRDA:259,0,2,3
BRDA:259,e0,3,0
BRDA:259,0,4,3
BRDA:259,e0,5,0
BRDA:259,0,6,3
BRDA:259,e0,7,0
BRDA:259,0,8,3
BRDA:259,0,9,0
BRDA:259,0,10,3
BRDA:259,0,11,1
BRDA:259,0,12,3
BRDA:259,0,13,1
BRDA:259,0,14,3
BRDA:259,0,15,1
BRDA:259,0,16,0
BRDA:259,0,17,0
BRDA:259,0,18,0
BRDA:259,0,19,0
BRDA:262,0,0,3
BRDA:262,e0,1,0
BRDA:262,0,2,3
BRDA:262,e0,3,0
BRDA:265,0,0,3
BRDA:265,e0,1,0
BRDA:266,0,0,3
BRDA:266,e0,1,0
BRDA:266,0,2,0
BRDA:266,0,3,3
BRDA:268,0,0,3
BRDA:268,e0,1,0
BRDA:268,0,2,3
BRDA:268,e0,3,0
BRDA:269,0,0,3
BRDA:269,e0,1,0
BRDA:269,0,2,3
BRDA:269,0,3,0
BRDA:269,0,4,3
BRDA:269,e0,5,0
BRDA:269,0,6,0
BRDA:269,e0,7,0
BRDA:269,0,8,3
BRDA:269,e0,9,0
BRDA:270,0,0,3
BRDA:270,e0,1,0
BRDA:270,0,2,3
BRDA:270,0,3,0
BRDA:270,0,4,3
BRDA:270,e0,5,0
BRDA:270,0,6,0
BRDA:270,e0,7,0
BRDA:270,0,8,3
BRDA:270,e0,9,0
BRDA:270,0,10,3
BRDA:270,0,11,0
BRDA:270,0,12,0
BRDA:270,0,13,0
BRDA:271,0,0,3
BRDA:271,e0,1,0
BRDA:273,0,0,3
BRDA:273,0,1,0
BRDA:273,0,2,3
BRDA:273,e0,3,0
BRDA:273,0,4,3
BRDA:273,0,5,0
BRDA:275,0,0,1
BRDA:275,0,1,3
BRDA:278,0,0,1
BRDA:278,e0,1,0
BRDA:278,0,2,0
BRDA:278,0,3,1
BRDA:283,0,0,1
BRDA:283,e0,1,0
BRDA:284,0,0,1
BRDA:284,e0,1,0
BRDA:285,0,0,1
BRDA:285,e0,1,0
BRDA:286,0,0,1
BRDA:286,0,1,0
BRDA:286,0,2,1
BRDA:286,0,3,0
BRDA:286,0,4,1
BRDA:286,0,5,0
BRDA:288,0,0,1
BRDA:288,e0,1,0
BRDA:288,0,2,1
BRDA:288,e0,3,0
BRDA:291,0,0,1
BRDA:291,e0,1,0
BRDA:296,0,0,6
BRDA:296,e0,1,0
BRDA:298,0,0,6
BRDA:298,e0,1,0
BRDA:298,0,2,1
BRDA:298,0,3,5
BRDA:303,0,0,5
BRDA:303,e0,1,0
BRDA:304,0,0,5
BRDA:304,e0,1,0
BRDA:304,0,2,5
BRDA:304,e0,3,0
BRDA:304,0,4,5
BRDA:304,e0,5,0
BRDA:304,0,6,5
BRDA:304,e0,7,0
BRDA:305,0,0,5
BRDA:305,e0,1,0
BRDA:310,0,0,9
BRDA:310,e0,1,0
BRDA:312,0,0,9
BRDA:312,e0,1,0
BRDA:312,0,2,9
BRDA:312,e0,3,0
BRDA:312,0,4,9
BRDA:312,e0,5,0
BRDA:312,0,6,1
BRDA:312,0,7,8
BRDA:315,0,0,8
BRDA:315,e0,1,0
BRDA:316,0,0,8
BRDA:316,e0,1,0
BRDA:317,0,0,8
BRDA:317,e0,1,0
BRDA:317,0,2,0
BRDA:317,0,3,8
BRDA:320,0,0,8
BRDA:320,e0,1,0
BRDA:320,0,2,8
BRDA:320,e0,3,0
BRDA:321,0,0,8
BRDA:321,e0,1,0
BRDA:321,0,2,8
BRDA:321,0,3,0
BRDA:321,0,4,8
BRDA:321,e0,5,0
BRDA:321,0,6,0
BRDA:321,e0,7,0
BRDA:321,0,8,8
BRDA:321,e0,9,0
BRDA:322,0,0,8
BRDA:322,e0,1,0
BRDA:322,0,2,8
BRDA:322,0,3,0
BRDA:322,0,4,8
BRDA:322,e0,5,0
BRDA:322,0,6,0
BRDA:322,e0,7,0
BRDA:322,0,8,8
BRDA:322,e0,9,0
BRDA:322,0,10,8
BRDA:322,0,11,0
BRDA:322,0,12,0
BRDA:322,0,13,0
BRDA:323,0,0,8
BRDA:323,e0,1,0
BRDA:326,0,0,8
BRDA:326,0,1,0
BRDA:326,0,2,8
BRDA:326,e0,3,0
BRDA:326,0,4,8
BRDA:326,0,5,0
BRDA:327,0,0,8
BRDA:327,0,1,0
BRDA:327,0,2,8
BRDA:327,0,3,0
BRDA:327,0,4,8
BRDA:327,0,5,0
BRDA:329,0,0,8
BRDA:329,e0,1,0
BRDA:329,0,2,8
BRDA:329,e0,3,0
BRDA:330,0,0,8
BRDA:330,e0,1,0
BRDA:337,0,0,3
BRDA:337,e0,1,0
BRDA:339,0,0,0
BRDA:339,0,1,3
BRDA:344,0,0,3
BRDA:344,e0,1,0
BRDA:349,0,0,3
BRDA:349,e0,1,0
BRDA:351,0,0,3
BRDA:351,0,1,0
BRDA:353,0,0,3
BRDA:353,e0,1,0
BRDA:356,0,0,3
BRDA:356,e0,1,0
BRDA:361,0,0,1
BRDA:361,e0,1,0
BRDA:362,0,0,1
BRDA:362,e0,1,0
BRDA:367,0,0,30
BRDA:367,e0,1,0
BRDA:368,0,0,30
BRDA:368,e0,1,0
BRDA:373,0,0,9
BRDA:373,e0,1,0
BRDA:374,0,0,9
BRDA:374,e0,1,0
BRDA:379,0,0,7
BRDA:379,e0,1,0
BRDA:380,0,0,7
BRDA:380,e0,1,0
BRDA:385,0,0,12
BRDA:385,e0,1,0
BRDA:386,0,0,12
BRDA:386,e0,1,0
BRDA:391,0,0,2
BRDA:391,e0,1,0
BRDA:392,0,0,2
BRDA:392,e0,1,0
BRDA:401,0,0,1
BRDA:401,0,1,47
BRDA:406,0,0,0
BRDA:406,0,1,47
BRDA:418,0,0,47
BRDA:418,e0,1,0
BRDA:418,0,2,47
BRDA:418,e0,3,0
BRDA:418,0,4,0
BRDA:418,0,5,47
BRDA:433,0,0,48
BRDA:433,0,1,33
BRDA:444,0,0,133
BRDA:444,e0,1,0
BRDA:447,0,0,47
BRDA:447,0,1,5
BRDA:447,0,2,81
BRDA:447,0,3,0
BRDA:460,0,0,133
BRDA:460,e0,1,0
BRDA:466,0,0,2
BRDA:466,e0,1,0
BRDA:467,0,0,2
BRDA:467,e0,1,0
BRDA:468,0,0,2
BRDA:468,e0,1,0
BRDA:473,0,0,1
BRDA:473,e0,1,0
BRDA:481,0,0,1
BRDA:481,e0,1,0
BRDA:482,0,0,1
BRDA:482,0,1,0
BRDA:482,0,2,1
BRDA:482,0,3,0
BRDA:482,0,4,1
BRDA:482,0,5,0
BRDA:482,0,6,1
BRDA:482,0,7,0
BRDA:483,0,0,1
BRDA:483,e0,1,0
BRDA:484,0,0,1
BRDA:484,e0,1,0
BRDA:486,0,0,1
BRDA:486,0,1,0
BRDA:486,0,2,1
BRDA:486,0,3,0
BRDA:486,0,4,1
BRDA:486,0,5,0
BRDA:487,0,0,1
BRDA:487,e0,1,0
BRDA:489,0,0,-
BRDA:489,e0,1,-
BRDA:494,0,0,9
BRDA:494,e0,1,0
BRDA:496,0,0,3
BRDA:496,0,1,6
BRDA:500,0,0,2
BRDA:500,0,1,1
BRDA:500,0,2,2
BRDA:500,0,3,0
BRDA:502,0,0,2
BRDA:502,e0,1,0
BRDA:503,0,0,1
BRDA:503,0,1,1
BRDA:506,0,0,1
BRDA:506,e0,1,0
BRDA:510,0,0,1
BRDA:510,0,1,0
BRDA:510,0,2,1
BRDA:510,e0,3,0
BRDA:510,0,4,1
BRDA:510,e0,5,0
BRDA:510,0,6,1
BRDA:510,e0,7,0
BRDA:510,0,8,1
BRDA:510,0,9,0
BRDA:510,0,10,1
BRDA:510,0,11,0
BRDA:510,0,12,1
BRDA:510,0,13,0
BRDA:510,0,14,1
BRDA:510,0,15,0
BRDA:510,0,16,0
BRDA:510,0,17,0
BRDA:510,0,18,0
BRDA:510,0,19,0
BRDA:513,0,0,1
BRDA:513,e0,1,0
BRDA:514,0,0,1
BRDA:514,e0,1,0
BRDA:514,0,2,1
BRDA:514,0,3,0
BRDA:516,0,0,1
BRDA:516,e0,1,0
BRDA:516,0,2,1
BRDA:516,e0,3,0
BRDA:517,0,0,1
BRDA:517,e0,1,0
BRDA:517,0,2,1
BRDA:517,0,3,0
BRDA:517,0,4,1
BRDA:517,e0,5,0
BRDA:517,0,6,0
BRDA:517,e0,7,0
BRDA:517,0,8,1
BRDA:517,e0,9,0
BRDA:518,0,0,1
BRDA:518,e0,1,0
BRDA:518,0,2,1
BRDA:518,0,3,0
BRDA:518,0,4,1
BRDA:518,e0,5,0
BRDA:518,0,6,0
BRDA:518,e0,7,0
BRDA:518,0,8,1
BRDA:518,e0,9,0
BRDA:518,0,10,1
BRDA:518,0,11,0
BRDA:518,0,12,0
BRDA:518,0,13,0
BRDA:519,0,0,1
BRDA:519,e0,1,0
BRDA:521,0,0,1
BRDA:521,0,1,0
BRDA:521,0,2,1
BRDA:521,e0,3,0
BRDA:521,0,4,1
BRDA:521,0,5,0
BRDA:521,0,6,1
BRDA:521,0,7,0
BRDA:526,0,0,1
BRDA:526,e0,1,0
BRDA:527,0,0,1
BRDA:527,e0,1,0
BRDA:529,0,0,1
BRDA:529,0,1,5
BRDA:532,0,0,1
BRDA:532,e0,1,0
BRDA:533,0,0,1
BRDA:533,e0,1,0
BRDA:538,0,0,1
BRDA:538,0,1,4
BRDA:540,0,0,1
BRDA:540,0,1,0
BRDA:542,0,0,1
BRDA:542,e0,1,0
BRDA:543,0,0,1
BRDA:543,0,1,0
BRDA:545,0,0,1
BRDA:545,e0,1,0
BRDA:550,0,0,-
BRDA:550,e0,1,-
BRDA:551,0,0,-
BRDA:551,0,1,-
BRDA:551,0,2,-
BRDA:551,e0,3,-
BRDA:551,0,4,-
BRDA:551,e0,5,-
BRDA:551,0,6,-
BRDA:551,e0,7,-
BRDA:551,0,8,-
BRDA:551,0,9,-
BRDA:551,0,10,-
BRDA:551,0,11,-
BRDA:551,0,12,-
BRDA:551,0,13,-
BRDA:551,0,14,-
BRDA:551,0,15,-
BRDA:551,0,16,-
BRDA:551,0,17,-
BRDA:551,0,18,-
BRDA:551,0,19,-
BRDA:553,0,0,-
BRDA:553,e0,1,-
BRDA:554,0,0,-
BRDA:554,e0,1,-
BRDA:554,0,2,-
BRDA:554,e0,3,-
BRDA:555,0,0,-
BRDA:555,e0,1,-
BRDA:555,0,2,-
BRDA:555,0,3,-
BRDA:558,0,0,-
BRDA:558,0,1,-
BRDA:559,0,0,4
BRDA:559,e0,1,0
BRDA:561,0,0,6
BRDA:561,0,1,3
BRDA:565,0,0,41
BRDA:565,e0,1,0
BRDA:567,0,0,41
BRDA:567,e0,1,0
BRDA:568,0,0,41
BRDA:568,e0,1,0
BRDA:569,0,0,41
BRDA:569,e0,1,0
BRDA:570,0,0,41
BRDA:570,e0,1,0
BRF:686
BRH:337
DA:10,66
DA:14,66
DA:15,66
DA:16,66
DA:17,66
DA:18,66
DA:19,66
DA:22,66
DA:25,132
DA:26,0
DA:28,0
DA:29,0
DA:32,132
DA:33,0
DA:35,0
DA:36,0
DA:39,132
DA:40,0
DA:42,0
DA:43,0
DA:46,132
DA:47,0
DA:49,0
DA:50,0
DA:53,66
DA:55,66
DA:57,66
DA:58,66
DA:60,41
DA:62,41
DA:64,41
DA:65,41
DA:66,41
DA:68,41
DA:70,2
DA:74,45
DA:76,6
DA:77,6
DA:78,6
DA:80,39
DA:82,4
DA:83,4
DA:87,35
DA:88,35
DA:89,105
DA:90,35
DA:93,35
DA:95,35
DA:97,1
DA:98,1
DA:99,1
DA:102,34
DA:106,34
DA:108,0
DA:111,34
DA:113,34
DA:116,34
DA:118,1
DA:120,33
DA:122,33
DA:123,33
DA:128,34
DA:129,41
DA:131,6
DA:133,6
DA:135,6
DA:137,0
DA:140,6
DA:141,6
DA:143,9
DA:145,9
DA:147,9
DA:149,2
DA:151,7
DA:154,2
DA:159,5
DA:162,2
DA:165,1
DA:170,1
DA:172,1
DA:173,1
DA:174,3
DA:175,1
DA:176,1
DA:183,3
DA:186,0
DA:187,9
DA:189,79
DA:191,79
DA:193,79
DA:195,33
DA:198,46
DA:200,46
DA:202,76
DA:203,38
DA:204,38
DA:205,38
DA:208,46
DA:209,79
DA:211,8
DA:213,8
DA:214,8
DA:215,8
DA:217,6
DA:218,6
DA:220,2
DA:221,2
DA:222,8
DA:227,7
DA:229,7
DA:231,7
DA:232,7
DA:233,7
DA:235,7
DA:236,7
DA:239,3
DA:240,3
DA:241,3
DA:245,4
DA:246,4
DA:250,4
DA:251,4
DA:254,4
DA:257,4
DA:259,4
DA:262,3
DA:265,3
DA:266,3
DA:267,0
DA:268,3
DA:269,3
DA:270,9
DA:271,3
DA:272,3
DA:273,3
DA:275,4
DA:278,1
DA:280,0
DA:283,1
DA:284,1
DA:285,1
DA:286,1
DA:288,1
DA:289,1
DA:291,1
DA:292,7
DA:294,6
DA:296,6
DA:298,6
DA:300,1
DA:303,5
DA:304,5
DA:305,5
DA:306,6
DA:308,9
DA:310,9
DA:312,9
DA:313,1
DA:315,8
DA:316,8
DA:317,8
DA:318,0
DA:320,8
DA:321,8
DA:322,24
DA:323,8
DA:324,8
DA:326,8
DA:327,8
DA:329,8
DA:330,8
DA:332,8
DA:333,9
DA:335,3
DA:337,3
DA:339,3
DA:341,0
DA:344,3
DA:345,3
DA:347,3
DA:349,3
DA:351,3
DA:353,3
DA:356,3
DA:357,3
DA:359,1
DA:361,1
DA:362,2
DA:363,1
DA:365,30
DA:367,30
DA:368,60
DA:369,30
DA:371,9
DA:373,9
DA:374,18
DA:375,9
DA:377,7
DA:379,7
DA:380,14
DA:381,7
DA:383,12
DA:385,12
DA:386,24
DA:387,12
DA:389,2
DA:391,2
DA:392,4
DA:393,2
DA:395,48
DA:397,48
DA:401,48
DA:403,1
DA:406,47
DA:408,0
DA:412,47
DA:413,47
DA:416,47
DA:418,47
DA:420,0
DA:421,0
DA:422,0
DA:426,47
DA:428,47
DA:431,81
DA:433,81
DA:435,48
DA:438,81
DA:439,81
DA:440,81
DA:442,133
DA:444,133
DA:447,133
DA:449,47
DA:450,47
DA:451,47
DA:452,5
DA:453,5
DA:454,5
DA:455,81
DA:456,81
DA:457,81
DA:460,133
DA:462,133
DA:464,2
DA:466,2
DA:467,2
DA:468,2
DA:469,2
DA:471,1
DA:473,1
DA:476,1
DA:477,1
DA:478,1
DA:479,1
DA:481,1
DA:482,1
DA:483,1
DA:484,1
DA:486,1
DA:487,1
DA:489,0
DA:490,1
DA:492,9
DA:494,9
DA:495,9
DA:496,9
DA:498,3
DA:500,3
DA:502,2
DA:503,2
DA:505,1
DA:506,1
DA:507,1
DA:510,1
DA:512,1
DA:513,1
DA:514,1
DA:516,1
DA:517,1
DA:518,3
DA:519,1
DA:520,1
DA:521,1
DA:522,1
DA:526,1
DA:527,1
DA:529,6
DA:531,1
DA:532,1
DA:533,1
DA:538,5
DA:540,1
DA:542,1
DA:543,1
DA:545,1
DA:546,1
DA:550,0
DA:551,0
DA:553,0
DA:554,0
DA:555,0
DA:556,0
DA:558,0
DA:559,4
DA:561,9
DA:563,41
DA:565,41
DA:566,41
DA:567,174
DA:568,43
DA:569,42
DA:570,50
DA:571,41
DA:572,41
LF:315
LH:284
end_of_record
TN:
SF:/home/duong/MediaPlayerApp/src/controllers/PlaylistController.cpp
FN:114,135,_ZN12media_player11controllers18PlaylistController23removeMediaFromPlaylistERKNSt7__cxx1112basic_stringIcSt11char_traitsIcESaIcEEEm
FN:137,158,_ZN12media_player11controllers18PlaylistController18moveItemInPlaylistERKNSt7__cxx1112basic_stringIcSt11char_traitsIcESaIcEEEmm
FN:14,16,_ZN12media_player11controllers18PlaylistControllerD2Ev
FN:160,163,_ZNK12media_player11controllers18PlaylistController16getPlaylistCountEv
FN:18,38,_ZN12media_player11controllers18PlaylistController14createPlaylistERKNSt7__cxx1112basic_stringIcSt11char_traitsIcESaIcEEE
FN:40,47,_ZN12media_player11controllers18PlaylistController14deletePlaylistERKNSt7__cxx1112basic_stringIcSt11char_traitsIcESaIcEEE
FN:49,66,_ZN12media_player11controllers18PlaylistController14renamePlaylistERKNSt7__cxx1112basic_stringIcSt11char_traitsIcESaIcEEES9_
FN:68,71,_ZNK12media_player11controllers18PlaylistController15getAllPlaylistsEv
FN:73,76,_ZNK12media_player11controllers18PlaylistController15getPlaylistByIdERKNSt7__cxx1112basic_stringIcSt11char_traitsIcESaIcEEE
FN:78,81,_ZNK12media_player11controllers18PlaylistController17getPlaylistByNameERKNSt7__cxx1112basic_stringIcSt11char_traitsIcESaIcEEE
FN:83,93,_ZNK12media_player11controllers18PlaylistController16getPlaylistItemsERKNSt7__cxx1112basic_stringIcSt11char_traitsIcESaIcEEE
FN:9,12,_ZN12media_player11controllers18PlaylistControllerC2ESt10shared_ptrINS_12repositories18PlaylistRepositoryEE
FN:95,112,_ZN12media_player11controllers18PlaylistController18addMediaToPlaylistERKNSt7__cxx1112basic_stringIcSt11char_traitsIcESaIcEEERKNS_6models14MediaFileModelE
FNDA:3,_ZN12media_player11controllers18PlaylistController23removeMediaFromPlaylistERKNSt7__cxx1112basic_stringIcSt11char_traitsIcESaIcEEEm
FNDA:3,_ZN12media_player11controllers18PlaylistController18moveItemInPlaylistERKNSt7__cxx1112basic_stringIcSt11char_traitsIcESaIcEEEmm
FNDA:3,_ZN12media_player11controllers18PlaylistControllerD2Ev
FNDA:1,_ZNK12media_player11controllers18PlaylistController16getPlaylistCountEv
FNDA:5,_ZN12media_player11controllers18PlaylistController14createPlaylistERKNSt7__cxx1112basic_stringIcSt11char_traitsIcESaIcEEE
FNDA:2,_ZN12media_player11controllers18PlaylistController14deletePlaylistERKNSt7__cxx1112basic_stringIcSt11char_traitsIcESaIcEEE
FNDA:2,_ZN12media_player11controllers18PlaylistController14renamePlaylistERKNSt7__cxx1112basic_stringIcSt11char_traitsIcESaIcEEES9_
FNDA:1,_ZNK12media_player11controllers18PlaylistController15getAllPlaylistsEv
FNDA:1,_ZNK12media_player11controllers18PlaylistController15getPlaylistByIdERKNSt7__cxx1112basic_stringIcSt11char_traitsIcESaIcEEE
FNDA:3,_ZNK12media_player11controllers18PlaylistController17getPlaylistByNameERKNSt7__cxx1112basic_stringIcSt11char_traitsIcESaIcEEE
FNDA:2,_ZNK12media_player11controllers18PlaylistController16getPlaylistItemsERKNSt7__cxx1112basic_stringIcSt11char_traitsIcESaIcEEE
FNDA:3,_ZN12media_player11controllers18PlaylistControllerC2ESt10shared_ptrINS_12repositories18PlaylistRepositoryEE
FNDA:3,_ZN12media_player11controllers18PlaylistController18addMediaToPlaylistERKNSt7__cxx1112basic_stringIcSt11char_traitsIcESaIcEEERKNS_6models14MediaFileModelE
FNF:13
FNH:13
BRDA:20,0,0,1
BRDA:20,0,1,4
BRDA:26,0,0,4
BRDA:26,e0,1,0
BRDA:26,0,2,2
BRDA:26,0,3,2
BRDA:31,0,0,2
BRDA:31,e0,1,0
BRDA:33,0,0,2
BRDA:33,e0,1,0
BRDA:33,0,2,2
BRDA:33,0,3,0
BRDA:42,0,0,1
BRDA:42,0,1,1
BRDA:51,0,0,2
BRDA:51,e0,1,0
BRDA:53,0,0,1
BRDA:53,0,1,1
BRDA:58,0,0,1
BRDA:58,e0,1,0
BRDA:59,0,0,1
BRDA:59,e0,1,0
BRDA:61,0,0,1
BRDA:61,e0,1,0
BRDA:61,0,2,1
BRDA:61,0,3,0
BRDA:85,0,0,2
BRDA:85,e0,1,0
BRDA:87,0,0,1
BRDA:87,0,1,1
BRDA:92,0,0,1
BRDA:92,e0,1,0
BRDA:97,0,0,3
BRDA:97,e0,1,0
BRDA:99,0,0,1
BRDA:99,0,1,2
BRDA:104,0,0,2
BRDA:104,e0,1,0
BRDA:105,0,0,2
BRDA:105,e0,1,0
BRDA:107,0,0,2
BRDA:107,e0,1,0
BRDA:107,0,2,2
BRDA:107,0,3,0
BRDA:116,0,0,3
BRDA:116,e0,1,0
BRDA:118,0,0,1
BRDA:118,0,1,2
BRDA:123,0,0,2
BRDA:123,e0,1,0
BRDA:125,0,0,2
BRDA:125,e0,1,0
BRDA:125,0,2,1
BRDA:125,0,3,1
BRDA:130,0,0,1
BRDA:130,e0,1,0
BRDA:130,0,2,1
BRDA:130,0,3,0
BRDA:139,0,0,3
BRDA:139,e0,1,0
BRDA:141,0,0,1
BRDA:141,0,1,2
BRDA:146,0,0,2
BRDA:146,e0,1,0
BRDA:148,0,0,2
BRDA:148,e0,1,0
BRDA:148,0,2,1
BRDA:148,0,3,1
BRDA:153,0,0,1
BRDA:153,e0,1,0
BRDA:153,0,2,1
BRDA:153,0,3,0
BRF:72
BRH:46
DA:9,3
DA:10,3
DA:12,3
DA:14,3
DA:16,3
DA:18,5
DA:20,5
DA:22,1
DA:26,4
DA:28,2
DA:31,2
DA:33,2
DA:35,2
DA:37,0
DA:38,2
DA:40,2
DA:42,2
DA:44,1
DA:46,1
DA:49,2
DA:51,2
DA:53,2
DA:55,1
DA:58,1
DA:59,1
DA:61,1
DA:63,1
DA:65,0
DA:66,2
DA:68,1
DA:70,1
DA:73,1
DA:75,1
DA:78,3
DA:80,3
DA:83,2
DA:85,2
DA:87,2
DA:89,1
DA:92,1
DA:93,2
DA:95,3
DA:97,3
DA:99,3
DA:101,1
DA:104,2
DA:105,2
DA:107,2
DA:109,2
DA:111,0
DA:112,3
DA:114,3
DA:116,3
DA:118,3
DA:120,1
DA:123,2
DA:125,2
DA:127,1
DA:130,1
DA:132,1
DA:134,0
DA:135,3
DA:137,3
DA:139,3
DA:141,3
DA:143,1
DA:146,2
DA:148,2
DA:150,1
DA:153,1
DA:155,1
DA:157,0
DA:158,3
DA:160,1
DA:162,1
LF:75
LH:70
end_of_record
TN:
SF:/home/duong/MediaPlayerApp/src/controllers/QueueController.cpp
FN:101,109,_ZN12media_player11controllers15QueueController10moveToNextEv
FN:111,119,_ZN12media_player11controllers15QueueController14moveToPreviousEv
FN:121,129,_ZN12media_player11controllers15QueueController8moveItemEmm
FN:131,135,_ZN12media_player11controllers15QueueController13toggleShuffleEv
FN:137,146,_ZN12media_player11controllers15QueueController15cycleRepeatModeEv
FN:14,16,_ZN12media_player11controllers15QueueControllerD2Ev
FN:148,151,_ZN12media_player11controllers15QueueController12toggleRepeatEv
FN:153,156,_ZN12media_player11controllers15QueueController10setShuffleEb
FN:158,161,_ZN12media_player11controllers15QueueController9setRepeatENS_6models10RepeatModeE
FN:163,166,_ZNK12media_player11controllers15QueueController16isShuffleEnabledEv
FN:168,171,_ZNK12media_player11controllers15QueueController13getRepeatModeEv
FN:173,176,_ZNK12media_player11controllers15QueueController16isLoopOneEnabledEv
FN:178,181,_ZNK12media_player11controllers15QueueController16isLoopAllEnabledEv
FN:18,27,_ZN12media_player11controllers15QueueController10addToQueueERKNS_6models14MediaFileModelE
FN:183,186,_ZNK12media_player11controllers15QueueController15isRepeatEnabledEv
FN:188,191,_ZNK12media_player11controllers15QueueController12getQueueSizeEv
FN:193,196,_ZNK12media_player11controllers15QueueController7isEmptyEv
FN:198,201,_ZNK12media_player11controllers15QueueController7hasNextEv
FN:203,206,_ZNK12media_player11controllers15QueueController11hasPreviousEv
FN:208,211,_ZNK12media_player11controllers15QueueController11getAllItemsEv
FN:213,216,_ZNK12media_player11controllers15QueueController21getPlaybackOrderItemsEv
FN:218,221,_ZNK12media_player11controllers15QueueController14getCurrentItemEv
FN:223,226,_ZNK12media_player11controllers15QueueController15getCurrentIndexEv
FN:29,37,_ZN12media_player11controllers15QueueController14addToQueueNextERKNS_6models14MediaFileModelE
FN:39,47,_ZN12media_player11controllers15QueueController18addPlaylistToQueueERKNS_6models13PlaylistModelE
FN:49,64,_ZN12media_player11controllers15QueueController18addMultipleToQueueERKSt6vectorINS_6models14MediaFileModelESaIS4_EE
FN:66,74,_ZN12media_player11controllers15QueueController15removeFromQueueEm
FN:76,84,_ZN12media_player11controllers15QueueController12removeByPathERKNSt7__cxx1112basic_stringIcSt11char_traitsIcESaIcEEE
FN:86,89,_ZN12media_player11controllers15QueueController10clearQueueEv
FN:9,12,_ZN12media_player11controllers15QueueControllerC2ESt10shared_ptrINS_6models10QueueModelEE
FN:91,99,_ZN12media_player11controllers15QueueController11jumpToIndexEm
FNDA:2,_ZN12media_player11controllers15QueueController10moveToNextEv
FNDA:2,_ZN12media_player11controllers15QueueController14moveToPreviousEv
FNDA:3,_ZN12media_player11controllers15QueueController8moveItemEmm
FNDA:2,_ZN12media_player11controllers15QueueController13toggleShuffleEv
FNDA:5,_ZN12media_player11controllers15QueueController15cycleRepeatModeEv
FNDA:38,_ZN12media_player11controllers15QueueControllerD2Ev
FNDA:0,_ZN12media_player11controllers15QueueController12toggleRepeatEv
FNDA:2,_ZN12media_player11controllers15QueueController10setShuffleEb
FNDA:1,_ZN12media_player11controllers15QueueController9setRepeatENS_6models10RepeatModeE
FNDA:5,_ZNK12media_player11controllers15QueueController16isShuffleEnabledEv
FNDA:1,_ZNK12media_player11controllers15QueueController13getRepeatModeEv
FNDA:0,_ZNK12media_player11controllers15QueueController16isLoopOneEnabledEv
FNDA:0,_ZNK12media_player11controllers15QueueController16isLoopAllEnabledEv
FNDA:21,_ZN12media_player11controllers15QueueController10addToQueueERKNS_6models14MediaFileModelE
FNDA:7,_ZNK12media_player11controllers15QueueController15isRepeatEnabledEv
FNDA:7,_ZNK12media_player11controllers15QueueController12getQueueSizeEv
FNDA:2,_ZNK12media_player11controllers15QueueController7isEmptyEv
FNDA:0,_ZNK12media_player11controllers15QueueController7hasNextEv
FNDA:0,_ZNK12media_player11controllers15QueueController11hasPreviousEv
FNDA:3,_ZNK12media_player11controllers15QueueController11getAllItemsEv
FNDA:2,_ZNK12media_player11controllers15QueueController21getPlaybackOrderItemsEv
FNDA:1,_ZNK12media_player11controllers15QueueController14getCurrentItemEv
FNDA:2,_ZNK12media_player11controllers15QueueController15getCurrentIndexEv
FNDA:3,_ZN12media_player11controllers15QueueController14addToQueueNextERKNS_6models14MediaFileModelE
FNDA:2,_ZN12media_player11controllers15QueueController18addPlaylistToQueueERKNS_6models13PlaylistModelE
FNDA:4,_ZN12media_player11controllers15QueueController18addMultipleToQueueERKSt6vectorINS_6models14MediaFileModelESaIS4_EE
FNDA:3,_ZN12media_player11controllers15QueueController15removeFromQueueEm
FNDA:2,_ZN12media_player11controllers15QueueController12removeByPathERKNSt7__cxx1112basic_stringIcSt11char_traitsIcESaIcEEE
FNDA:1,_ZN12media_player11controllers15QueueController10clearQueueEv
FNDA:38,_ZN12media_player11controllers15QueueControllerC2ESt10shared_ptrINS_6models10QueueModelEE
FNDA:3,_ZN12media_player11controllers15QueueController11jumpToIndexEm
FNF:31
FNH:26
BRDA:21,0,0,21
BRDA:21,e0,1,0
BRDA:21,0,2,9
BRDA:21,0,3,20
BRDA:22,0,0,9
BRDA:22,e0,1,0
BRDA:22,0,2,9
BRDA:22,e0,3,0
BRDA:22,0,4,1
BRDA:22,0,5,8
BRDA:25,0,0,20
BRDA:25,0,1,1
BRDA:31,0,0,3
BRDA:31,e0,1,0
BRDA:31,0,2,4
BRDA:31,0,3,2
BRDA:32,0,0,4
BRDA:32,e0,1,0
BRDA:32,0,2,4
BRDA:32,e0,3,0
BRDA:32,0,4,1
BRDA:32,0,5,3
BRDA:35,0,0,2
BRDA:35,0,1,1
BRDA:41,0,0,2
BRDA:41,e0,1,0
BRDA:43,0,0,4
BRDA:43,0,1,2
BRDA:45,0,0,4
BRDA:45,e0,1,0
BRDA:51,0,0,7
BRDA:51,0,1,4
BRDA:54,0,0,7
BRDA:54,e0,1,0
BRDA:54,0,2,10
BRDA:54,0,3,6
BRDA:55,0,0,10
BRDA:55,e0,1,0
BRDA:55,0,2,10
BRDA:55,e0,3,0
BRDA:55,0,4,1
BRDA:55,0,5,9
BRDA:60,0,0,6
BRDA:60,0,1,1
BRDA:61,0,0,6
BRDA:61,e0,1,0
BRDA:68,0,0,1
BRDA:68,0,1,2
BRDA:78,0,0,1
BRDA:78,0,1,1
BRDA:93,0,0,2
BRDA:93,0,1,1
BRDA:103,0,0,1
BRDA:103,0,1,1
BRDA:113,0,0,1
BRDA:113,0,1,1
BRDA:123,0,0,2
BRDA:123,0,1,1
BRDA:140,0,0,2
BRDA:140,0,1,3
BRDA:141,0,0,1
BRDA:141,0,1,1
BRDA:144,0,0,4
BRDA:144,0,1,1
BRDA:144,0,2,3
BRDA:144,0,3,1
BRF:66
BRH:54
DA:9,38
DA:10,38
DA:12,38
DA:14,38
DA:16,38
DA:18,21
DA:21,29
DA:22,9
DA:23,1
DA:25,21
DA:26,20
DA:29,3
DA:31,6
DA:32,4
DA:33,1
DA:35,3
DA:36,2
DA:39,2
DA:41,2
DA:43,6
DA:45,4
DA:47,2
DA:49,4
DA:51,11
DA:53,7
DA:54,16
DA:55,10
DA:56,1
DA:57,1
DA:59,7
DA:60,7
DA:61,6
DA:64,4
DA:66,3
DA:68,3
DA:70,1
DA:73,2
DA:76,2
DA:78,2
DA:80,1
DA:83,1
DA:86,1
DA:88,1
DA:89,1
DA:91,3
DA:93,3
DA:95,2
DA:98,1
DA:101,2
DA:103,2
DA:105,1
DA:108,1
DA:111,2
DA:113,2
DA:115,1
DA:118,1
DA:121,3
DA:123,3
DA:125,2
DA:128,1
DA:131,2
DA:133,2
DA:134,2
DA:135,2
DA:137,5
DA:139,5
DA:140,7
DA:141,2
DA:143,5
DA:144,5
DA:146,5
DA:148,0
DA:150,0
DA:151,0
DA:153,2
DA:155,2
DA:156,2
DA:158,1
DA:160,1
DA:161,1
DA:163,5
DA:165,5
DA:168,1
DA:170,1
DA:173,0
DA:175,0
DA:178,0
DA:180,0
DA:183,7
DA:185,7
DA:188,7
DA:190,7
DA:193,2
DA:195,2
DA:198,0
DA:200,0
DA:203,0
DA:205,0
DA:208,3
DA:210,3
DA:213,2
DA:215,2
DA:218,1
DA:220,1
DA:223,2
DA:225,2
LF:106
LH:95
end_of_record
TN:
SF:/home/duong/MediaPlayerApp/src/controllers/SourceController.cpp
FN:107,168,_ZN12media_player11controllers16SourceController15isStorageDeviceERKNSt7__cxx1112basic_stringIcSt11char_traitsIcESaIcEEE
FN:13,42,_ZN12media_player11controllers16SourceControllerC2ESt10shared_ptrINS_8services12IFileScannerEES2_INS_12repositories17LibraryRepositoryEES2_INS_6models12LibraryModelEE
FN:170,176,_ZN12media_player11controllers16SourceController15isS32K144DeviceERKNSt7__cxx1112basic_stringIcSt11char_traitsIcESaIcEEE
FN:178,183,_ZN12media_player11controllers16SourceController16handleUSBRemovedEv
FN:185,188,_ZNK12media_player11controllers16SourceController10isScanningEv
FN:190,193,_ZNK12media_player11controllers16SourceController20getCurrentSourcePathB5cxx11Ev
FN:195,198,_ZN12media_player11controllers16SourceController19setProgressCallbackESt8functionIFviRKNSt7__cxx1112basic_stringIcSt11char_traitsIcESaIcEEEEE
FN:200,203,_ZN12media_player11controllers16SourceController19setCompleteCallbackESt8functionIFviEE
FN:205,208,_ZN12media_player11controllers16SourceController22setUsbInsertedCallbackESt8functionIFvRKNSt7__cxx1112basic_stringIcSt11char_traitsIcESaIcEEEEE
FN:210,216,_ZN12media_player11controllers16SourceController14onScanProgressEiRKNSt7__cxx1112basic_stringIcSt11char_traitsIcESaIcEEE
FN:218,233,_ZN12media_player11controllers16SourceController14onScanCompleteESt6vectorINS_6models14MediaFileModelESaIS4_EE
FN:238,241,_ZN12media_player11controllers16SourceController12setMediaRootERKNSt7__cxx1112basic_stringIcSt11char_traitsIcESaIcEEE
FN:24,27,_ZZN12media_player11controllers16SourceControllerC4ESt10shared_ptrINS_8services12IFileScannerEES2_INS_12repositories17LibraryRepositoryEES2_INS_6models12LibraryModelEEENKUliRKNSt7__cxx1112basic_stringIcSt11char_traitsIcESaIcEEEE_clEiSJ_
FN:243,353,_ZN12media_player11controllers16SourceController14monitorUsbLoopEv
FN:31,34,_ZZN12media_player11controllers16SourceControllerC4ESt10shared_ptrINS_8services12IFileScannerEES2_INS_12repositories17LibraryRepositoryEES2_INS_6models12LibraryModelEEENKUlSt6vectorINS9_14MediaFileModelESaISD_EEE_clESF_
FN:44,50,_ZN12media_player11controllers16SourceController15startMonitoringEv
FN:52,60,_ZN12media_player11controllers16SourceControllerD2Ev
FN:62,65,_ZN12media_player11controllers16SourceController15selectDirectoryERKNSt7__cxx1112basic_stringIcSt11char_traitsIcESaIcEEE
FN:67,75,_ZN12media_player11controllers16SourceController20scanCurrentDirectoryEv
FN:77,80,_ZN12media_player11controllers16SourceController8stopScanEv
FN:82,105,_ZN12media_player11controllers16SourceController17handleUSBInsertedERKNSt7__cxx1112basic_stringIcSt11char_traitsIcESaIcEEE
FNDA:11,_ZN12media_player11controllers16SourceController15isStorageDeviceERKNSt7__cxx1112basic_stringIcSt11char_traitsIcESaIcEEE
FNDA:19,_ZN12media_player11controllers16SourceControllerC2ESt10shared_ptrINS_8services12IFileScannerEES2_INS_12repositories17LibraryRepositoryEES2_INS_6models12LibraryModelEE
FNDA:0,_ZN12media_player11controllers16SourceController15isS32K144DeviceERKNSt7__cxx1112basic_stringIcSt11char_traitsIcESaIcEEE
FNDA:1,_ZN12media_player11controllers16SourceController16handleUSBRemovedEv
FNDA:1,_ZNK12media_player11controllers16SourceController10isScanningEv
FNDA:4,_ZNK12media_player11controllers16SourceController20getCurrentSourcePathB5cxx11Ev
FNDA:2,_ZN12media_player11controllers16SourceController19setProgressCallbackESt8functionIFviRKNSt7__cxx1112basic_stringIcSt11char_traitsIcESaIcEEEEE
FNDA:1,_ZN12media_player11controllers16SourceController19setCompleteCallbackESt8functionIFviEE
FNDA:7,_ZN12media_player11controllers16SourceController22setUsbInsertedCallbackESt8functionIFvRKNSt7__cxx1112basic_stringIcSt11char_traitsIcESaIcEEEEE
FNDA:2,_ZN12media_player11controllers16SourceController14onScanProgressEiRKNSt7__cxx1112basic_stringIcSt11char_traitsIcESaIcEEE
FNDA:2,_ZN12media_player11controllers16SourceController14onScanCompleteESt6vectorINS_6models14MediaFileModelESaIS4_EE
FNDA:8,_ZN12media_player11controllers16SourceController12setMediaRootERKNSt7__cxx1112basic_stringIcSt11char_traitsIcESaIcEEE
FNDA:2,_ZZN12media_player11controllers16SourceControllerC4ESt10shared_ptrINS_8services12IFileScannerEES2_INS_12repositories17LibraryRepositoryEES2_INS_6models12LibraryModelEEENKUliRKNSt7__cxx1112basic_stringIcSt11char_traitsIcESaIcEEEE_clEiSJ_
FNDA:2,_ZN12media_player11controllers16SourceController14monitorUsbLoopEv
FNDA:2,_ZZN12media_player11controllers16SourceControllerC4ESt10shared_ptrINS_8services12IFileScannerEES2_INS_12repositories17LibraryRepositoryEES2_INS_6models12LibraryModelEEENKUlSt6vectorINS9_14MediaFileModelESaISD_EEE_clESF_
FNDA:2,_ZN12media_player11controllers16SourceController15startMonitoringEv
FNDA:19,_ZN12media_player11controllers16SourceControllerD2Ev
FNDA:2,_ZN12media_player11controllers16SourceController15selectDirectoryERKNSt7__cxx1112basic_stringIcSt11char_traitsIcESaIcEEE
FNDA:4,_ZN12media_player11controllers16SourceController20scanCurrentDirectoryEv
FNDA:23,_ZN12media_player11controllers16SourceController8stopScanEv
FNDA:11,_ZN12media_player11controllers16SourceController17handleUSBInsertedERKNSt7__cxx1112basic_stringIcSt11char_traitsIcESaIcEEE
FNF:21
FNH:20
BRDA:21,0,0,19
BRDA:21,e0,1,0
BRDA:23,0,0,19
BRDA:23,e0,1,0
BRDA:30,0,0,19
BRDA:30,e0,1,0
BRDA:33,0,0,2
BRDA:33,e0,1,0
BRDA:33,0,2,2
BRDA:33,e0,3,0
BRDA:46,0,0,0
BRDA:46,0,1,2
BRDA:49,0,0,2
BRDA:49,e0,1,0
BRDA:55,0,0,2
BRDA:55,0,1,17
BRDA:69,0,0,0
BRDA:69,0,1,4
BRDA:86,0,0,8
BRDA:86,0,1,3
BRDA:89,0,0,5
BRDA:89,0,1,3
BRDA:110,0,0,11
BRDA:110,e0,1,0
BRDA:114,0,0,3
BRDA:114,0,1,8
BRDA:123,0,0,8
BRDA:123,e0,1,0
BRDA:123,0,2,8
BRDA:123,e0,3,0
BRDA:123,0,4,7
BRDA:123,0,5,1
BRDA:128,0,0,7
BRDA:128,e0,1,0
BRDA:128,0,2,7
BRDA:128,e0,3,0
BRDA:128,0,4,1
BRDA:128,e0,5,0
BRDA:128,0,6,5
BRDA:128,0,7,3
BRDA:130,0,0,5
BRDA:130,e0,1,0
BRDA:130,0,2,4
BRDA:130,0,3,1
BRDA:132,0,0,4
BRDA:132,e0,1,0
BRDA:132,0,2,4
BRDA:132,e0,3,0
BRDA:136,0,0,4
BRDA:136,e0,1,0
BRDA:136,0,2,1
BRDA:136,e0,3,0
BRDA:136,0,4,0
BRDA:136,0,5,1
BRDA:136,0,6,0
BRDA:136,e0,7,0
BRDA:136,0,8,0
BRDA:136,0,9,0
BRDA:137,0,0,1
BRDA:137,0,1,3
BRDA:137,0,2,0
BRDA:137,e0,3,0
BRDA:137,0,4,0
BRDA:137,0,5,0
BRDA:137,0,6,0
BRDA:137,e0,7,0
BRDA:137,0,8,0
BRDA:137,0,9,0
BRDA:137,0,10,0
BRDA:137,e0,11,0
BRDA:137,0,12,0
BRDA:137,0,13,0
BRDA:137,0,14,4
BRDA:137,0,15,0
BRDA:141,0,0,0
BRDA:141,0,1,4
BRDA:142,0,0,3
BRDA:142,0,1,4
BRDA:142,0,2,3
BRDA:142,0,3,4
BRDA:142,0,4,3
BRDA:142,0,5,4
BRDA:145,0,0,3
BRDA:145,e0,1,0
BRDA:145,0,2,3
BRDA:145,e0,3,0
BRDA:145,0,4,0
BRDA:145,e0,5,0
BRDA:145,0,6,1
BRDA:145,0,7,2
BRDA:147,0,0,1
BRDA:147,e0,1,0
BRDA:147,0,2,1
BRDA:147,0,3,0
BRDA:149,0,0,1
BRDA:149,e0,1,0
BRDA:149,0,2,1
BRDA:149,e0,3,0
BRDA:153,0,0,1
BRDA:153,e0,1,0
BRDA:153,0,2,0
BRDA:153,e0,3,0
BRDA:153,0,4,0
BRDA:153,0,5,0
BRDA:153,0,6,0
BRDA:153,e0,7,0
BRDA:153,0,8,0
BRDA:153,0,9,0
BRDA:153,0,10,0
BRDA:153,e0,11,0
BRDA:153,0,12,0
BRDA:153,0,13,0
BRDA:154,0,0,0
BRDA:154,0,1,1
BRDA:154,0,2,0
BRDA:154,e0,3,0
BRDA:154,0,4,0
BRDA:154,0,5,0
BRDA:154,0,6,0
BRDA:154,e0,7,0
BRDA:154,0,8,0
BRDA:154,0,9,0
BRDA:154,0,10,0
BRDA:154,e0,11,0
BRDA:154,0,12,0
BRDA:154,0,13,0
BRDA:154,0,14,0
BRDA:154,e0,15,0
BRDA:154,0,16,0
BRDA:154,0,17,0
BRDA:154,0,18,1
BRDA:154,0,19,0
BRDA:158,0,0,0
BRDA:158,0,1,1
BRDA:159,0,0,2
BRDA:159,0,1,1
BRDA:159,0,2,2
BRDA:159,0,3,1
BRDA:159,0,4,2
BRDA:159,0,5,1
BRDA:161,0,0,0
BRDA:161,0,1,0
BRDA:163,0,0,0
BRDA:163,e0,1,0
BRDA:172,0,0,-
BRDA:172,e0,1,-
BRDA:212,0,0,2
BRDA:212,0,1,0
BRDA:229,0,0,1
BRDA:229,0,1,1
BRDA:249,0,0,2
BRDA:249,e0,1,0
BRDA:250,0,0,2
BRDA:250,e0,1,0
BRDA:250,0,2,2
BRDA:250,e0,3,0
BRDA:250,0,4,0
BRDA:250,0,5,2
BRDA:253,0,0,-
BRDA:253,e0,1,-
BRDA:253,0,2,-
BRDA:253,e0,3,-
BRDA:253,0,4,-
BRDA:253,0,5,-
BRDA:255,0,0,-
BRDA:255,e0,1,-
BRDA:276,0,0,2
BRDA:276,e0,1,0
BRDA:278,0,0,4
BRDA:278,0,1,2
BRDA:281,0,0,4
BRDA:281,e0,1,0
BRDA:281,0,2,4
BRDA:281,e0,3,0
BRDA:281,0,4,0
BRDA:281,0,5,4
BRDA:283,0,0,-
BRDA:283,e0,1,-
BRDA:288,0,0,4
BRDA:288,e0,1,0
BRDA:288,0,2,4
BRDA:288,e0,3,0
BRDA:288,0,4,2
BRDA:288,e0,5,0
BRDA:288,0,6,2
BRDA:288,0,7,4
BRDA:290,0,0,2
BRDA:290,e0,1,0
BRDA:290,0,2,2
BRDA:290,0,3,0
BRDA:292,0,0,2
BRDA:292,e0,1,0
BRDA:294,0,0,0
BRDA:294,0,1,2
BRDA:297,0,0,2
BRDA:297,e0,1,0
BRDA:298,0,0,2
BRDA:298,0,1,0
BRDA:302,0,0,2
BRDA:302,0,1,4
BRDA:305,0,0,0
BRDA:305,0,1,2
BRDA:307,0,0,-
BRDA:307,0,1,-
BRDA:314,0,0,2
BRDA:314,0,1,0
BRDA:317,0,0,2
BRDA:317,e0,1,0
BRDA:322,0,0,2
BRDA:322,e0,1,0
BRDA:327,0,0,2
BRDA:327,0,1,4
BRDA:330,0,0,2
BRDA:330,0,1,0
BRDA:332,0,0,2
BRDA:332,0,1,0
BRDA:339,0,0,0
BRDA:339,0,1,2
BRDA:341,0,0,-
BRDA:341,e0,1,-
BRDA:351,0,0,4
BRDA:351,e0,1,0
BRF:222
BRH:98
DA:13,19
DA:17,19
DA:18,19
DA:19,19
DA:20,19
DA:21,57
DA:23,38
DA:24,19
DA:26,2
DA:27,2
DA:30,38
DA:31,19
DA:33,2
DA:34,2
DA:38,19
DA:42,19
DA:44,2
DA:46,2
DA:48,2
DA:49,2
DA:52,19
DA:54,19
DA:55,19
DA:57,2
DA:59,19
DA:60,19
DA:62,2
DA:64,2
DA:65,2
DA:67,4
DA:69,4
DA:71,0
DA:74,4
DA:77,23
DA:79,23
DA:80,23
DA:82,11
DA:86,11
DA:89,8
DA:91,5
DA:96,3
DA:97,3
DA:105,11
DA:107,11
DA:110,11
DA:111,11
DA:114,11
DA:116,3
DA:123,8
DA:128,8
DA:130,5
DA:132,4
DA:133,4
DA:136,5
DA:137,5
DA:139,4
DA:141,4
DA:142,15
DA:145,3
DA:147,1
DA:149,1
DA:150,1
DA:153,1
DA:154,1
DA:156,1
DA:158,1
DA:159,5
DA:161,0
DA:163,0
DA:167,3
DA:168,11
DA:170,0
DA:172,0
DA:173,0
DA:175,0
DA:176,0
DA:178,1
DA:181,1
DA:182,1
DA:183,1
DA:185,1
DA:187,1
DA:190,4
DA:192,4
DA:195,2
DA:197,2
DA:198,2
DA:200,1
DA:202,1
DA:203,1
DA:205,7
DA:207,7
DA:208,7
DA:210,2
DA:212,2
DA:214,2
DA:216,2
DA:218,2
DA:222,2
DA:223,2
DA:226,2
DA:227,2
DA:229,2
DA:231,1
DA:233,2
DA:238,8
DA:240,8
DA:241,8
DA:243,2
DA:249,2
DA:250,2
DA:253,0
DA:255,0
DA:259,2
DA:276,2
DA:278,6
DA:281,4
DA:283,0
DA:284,0
DA:287,4
DA:288,8
DA:290,2
DA:292,2
DA:294,2
DA:295,0
DA:297,2
DA:298,2
DA:299,4
DA:302,6
DA:304,2
DA:305,2
DA:307,0
DA:309,0
DA:310,0
DA:314,2
DA:317,2
DA:322,2
DA:327,6
DA:329,2
DA:330,2
DA:332,2
DA:334,2
DA:335,2
DA:339,2
DA:341,0
DA:346,2
DA:351,4
DA:352,4
DA:353,2
LF:149
LH:132
end_of_record
TN:
SF:/usr/include/c++/13/atomic
FN:76,76,_ZNSt6atomicIbEC2Eb
FN:79,80,_ZNSt6atomicIbEaSEb
FN:86,87,_ZNKSt6atomicIbEcvbEv
FNDA:328,_ZNSt6atomicIbEC2Eb
FNDA:0,_ZNSt6atomicIbEaSEb
FNDA:0,_ZNKSt6atomicIbEcvbEv
FNF:3
FNH:1
DA:76,328
DA:79,0
DA:80,0
DA:86,0
DA:87,0
LF:5
LH:1
end_of_record
TN:
SF:/usr/include/c++/13/bit
FN:195,237,_ZSt13__countl_zeroImEiT_
FN:365,369,_ZSt11__bit_widthImEiT_
FNDA:10,_ZSt13__countl_zeroImEiT_
FNDA:10,_ZSt11__bit_widthImEiT_
FNF:2
FNH:2
BRDA:200,0,0,0
BRDA:200,0,1,10
BRF:2
BRH:1
DA:195,10
DA:198,10
DA:200,10
DA:201,0
DA:203,10
DA:204,10
DA:205,10
DA:214,10
DA:215,10
DA:365,10
DA:367,10
DA:368,10
LF:12
LH:11
end_of_record
TN:
SF:/usr/include/c++/13/bits/alloc_traits.h
FNF:0
FNH:0
BRDA:482,0,0,7
BRDA:482,e0,1,0
BRDA:482,0,2,2
BRDA:482,e0,3,0
BRDA:661,0,0,2
BRDA:661,e0,1,0
BRDA:948,0,0,0
BRDA:948,e0,1,0
BRDA:948,0,2,0
BRDA:948,e0,3,0
BRF:10
BRH:3
DA:482,105
DA:517,0
DA:538,0
DA:542,0
DA:562,0
DA:574,0
DA:588,0
DA:661,2
DA:675,2
DA:722,0
DA:755,0
DA:759,0
DA:948,154
DA:949,0
LF:14
LH:4
end_of_record
TN:
SF:/usr/include/c++/13/bits/allocated_ptr.h
FN:53,55,_ZNSt15__allocated_ptrISaISt23_Sp_counted_ptr_inplaceINSt8__detail4_NFAINSt7__cxx1112regex_traitsIcEEEESaIvELN9__gnu_cxx12_Lock_policyE2EEEEC2ERSB_PSA_
FN:71,75,_ZNSt15__allocated_ptrISaISt23_Sp_counted_ptr_inplaceINSt8__detail4_NFAINSt7__cxx1112regex_traitsIcEEEESaIvELN9__gnu_cxx12_Lock_policyE2EEEED2Ev
FN:79,83,_ZNSt15__allocated_ptrISaISt23_Sp_counted_ptr_inplaceINSt8__detail4_NFAINSt7__cxx1112regex_traitsIcEEEESaIvELN9__gnu_cxx12_Lock_policyE2EEEEaSEDn
FN:86,86,_ZNSt15__allocated_ptrISaISt23_Sp_counted_ptr_inplaceINSt8__detail4_NFAINSt7__cxx1112regex_traitsIcEEEESaIvELN9__gnu_cxx12_Lock_policyE2EEEE3getEv
FN:96,99,_ZSt18__allocate_guardedISaISt23_Sp_counted_ptr_inplaceINSt8__detail4_NFAINSt7__cxx1112regex_traitsIcEEEESaIvELN9__gnu_cxx12_Lock_policyE2EEEESt15__allocated_ptrIT_ERSD_
FNDA:4,_ZNSt15__allocated_ptrISaISt23_Sp_counted_ptr_inplaceINSt8__detail4_NFAINSt7__cxx1112regex_traitsIcEEEESaIvELN9__gnu_cxx12_Lock_policyE2EEEEC2ERSB_PSA_
FNDA:4,_ZNSt15__allocated_ptrISaISt23_Sp_counted_ptr_inplaceINSt8__detail4_NFAINSt7__cxx1112regex_traitsIcEEEESaIvELN9__gnu_cxx12_Lock_policyE2EEEED2Ev
FNDA:2,_ZNSt15__allocated_ptrISaISt23_Sp_counted_ptr_inplaceINSt8__detail4_NFAINSt7__cxx1112regex_traitsIcEEEESaIvELN9__gnu_cxx12_Lock_policyE2EEEEaSEDn
FNDA:2,_ZNSt15__allocated_ptrISaISt23_Sp_counted_ptr_inplaceINSt8__detail4_NFAINSt7__cxx1112regex_traitsIcEEEESaIvELN9__gnu_cxx12_Lock_policyE2EEEE3getEv
FNDA:2,_ZSt18__allocate_guardedISaISt23_Sp_counted_ptr_inplaceINSt8__detail4_NFAINSt7__cxx1112regex_traitsIcEEEESaIvELN9__gnu_cxx12_Lock_policyE2EEEESt15__allocated_ptrIT_ERSD_
FNF:5
FNH:5
BRDA:73,0,0,2
BRDA:73,0,1,2
BRF:2
BRH:2
DA:53,4
DA:54,4
DA:55,4
DA:71,4
DA:73,4
DA:74,2
DA:75,4
DA:79,2
DA:81,2
DA:82,2
DA:86,2
DA:96,2
DA:98,2
LF:13
LH:13
end_of_record
TN:
SF:/usr/include/c++/13/bits/allocator.h
FNF:0
FNH:0
DA:163,4
DA:168,0
DA:178,22
DA:184,0
DA:223,0
LF:5
LH:2
end_of_record
TN:
SF:/usr/include/c++/13/bits/atomic_base.h
FN:107,110,_ZStanSt12memory_orderSt23__memory_order_modifier
FN:362,362,_ZNSt13__atomic_baseIbEC2Eb
FN:371,375,_ZNSt13__atomic_baseIbEaSEb
FNDA:0,_ZStanSt12memory_orderSt23__memory_order_modifier
FNDA:328,_ZNSt13__atomic_baseIbEC2Eb
FNDA:0,_ZNSt13__atomic_baseIbEaSEb
FNF:3
FNH:1
BRDA:477,0,0,-
BRDA:477,0,1,-
BRDA:477,0,2,-
BRDA:477,0,3,-
BRDA:477,0,4,-
BRDA:477,0,5,-
BRDA:478,0,0,-
BRDA:478,0,1,-
BRDA:478,0,2,-
BRDA:478,0,3,-
BRDA:478,0,4,-
BRDA:478,0,5,-
BRDA:479,0,0,-
BRDA:479,0,1,-
BRDA:479,0,2,-
BRDA:479,0,3,-
BRDA:479,0,4,-
BRDA:479,0,5,-
BRDA:502,0,0,-
BRDA:502,0,1,-
BRDA:502,0,2,-
BRDA:502,0,3,-
BRDA:502,0,4,-
BRDA:502,0,5,-
BRDA:503,0,0,-
BRDA:503,0,1,-
BRDA:503,0,2,-
BRDA:503,0,3,-
BRDA:503,0,4,-
BRDA:503,0,5,-
BRF:30
BRH:0
DA:107,0
DA:109,0
DA:362,328
DA:371,0
DA:373,0
DA:374,0
DA:476,0
DA:477,0
DA:478,0
DA:479,0
DA:481,0
DA:482,0
DA:501,0
DA:502,0
DA:503,0
DA:505,0
LF:16
LH:1
end_of_record
TN:
SF:/usr/include/c++/13/bits/basic_string.h
FN:3528,3541,_ZSt12__str_concatINSt7__cxx1112basic_stringIcSt11char_traitsIcESaIcEEEET_PKNS6_10value_typeENS6_9size_typeES9_SA_RKNS6_14allocator_typeE
FN:3571,3579,_ZStplIcSt11char_traitsIcESaIcEENSt7__cxx1112basic_stringIT_T0_T1_EEPKS5_RKS8_
FN:3637,3639,_ZStplIcSt11char_traitsIcESaIcEENSt7__cxx1112basic_stringIT_T0_T1_EEOS8_RKS8_
FN:3644,3646,_ZStplIcSt11char_traitsIcESaIcEENSt7__cxx1112basic_stringIT_T0_T1_EERKS8_OS8_
FN:3688,3690,_ZStplIcSt11char_traitsIcESaIcEENSt7__cxx1112basic_stringIT_T0_T1_EEOS8_PKS5_
FN:3710,3716,_ZSteqIcSt11char_traitsIcESaIcEEbRKNSt7__cxx1112basic_stringIT_T0_T1_EESA_
FN:3727,3732,_ZSteqIcSt11char_traitsIcESaIcEEbRKNSt7__cxx1112basic_stringIT_T0_T1_EEPKS5_
FN:3788,3791,_ZStneIcSt11char_traitsIcESaIcEEbRKNSt7__cxx1112basic_stringIT_T0_T1_EESA_
FN:3829,3832,_ZStltIcSt11char_traitsIcESaIcEEbRKNSt7__cxx1112basic_stringIT_T0_T1_EESA_
FN:3911,3914,_ZStleIcSt11char_traitsIcESaIcEEbRKNSt7__cxx1112basic_stringIT_T0_T1_EESA_
FN:3994,3997,_ZSt4swapIcSt11char_traitsIcESaIcEEvRNSt7__cxx1112basic_stringIT_T0_T1_EES9_
FN:4120,4122,_ZNSt7__cxx114stoiERKNS_12basic_stringIcSt11char_traitsIcESaIcEEEPmi
FN:4162,4173,_ZNSt7__cxx119to_stringEi
FN:641,650,_ZNSt7__cxx1112basic_stringIcSt11char_traitsIcESaIcEEC2IS3_EEPKcRKS3_
FN:664,666,_ZNSt7__cxx1112basic_stringIcSt11char_traitsIcESaIcEEC2IS3_EEmcRKS3_
FN:760,770,_ZNSt7__cxx1112basic_stringIcSt11char_traitsIcESaIcEEC2IN9__gnu_cxx17__normal_iteratorIPKcS4_EEvEET_SB_RKS3_
FN:760,770,_ZNSt7__cxx1112basic_stringIcSt11char_traitsIcESaIcEEC2IN9__gnu_cxx17__normal_iteratorIPcS4_EEvEET_SA_RKS3_
FN:760,770,_ZNSt7__cxx1112basic_stringIcSt11char_traitsIcESaIcEEC2IPcvEET_S7_RKS3_
FN:795,796,_ZNSt7__cxx1112basic_stringIcSt11char_traitsIcESaIcEEC2ISt17basic_string_viewIcS2_EvEERKT_RKS3_
FNDA:0,_ZSt12__str_concatINSt7__cxx1112basic_stringIcSt11char_traitsIcESaIcEEEET_PKNS6_10value_typeENS6_9size_typeES9_SA_RKNS6_14allocator_typeE
FNDA:0,_ZStplIcSt11char_traitsIcESaIcEENSt7__cxx1112basic_stringIT_T0_T1_EEPKS5_RKS8_
FNDA:76,_ZStplIcSt11char_traitsIcESaIcEENSt7__cxx1112basic_stringIT_T0_T1_EEOS8_RKS8_
FNDA:60,_ZStplIcSt11char_traitsIcESaIcEENSt7__cxx1112basic_stringIT_T0_T1_EERKS8_OS8_
FNDA:0,_ZStplIcSt11char_traitsIcESaIcEENSt7__cxx1112basic_stringIT_T0_T1_EEOS8_PKS5_
FNDA:0,_ZSteqIcSt11char_traitsIcESaIcEEbRKNSt7__cxx1112basic_stringIT_T0_T1_EESA_
FNDA:0,_ZSteqIcSt11char_traitsIcESaIcEEbRKNSt7__cxx1112basic_stringIT_T0_T1_EEPKS5_
FNDA:35,_ZStneIcSt11char_traitsIcESaIcEEbRKNSt7__cxx1112basic_stringIT_T0_T1_EESA_
FNDA:202,_ZStltIcSt11char_traitsIcESaIcEEbRKNSt7__cxx1112basic_stringIT_T0_T1_EESA_
FNDA:0,_ZStleIcSt11char_traitsIcESaIcEEbRKNSt7__cxx1112basic_stringIT_T0_T1_EESA_
FNDA:0,_ZSt4swapIcSt11char_traitsIcESaIcEEvRNSt7__cxx1112basic_stringIT_T0_T1_EES9_
FNDA:15,_ZNSt7__cxx114stoiERKNS_12basic_stringIcSt11char_traitsIcESaIcEEEPmi
FNDA:0,_ZNSt7__cxx119to_stringEi
FNDA:0,_ZNSt7__cxx1112basic_stringIcSt11char_traitsIcESaIcEEC2IS3_EEPKcRKS3_
FNDA:0,_ZNSt7__cxx1112basic_stringIcSt11char_traitsIcESaIcEEC2IS3_EEmcRKS3_
FNDA:15,_ZNSt7__cxx1112basic_stringIcSt11char_traitsIcESaIcEEC2IN9__gnu_cxx17__normal_iteratorIPKcS4_EEvEET_SB_RKS3_
FNDA:0,_ZNSt7__cxx1112basic_stringIcSt11char_traitsIcESaIcEEC2IN9__gnu_cxx17__normal_iteratorIPcS4_EEvEET_SA_RKS3_
FNDA:1492,_ZNSt7__cxx1112basic_stringIcSt11char_traitsIcESaIcEEC2IPcvEET_S7_RKS3_
FNDA:0,_ZNSt7__cxx1112basic_stringIcSt11char_traitsIcESaIcEEC2ISt17basic_string_viewIcS2_EvEERKT_RKS3_
FNF:19
FNH:7
BRDA:645,0,0,-
BRDA:645,0,1,-
BRDA:648,0,0,-
BRDA:648,e0,1,-
BRDA:649,0,0,-
BRDA:649,e0,1,-
BRDA:666,0,0,-
BRDA:666,e0,1,-
BRDA:765,0,0,1507
BRDA:765,e0,1,0
BRDA:796,0,0,-
BRDA:796,e0,1,-
BRDA:3537,0,0,-
BRDA:3537,e0,1,-
BRDA:3538,0,0,-
BRDA:3538,e0,1,-
BRDA:3539,0,0,-
BRDA:3539,e0,1,-
BRDA:3578,0,0,-
BRDA:3578,e0,1,-
BRDA:3578,0,2,-
BRDA:3578,e0,3,-
BRDA:3715,0,0,-
BRDA:3715,0,1,-
BRDA:3715,0,2,-
BRDA:3715,0,3,-
BRDA:3731,0,0,-
BRDA:3731,0,1,-
BRDA:3731,0,2,-
BRDA:3731,0,3,-
BRDA:4168,0,0,-
BRDA:4168,0,1,-
BRF:32
BRH:1
DA:355,0
DA:641,0
DA:642,0
DA:645,0
DA:646,0
DA:648,0
DA:649,0
DA:650,0
DA:664,0
DA:665,0
DA:666,0
DA:760,1507
DA:762,1507
DA:765,1507
DA:770,1507
DA:795,0
DA:796,0
DA:3528,0
DA:3536,0
DA:3537,0
DA:3538,0
DA:3539,0
DA:3540,0
DA:3541,0
DA:3571,0
DA:3578,0
DA:3637,76
DA:3639,76
DA:3644,60
DA:3646,60
DA:3688,0
DA:3690,0
DA:3710,0
DA:3714,0
DA:3715,0
DA:3727,0
DA:3730,0
DA:3731,0
DA:3788,35
DA:3791,35
DA:3829,202
DA:3832,202
DA:3911,0
DA:3914,0
DA:3994,0
DA:3997,0
DA:4120,15
DA:4121,15
DA:4122,15
DA:4162,0
DA:4167,0
DA:4168,0
DA:4169,0
DA:4170,0
DA:4171,0
DA:4172,0
LF:56
LH:15
end_of_record
TN:
SF:/usr/include/c++/13/bits/basic_string.tcc
FN:221,252,_ZNSt7__cxx1112basic_stringIcSt11char_traitsIcESaIcEE12_M_constructIN9__gnu_cxx17__normal_iteratorIPKcS4_EEEEvT_SB_St20forward_iterator_tag
FN:221,252,_ZNSt7__cxx1112basic_stringIcSt11char_traitsIcESaIcEE12_M_constructIN9__gnu_cxx17__normal_iteratorIPcS4_EEEEvT_SA_St20forward_iterator_tag
FN:221,252,_ZNSt7__cxx1112basic_stringIcSt11char_traitsIcESaIcEE12_M_constructIPKcEEvT_S8_St20forward_iterator_tag
FN:221,252,_ZNSt7__cxx1112basic_stringIcSt11char_traitsIcESaIcEE12_M_constructIPcEEvT_S7_St20forward_iterator_tag
FN:239,239,_ZZNSt7__cxx1112basic_stringIcSt11char_traitsIcESaIcEE12_M_constructIN9__gnu_cxx17__normal_iteratorIPKcS4_EEEEvT_SB_St20forward_iterator_tagEN6_GuardC2EPS4_
FN:239,239,_ZZNSt7__cxx1112basic_stringIcSt11char_traitsIcESaIcEE12_M_constructIN9__gnu_cxx17__normal_iteratorIPcS4_EEEEvT_SA_St20forward_iterator_tagEN6_GuardC2EPS4_
FN:239,239,_ZZNSt7__cxx1112basic_stringIcSt11char_traitsIcESaIcEE12_M_constructIPKcEEvT_S8_St20forward_iterator_tagEN6_GuardC2EPS4_
FN:239,239,_ZZNSt7__cxx1112basic_stringIcSt11char_traitsIcESaIcEE12_M_constructIPcEEvT_S7_St20forward_iterator_tagEN6_GuardC2EPS4_
FN:242,242,_ZZNSt7__cxx1112basic_stringIcSt11char_traitsIcESaIcEE12_M_constructIN9__gnu_cxx17__normal_iteratorIPKcS4_EEEEvT_SB_St20forward_iterator_tagEN6_GuardD2Ev
FN:242,242,_ZZNSt7__cxx1112basic_stringIcSt11char_traitsIcESaIcEE12_M_constructIN9__gnu_cxx17__normal_iteratorIPcS4_EEEEvT_SA_St20forward_iterator_tagEN6_GuardD2Ev
FN:242,242,_ZZNSt7__cxx1112basic_stringIcSt11char_traitsIcESaIcEE12_M_constructIPKcEEvT_S8_St20forward_iterator_tagEN6_GuardD2Ev
FN:242,242,_ZZNSt7__cxx1112basic_stringIcSt11char_traitsIcESaIcEE12_M_constructIPcEEvT_S7_St20forward_iterator_tagEN6_GuardD2Ev
FNDA:15,_ZNSt7__cxx1112basic_stringIcSt11char_traitsIcESaIcEE12_M_constructIN9__gnu_cxx17__normal_iteratorIPKcS4_EEEEvT_SB_St20forward_iterator_tag
FNDA:0,_ZNSt7__cxx1112basic_stringIcSt11char_traitsIcESaIcEE12_M_constructIN9__gnu_cxx17__normal_iteratorIPcS4_EEEEvT_SA_St20forward_iterator_tag
FNDA:0,_ZNSt7__cxx1112basic_stringIcSt11char_traitsIcESaIcEE12_M_constructIPKcEEvT_S8_St20forward_iterator_tag
FNDA:661602,_ZNSt7__cxx1112basic_stringIcSt11char_traitsIcESaIcEE12_M_constructIPcEEvT_S7_St20forward_iterator_tag
FNDA:15,_ZZNSt7__cxx1112basic_stringIcSt11char_traitsIcESaIcEE12_M_constructIN9__gnu_cxx17__normal_iteratorIPKcS4_EEEEvT_SB_St20forward_iterator_tagEN6_GuardC2EPS4_
FNDA:0,_ZZNSt7__cxx1112basic_stringIcSt11char_traitsIcESaIcEE12_M_constructIN9__gnu_cxx17__normal_iteratorIPcS4_EEEEvT_SA_St20forward_iterator_tagEN6_GuardC2EPS4_
FNDA:0,_ZZNSt7__cxx1112basic_stringIcSt11char_traitsIcESaIcEE12_M_constructIPKcEEvT_S8_St20forward_iterator_tagEN6_GuardC2EPS4_
FNDA:661599,_ZZNSt7__cxx1112basic_stringIcSt11char_traitsIcESaIcEE12_M_constructIPcEEvT_S7_St20forward_iterator_tagEN6_GuardC2EPS4_
FNDA:15,_ZZNSt7__cxx1112basic_stringIcSt11char_traitsIcESaIcEE12_M_constructIN9__gnu_cxx17__normal_iteratorIPKcS4_EEEEvT_SB_St20forward_iterator_tagEN6_GuardD2Ev
FNDA:0,_ZZNSt7__cxx1112basic_stringIcSt11char_traitsIcESaIcEE12_M_constructIN9__gnu_cxx17__normal_iteratorIPcS4_EEEEvT_SA_St20forward_iterator_tagEN6_GuardD2Ev
FNDA:0,_ZZNSt7__cxx1112basic_stringIcSt11char_traitsIcESaIcEE12_M_constructIPKcEEvT_S8_St20forward_iterator_tagEN6_GuardD2Ev
FNDA:661599,_ZZNSt7__cxx1112basic_stringIcSt11char_traitsIcESaIcEE12_M_constructIPcEEvT_S7_St20forward_iterator_tagEN6_GuardD2Ev
FNF:12
FNH:6
BRDA:227,0,0,28216
BRDA:227,0,1,633401
BRDA:229,0,0,28216
BRDA:229,e0,1,0
BRDA:242,0,0,0
BRDA:242,0,1,661614
BRF:6
BRH:4
DA:221,661617
DA:225,661617
DA:227,661617
DA:229,28216
DA:230,28216
DA:239,661614
DA:242,661614
DA:245,661617
DA:247,661614
DA:249,661613
DA:251,661613
DA:252,661611
LF:12
LH:12
end_of_record
TN:
SF:/usr/include/c++/13/bits/char_traits.h
FN:136,137,_ZN9__gnu_cxx11char_traitsIcE2eqERKcS3_
FN:199,206,_ZN9__gnu_cxx11char_traitsIcE6lengthEPKc
FN:366,371,_ZNSt11char_traitsIcE2ltERKcS2_
FN:374,390,_ZNSt11char_traitsIcE7compareEPKcS2_m
FN:393,400,_ZNSt11char_traitsIcE6lengthEPKc
FN:427,436,_ZNSt11char_traitsIcE4copyEPcPKcm
FNDA:0,_ZN9__gnu_cxx11char_traitsIcE2eqERKcS3_
FNDA:0,_ZN9__gnu_cxx11char_traitsIcE6lengthEPKc
FNDA:0,_ZNSt11char_traitsIcE2ltERKcS2_
FNDA:0,_ZNSt11char_traitsIcE7compareEPKcS2_m
FNDA:0,_ZNSt11char_traitsIcE6lengthEPKc
FNDA:0,_ZNSt11char_traitsIcE4copyEPcPKcm
FNF:6
FNH:0
BRDA:203,0,0,-
BRDA:203,0,1,-
BRDA:376,0,0,-
BRDA:376,0,1,-
BRDA:379,0,0,-
BRDA:379,0,1,-
BRDA:381,0,0,-
BRDA:381,0,1,-
BRDA:382,0,0,-
BRDA:382,0,1,-
BRDA:384,0,0,-
BRDA:384,0,1,-
BRDA:396,0,0,-
BRDA:396,0,1,-
BRDA:429,0,0,-
BRDA:429,0,1,-
BRF:16
BRH:0
DA:136,0
DA:137,0
DA:199,0
DA:202,0
DA:203,0
DA:204,0
DA:205,0
DA:366,0
DA:369,0
DA:370,0
DA:374,0
DA:376,0
DA:377,0
DA:379,0
DA:381,0
DA:382,0
DA:383,0
DA:384,0
DA:385,0
DA:386,0
DA:389,0
DA:393,0
DA:396,0
DA:397,0
DA:399,0
DA:427,0
DA:429,0
DA:430,0
DA:435,0
LF:29
LH:0
end_of_record
TN:
SF:/usr/include/c++/13/bits/charconv.h
FN:55,74,_ZNSt8__detail14__to_chars_lenIjEEjT_i
FN:81,110,_ZNSt8__detail18__to_chars_10_implIjEEvPcjT_
FNDA:0,_ZNSt8__detail14__to_chars_lenIjEEjT_i
FNDA:0,_ZNSt8__detail18__to_chars_10_implIjEEvPcjT_
FNF:2
FNH:0
BRDA:67,0,0,-
BRDA:67,0,1,-
BRDA:68,0,0,-
BRDA:68,0,1,-
BRDA:69,0,0,-
BRDA:69,0,1,-
BRDA:70,0,0,-
BRDA:70,0,1,-
BRDA:94,0,0,-
BRDA:94,0,1,-
BRDA:102,0,0,-
BRDA:102,0,1,-
BRF:12
BRH:0
DA:55,0
DA:61,0
DA:62,0
DA:63,0
DA:64,0
DA:67,0
DA:68,0
DA:69,0
DA:70,0
DA:71,0
DA:72,0
DA:81,0
DA:87,0
DA:93,0
DA:94,0
DA:96,0
DA:97,0
DA:98,0
DA:99,0
DA:100,0
DA:102,0
DA:104,0
DA:105,0
DA:106,0
DA:109,0
DA:110,0
LF:26
LH:0
end_of_record
TN:
SF:/usr/include/c++/13/bits/chrono.h
FN:1141,1143,_ZNSt6chronomiINS_3_V212steady_clockENS_8durationIlSt5ratioILl1ELl1000000000EEEES6_EENSt11common_typeIJT0_T1_EE4typeERKNS_10time_pointIT_S8_EERKNSC_ISD_S9_EE
FN:221,226,_ZNSt6chrono20__duration_cast_implINS_8durationIlSt5ratioILl1ELl1000000000EEEES2_ILl1000000000ELl1EElLb0ELb1EE6__castIlS2_ILl1ELl1EEEES4_RKNS1_IT_T0_EE
FN:221,226,_ZNSt6chrono20__duration_cast_implINS_8durationIlSt5ratioILl1ELl1000000000EEEES2_ILl1000000ELl1EElLb0ELb1EE6__castIlS2_ILl1ELl1000EEEES4_RKNS1_IT_T0_EE
FN:273,291,_ZNSt6chrono13duration_castINS_8durationIlSt5ratioILl1ELl1000000000EEEElS2_ILl1ELl1000EEEENSt9enable_ifIXsrNS_13__is_durationIT_EE5valueES8_E4typeERKNS1_IT0_T1_EE
FN:273,291,_ZNSt6chrono13duration_castINS_8durationIlSt5ratioILl1ELl1000000000EEEElS2_ILl1ELl1EEEENSt9enable_ifIXsrNS_13__is_durationIT_EE5valueES8_E4typeERKNS1_IT0_T1_EE
FN:273,291,_ZNSt6chrono13duration_castINS_8durationIlSt5ratioILl1ELl1EEEElS3_EENSt9enable_ifIXsrNS_13__is_durationIT_EE5valueES7_E4typeERKNS1_IT0_T1_EE
FN:498,499,_ZNSt6chrono15duration_valuesIlE4zeroEv
FN:573,574,_ZNSt6chrono8durationIlSt5ratioILl1ELl1000000000EEEC1IlvEERKT_
FN:573,574,_ZNSt6chrono8durationIlSt5ratioILl1ELl1000EEEC2IivEERKT_
FN:573,574,_ZNSt6chrono8durationIlSt5ratioILl1ELl1EEEC1IlvEERKT_
FN:573,574,_ZNSt6chrono8durationIlSt5ratioILl1ELl1EEEC2IivEERKT_
FN:581,582,_ZNSt6chrono8durationIlSt5ratioILl1ELl1000000000EEEC2IlS1_ILl1ELl1000EEvEERKNS0_IT_T0_EE
FN:589,590,_ZNKSt6chrono8durationIlSt5ratioILl1ELl1000000000EEE5countEv
FN:589,590,_ZNKSt6chrono8durationIlSt5ratioILl1ELl1000EEE5countEv
FN:589,590,_ZNKSt6chrono8durationIlSt5ratioILl1ELl1EEE5countEv
FN:673,674,_ZNSt6chrono8durationIlSt5ratioILl1ELl1EEE4zeroEv
FN:710,717,_ZNSt6chronomiIlSt5ratioILl1ELl1000000000EElS2_EENSt11common_typeIJNS_8durationIT_T0_EENS4_IT1_T2_EEEE4typeERKS7_RKSA_
FN:710,717,_ZNSt6chronomiIlSt5ratioILl1ELl1EElS2_EENSt11common_typeIJNS_8durationIT_T0_EENS4_IT1_T2_EEEE4typeERKS7_RKSA_
FN:822,829,_ZNSt6chronoltIlSt5ratioILl1ELl1000000000EElS1_ILl1ELl1000EEEEbRKNS_8durationIT_T0_EERKNS4_IT1_T2_EE
FN:822,829,_ZNSt6chronoltIlSt5ratioILl1ELl1EElS2_EEbRKNS_8durationIT_T0_EERKNS3_IT1_T2_EE
FN:855,857,_ZNSt6chronoleIlSt5ratioILl1ELl1EElS2_EEbRKNS_8durationIT_T0_EERKNS3_IT1_T2_EE
FN:949,950,_ZNKSt6chrono10time_pointINS_3_V212steady_clockENS_8durationIlSt5ratioILl1ELl1000000000EEEEE16time_since_epochEv
FNDA:2,_ZNSt6chronomiINS_3_V212steady_clockENS_8durationIlSt5ratioILl1ELl1000000000EEEES6_EENSt11common_typeIJT0_T1_EE4typeERKNS_10time_pointIT_S8_EERKNSC_ISD_S9_EE
FNDA:312,_ZNSt6chrono20__duration_cast_implINS_8durationIlSt5ratioILl1ELl1000000000EEEES2_ILl1000000000ELl1EElLb0ELb1EE6__castIlS2_ILl1ELl1EEEES4_RKNS1_IT_T0_EE
FNDA:0,_ZNSt6chrono20__duration_cast_implINS_8durationIlSt5ratioILl1ELl1000000000EEEES2_ILl1000000ELl1EElLb0ELb1EE6__castIlS2_ILl1ELl1000EEEES4_RKNS1_IT_T0_EE
FNDA:0,_ZNSt6chrono13duration_castINS_8durationIlSt5ratioILl1ELl1000000000EEEElS2_ILl1ELl1000EEEENSt9enable_ifIXsrNS_13__is_durationIT_EE5valueES8_E4typeERKNS1_IT0_T1_EE
FNDA:312,_ZNSt6chrono13duration_castINS_8durationIlSt5ratioILl1ELl1000000000EEEElS2_ILl1ELl1EEEENSt9enable_ifIXsrNS_13__is_durationIT_EE5valueES8_E4typeERKNS1_IT0_T1_EE
FNDA:6,_ZNSt6chrono13duration_castINS_8durationIlSt5ratioILl1ELl1EEEElS3_EENSt9enable_ifIXsrNS_13__is_durationIT_EE5valueES7_E4typeERKNS1_IT0_T1_EE
FNDA:0,_ZNSt6chrono15duration_valuesIlE4zeroEv
FNDA:0,_ZNSt6chrono8durationIlSt5ratioILl1ELl1000000000EEEC1IlvEERKT_
FNDA:0,_ZNSt6chrono8durationIlSt5ratioILl1ELl1000EEEC2IivEERKT_
FNDA:0,_ZNSt6chrono8durationIlSt5ratioILl1ELl1EEEC1IlvEERKT_
FNDA:6,_ZNSt6chrono8durationIlSt5ratioILl1ELl1EEEC2IivEERKT_
FNDA:2,_ZNSt6chrono8durationIlSt5ratioILl1ELl1000000000EEEC2IlS1_ILl1ELl1000EEvEERKNS0_IT_T0_EE
FNDA:0,_ZNKSt6chrono8durationIlSt5ratioILl1ELl1000000000EEE5countEv
FNDA:0,_ZNKSt6chrono8durationIlSt5ratioILl1ELl1000EEE5countEv
FNDA:0,_ZNKSt6chrono8durationIlSt5ratioILl1ELl1EEE5countEv
FNDA:6,_ZNSt6chrono8durationIlSt5ratioILl1ELl1EEE4zeroEv
FNDA:2,_ZNSt6chronomiIlSt5ratioILl1ELl1000000000EElS2_EENSt11common_typeIJNS_8durationIT_T0_EENS4_IT1_T2_EEEE4typeERKS7_RKSA_
FNDA:6,_ZNSt6chronomiIlSt5ratioILl1ELl1EElS2_EENSt11common_typeIJNS_8durationIT_T0_EENS4_IT1_T2_EEEE4typeERKS7_RKSA_
FNDA:2,_ZNSt6chronoltIlSt5ratioILl1ELl1000000000EElS1_ILl1ELl1000EEEEbRKNS_8durationIT_T0_EERKNS4_IT1_T2_EE
FNDA:6,_ZNSt6chronoltIlSt5ratioILl1ELl1EElS2_EEbRKNS_8durationIT_T0_EERKNS3_IT1_T2_EE
FNDA:6,_ZNSt6chronoleIlSt5ratioILl1ELl1EElS2_EEbRKNS_8durationIT_T0_EERKNS3_IT1_T2_EE
FNDA:4,_ZNKSt6chrono10time_pointINS_3_V212steady_clockENS_8durationIlSt5ratioILl1ELl1000000000EEEEE16time_since_epochEv
FNF:22
FNH:13
BRDA:582,0,0,2
BRDA:582,e0,1,0
BRDA:828,0,0,2
BRDA:828,e0,1,0
BRF:4
BRH:2
DA:221,312
DA:224,624
DA:225,312
DA:273,318
DA:277,6
DA:287,312
DA:498,0
DA:499,0
DA:573,6
DA:574,6
DA:581,2
DA:582,2
DA:589,0
DA:590,0
DA:673,6
DA:674,6
DA:710,8
DA:716,8
DA:822,8
DA:828,8
DA:855,6
DA:857,6
DA:949,4
DA:950,4
DA:1141,2
DA:1143,2
LF:26
LH:22
end_of_record
TN:
SF:/usr/include/c++/13/bits/cpp_type_traits.h
FN:607,608,_ZSt12__miter_baseIN9__gnu_cxx17__normal_iteratorIPKNSt7__cxx119sub_matchINS1_IPKcNS2_12basic_stringIcSt11char_traitsIcESaIcEEEEEEESt6vectorISC_SaISC_EEEEET_SJ_
FN:607,608,_ZSt12__miter_baseIN9__gnu_cxx17__normal_iteratorIPKcSt6vectorIcSaIcEEEEET_S8_
FN:607,608,_ZSt12__miter_baseIN9__gnu_cxx17__normal_iteratorIPNSt7__cxx1112basic_stringIcSt11char_traitsIcESaIcEEESt6vectorIS7_SaIS7_EEEEET_SD_
FN:607,608,_ZSt12__miter_baseIN9__gnu_cxx17__normal_iteratorIPcSt6vectorIcSaIcEEEEET_S7_
FN:607,608,_ZSt12__miter_baseIPKcET_S2_
FN:607,608,_ZSt12__miter_baseIPNSt7__cxx119sub_matchIN9__gnu_cxx17__normal_iteratorIPKcNS0_12basic_stringIcSt11char_traitsIcESaIcEEEEEEEET_SE_
FN:607,608,_ZSt12__miter_baseIPPNSt8__detail9_StateSeqINSt7__cxx1112regex_traitsIcEEEEET_S8_
FN:607,608,_ZSt12__miter_baseIPPlET_S2_
FN:607,608,_ZSt12__miter_baseIPcET_S1_
FNDA:30,_ZSt12__miter_baseIN9__gnu_cxx17__normal_iteratorIPKNSt7__cxx119sub_matchINS1_IPKcNS2_12basic_stringIcSt11char_traitsIcESaIcEEEEEEESt6vectorISC_SaISC_EEEEET_SJ_
FNDA:10,_ZSt12__miter_baseIN9__gnu_cxx17__normal_iteratorIPKcSt6vectorIcSaIcEEEEET_S8_
FNDA:0,_ZSt12__miter_baseIN9__gnu_cxx17__normal_iteratorIPNSt7__cxx1112basic_stringIcSt11char_traitsIcESaIcEEESt6vectorIS7_SaIS7_EEEEET_SD_
FNDA:0,_ZSt12__miter_baseIN9__gnu_cxx17__normal_iteratorIPcSt6vectorIcSaIcEEEEET_S7_
FNDA:2984,_ZSt12__miter_baseIPKcET_S2_
FNDA:0,_ZSt12__miter_baseIPNSt7__cxx119sub_matchIN9__gnu_cxx17__normal_iteratorIPKcNS0_12basic_stringIcSt11char_traitsIcESaIcEEEEEEEET_SE_
FNDA:0,_ZSt12__miter_baseIPPNSt8__detail9_StateSeqINSt7__cxx1112regex_traitsIcEEEEET_S8_
FNDA:0,_ZSt12__miter_baseIPPlET_S2_
FNDA:0,_ZSt12__miter_baseIPcET_S1_
FNF:9
FNH:3
DA:607,3024
DA:608,3024
LF:2
LH:2
end_of_record
TN:
SF:/usr/include/c++/13/bits/deque.tcc
FN:164,180,_ZNSt5dequeINSt8__detail9_StateSeqINSt7__cxx1112regex_traitsIcEEEESaIS5_EE12emplace_backIJS5_EEERS5_DpOT_
FN:484,516,_ZNSt5dequeINSt8__detail9_StateSeqINSt7__cxx1112regex_traitsIcEEEESaIS5_EE16_M_push_back_auxIJRKS5_EEEvDpOT_
FN:484,516,_ZNSt5dequeINSt8__detail9_StateSeqINSt7__cxx1112regex_traitsIcEEEESaIS5_EE16_M_push_back_auxIJS5_EEEvDpOT_
FN:484,516,_ZNSt5dequeIlSaIlEE16_M_push_back_auxIJRKlEEEvDpOT_
FN:560,568,_ZNSt5dequeINSt8__detail9_StateSeqINSt7__cxx1112regex_traitsIcEEEESaIS5_EE15_M_pop_back_auxEv
FN:560,568,_ZNSt5dequeIlSaIlEE15_M_pop_back_auxEv
FN:931,973,_ZNSt5dequeINSt8__detail9_StateSeqINSt7__cxx1112regex_traitsIcEEEESaIS5_EE17_M_reallocate_mapEmb
FN:931,973,_ZNSt5dequeIlSaIlEE17_M_reallocate_mapEmb
FNDA:22,_ZNSt5dequeINSt8__detail9_StateSeqINSt7__cxx1112regex_traitsIcEEEESaIS5_EE12emplace_backIJS5_EEERS5_DpOT_
FNDA:0,_ZNSt5dequeINSt8__detail9_StateSeqINSt7__cxx1112regex_traitsIcEEEESaIS5_EE16_M_push_back_auxIJRKS5_EEEvDpOT_
FNDA:0,_ZNSt5dequeINSt8__detail9_StateSeqINSt7__cxx1112regex_traitsIcEEEESaIS5_EE16_M_push_back_auxIJS5_EEEvDpOT_
FNDA:0,_ZNSt5dequeIlSaIlEE16_M_push_back_auxIJRKlEEEvDpOT_
FNDA:0,_ZNSt5dequeINSt8__detail9_StateSeqINSt7__cxx1112regex_traitsIcEEEESaIS5_EE15_M_pop_back_auxEv
FNDA:0,_ZNSt5dequeIlSaIlEE15_M_pop_back_auxEv
FNDA:0,_ZNSt5dequeINSt8__detail9_StateSeqINSt7__cxx1112regex_traitsIcEEEESaIS5_EE17_M_reallocate_mapEmb
FNDA:0,_ZNSt5dequeIlSaIlEE17_M_reallocate_mapEmb
FNF:8
FNH:1
BRDA:168,0,0,22
BRDA:168,0,1,0
BRDA:492,0,0,-
BRDA:492,0,1,-
BRDA:939,0,0,-
BRDA:939,0,1,-
BRDA:943,0,0,-
BRDA:943,0,1,-
BRDA:944,0,0,-
BRDA:944,0,1,-
BRDA:961,0,0,-
BRDA:961,0,1,-
BRF:12
BRH:1
DA:164,22
DA:167,22
DA:168,22
DA:170,22
DA:173,22
DA:176,0
DA:178,22
DA:484,0
DA:492,0
DA:493,0
DA:496,0
DA:497,0
DA:501,0
DA:507,0
DA:509,0
DA:516,0
DA:560,0
DA:563,0
DA:564,0
DA:565,0
DA:566,0
DA:568,0
DA:931,0
DA:934,0
DA:935,0
DA:936,0
DA:939,0
DA:941,0
DA:942,0
DA:943,0
DA:944,0
DA:945,0
DA:946,0
DA:949,0
DA:950,0
DA:951,0
DA:955,0
DA:956,0
DA:959,0
DA:960,0
DA:961,0
DA:962,0
DA:963,0
DA:965,0
DA:967,0
DA:968,0
DA:971,0
DA:972,0
DA:973,0
LF:49
LH:6
end_of_record
TN:
SF:/usr/include/c++/13/bits/exception.h
FN:62,62,_ZNSt9exceptionC2Ev
FNDA:0,_ZNSt9exceptionC2Ev
FNF:1
FNH:0
DA:62,0
LF:1
LH:0
end_of_record
TN:
SF:/usr/include/c++/13/bits/fs_dir.h
FN:169,169,_ZNKSt10filesystem7__cxx1115directory_entry4pathEv
FN:189,190,_ZNKSt10filesystem7__cxx1115directory_entry17is_character_fileEv
FN:197,198,_ZNKSt10filesystem7__cxx1115directory_entry12is_directoryEv
FN:221,222,_ZNKSt10filesystem7__cxx1115directory_entry15is_regular_fileEv
FN:237,242,_ZNKSt10filesystem7__cxx1115directory_entry10is_symlinkEv
FN:278,279,_ZNKSt10filesystem7__cxx1115directory_entry6statusEv
FN:286,287,_ZNKSt10filesystem7__cxx1115directory_entry14symlink_statusEv
FN:342,347,_ZNKSt10filesystem7__cxx1115directory_entry12_M_file_typeEv
FN:403,403,_ZNSt10filesystem7__cxx1118directory_iteratorC2Ev
FN:406,407,_ZNSt10filesystem7__cxx1118directory_iteratorC2ERKNS0_4pathE
FN:419,419,_ZNSt10filesystem7__cxx1118directory_iteratorC2ERKS1_
FN:421,421,_ZNSt10filesystem7__cxx1118directory_iteratorC2EOS1_
FN:423,423,_ZNSt10filesystem7__cxx1118directory_iteratorD2Ev
FN:444,449,_ZNSt10filesystem7__cxx11eqERKNS0_18directory_iteratorES3_
FN:460,462,_ZNSt10filesystem7__cxx11neERKNS0_18directory_iteratorES3_
FN:484,485,_ZNSt10filesystem7__cxx115beginENS0_18directory_iteratorE
FN:489,490,_ZNSt10filesystem7__cxx113endENS0_18directory_iteratorE
FN:77,77,_ZNKSt10filesystem11file_status4typeEv
FNDA:185,_ZNKSt10filesystem7__cxx1115directory_entry4pathEv
FNDA:0,_ZNKSt10filesystem7__cxx1115directory_entry17is_character_fileEv
FNDA:99,_ZNKSt10filesystem7__cxx1115directory_entry12is_directoryEv
FNDA:163,_ZNKSt10filesystem7__cxx1115directory_entry15is_regular_fileEv
FNDA:0,_ZNKSt10filesystem7__cxx1115directory_entry10is_symlinkEv
FNDA:0,_ZNKSt10filesystem7__cxx1115directory_entry6statusEv
FNDA:0,_ZNKSt10filesystem7__cxx1115directory_entry14symlink_statusEv
FNDA:262,_ZNKSt10filesystem7__cxx1115directory_entry12_M_file_typeEv
FNDA:70,_ZNSt10filesystem7__cxx1118directory_iteratorC2Ev
FNDA:70,_ZNSt10filesystem7__cxx1118directory_iteratorC2ERKNS0_4pathE
FNDA:140,_ZNSt10filesystem7__cxx1118directory_iteratorC2ERKS1_
FNDA:70,_ZNSt10filesystem7__cxx1118directory_iteratorC2EOS1_
FNDA:350,_ZNSt10filesystem7__cxx1118directory_iteratorD2Ev
FNDA:168,_ZNSt10filesystem7__cxx11eqERKNS0_18directory_iteratorES3_
FNDA:168,_ZNSt10filesystem7__cxx11neERKNS0_18directory_iteratorES3_
FNDA:70,_ZNSt10filesystem7__cxx115beginENS0_18directory_iteratorE
FNDA:70,_ZNSt10filesystem7__cxx113endENS0_18directory_iteratorE
FNDA:0,_ZNKSt10filesystem11file_status4typeEv
FNF:18
FNH:13
BRDA:239,0,0,-
BRDA:239,0,1,-
BRDA:241,0,0,-
BRDA:241,e0,1,-
BRDA:344,0,0,262
BRDA:344,0,1,0
BRDA:344,0,2,262
BRDA:344,0,3,0
BRDA:346,0,0,-
BRDA:346,e0,1,-
BRDA:448,0,0,65
BRDA:448,0,1,103
BRDA:448,0,2,65
BRDA:448,0,3,0
BRF:14
BRH:5
DA:77,0
DA:169,185
DA:189,0
DA:190,0
DA:197,99
DA:198,99
DA:221,163
DA:222,163
DA:237,0
DA:239,0
DA:240,0
DA:241,0
DA:278,0
DA:279,0
DA:286,0
DA:287,0
DA:342,262
DA:344,262
DA:345,262
DA:346,0
DA:403,70
DA:406,70
DA:407,70
DA:419,140
DA:421,70
DA:423,350
DA:444,168
DA:447,168
DA:448,168
DA:460,168
DA:462,168
DA:484,70
DA:485,70
DA:489,70
DA:490,70
LF:35
LH:23
end_of_record
TN:
SF:/usr/include/c++/13/bits/fs_ops.h
FN:128,129,_ZNSt10filesystem6existsENS_11file_statusE
FN:133,134,_ZNSt10filesystem6existsERKNS_7__cxx114pathE
FN:363,364,_ZNSt10filesystem12status_knownENS_11file_statusE
FNDA:0,_ZNSt10filesystem6existsENS_11file_statusE
FNDA:0,_ZNSt10filesystem6existsERKNS_7__cxx114pathE
FNDA:0,_ZNSt10filesystem12status_knownENS_11file_statusE
FNF:3
FNH:0
BRDA:129,0,0,-
BRDA:129,0,1,-
BRDA:129,0,2,-
BRDA:129,0,3,-
BRF:4
BRH:0
DA:128,0
DA:129,0
DA:133,0
DA:134,0
DA:363,0
DA:364,0
LF:6
LH:0
end_of_record
TN:
SF:/usr/include/c++/13/bits/fs_path.h
FN:1014,1016,_ZNSt10filesystem7__cxx114path8iteratorC2EPKS1_PKNS1_5_CmptE
FN:1018,1020,_ZNSt10filesystem7__cxx114path8iteratorC2EPKS1_b
FN:1161,1167,_ZNKSt10filesystem7__cxx114path6stringIcSt11char_traitsIcESaIcEEENSt7__cxx1112basic_stringIT_T0_T1_EERKSA_
FN:1170,1170,_ZNKSt10filesystem7__cxx114path6stringEv
FN:1283,1298,_ZNKSt10filesystem7__cxx114path8filenameEv
FN:1310,1316,_ZNKSt10filesystem7__cxx114path9extensionEv
FN:1351,1356,_ZNKSt10filesystem7__cxx114path3endEv
FN:1376,1390,_ZNSt10filesystem7__cxx114path8iteratormmEv
FN:1393,1402,_ZNKSt10filesystem7__cxx114path8iteratordeEv
FN:183,185,_ZNSt10filesystem7__cxx118__detail17__effective_rangeIcSt11char_traitsIcESaIcEEESt17basic_string_viewIT_S3_IS7_EERKNSt7__cxx1112basic_stringIS7_T0_T1_EE
FN:196,214,_ZNSt10filesystem7__cxx118__detail17__effective_rangeIA7_cEEDaRKT_
FN:315,315,_ZNSt10filesystem7__cxx114pathC2Ev
FN:317,317,_ZNSt10filesystem7__cxx114pathC2ERKS1_
FN:324,326,_ZNSt10filesystem7__cxx114pathC2EONSt7__cxx1112basic_stringIcSt11char_traitsIcESaIcEEENS1_6formatE
FN:330,332,_ZNSt10filesystem7__cxx114pathC2IA7_cS1_EERKT_NS1_6formatE
FN:330,332,_ZNSt10filesystem7__cxx114pathC2INSt7__cxx1112basic_stringIcSt11char_traitsIcESaIcEEES1_EERKT_NS1_6formatE
FN:355,355,_ZNSt10filesystem7__cxx114pathD2Ev
FN:513,513,_ZNKSt10filesystem7__cxx114path5emptyEv
FN:618,633,_ZNSt10filesystem7__cxx114path10_S_convertISt17basic_string_viewIcSt11char_traitsIcEEEEDaT_
FN:672,672,_ZNKSt10filesystem7__cxx114path7_M_typeEv
FN:689,689,_ZNSt10filesystem7__cxx114path5_ListD2Ev
FN:691,692,_ZNKSt10filesystem7__cxx114path5_List4typeEv
FN:957,957,_ZNKSt10filesystem7__cxx114path8iteratorptEv
FN:981,982,_ZNKSt10filesystem7__cxx114path8iterator11_M_is_multiEv
FNDA:5771,_ZNSt10filesystem7__cxx114path8iteratorC2EPKS1_PKNS1_5_CmptE
FNDA:0,_ZNSt10filesystem7__cxx114path8iteratorC2EPKS1_b
FNDA:0,_ZNKSt10filesystem7__cxx114path6stringIcSt11char_traitsIcESaIcEEENSt7__cxx1112basic_stringIT_T0_T1_EERKSA_
FNDA:0,_ZNKSt10filesystem7__cxx114path6stringEv
FNDA:5773,_ZNKSt10filesystem7__cxx114path8filenameEv
FNDA:5831,_ZNKSt10filesystem7__cxx114path9extensionEv
FNDA:5771,_ZNKSt10filesystem7__cxx114path3endEv
FNDA:5771,_ZNSt10filesystem7__cxx114path8iteratormmEv
FNDA:11542,_ZNKSt10filesystem7__cxx114path8iteratordeEv
FNDA:0,_ZNSt10filesystem7__cxx118__detail17__effective_rangeIcSt11char_traitsIcESaIcEEESt17basic_string_viewIT_S3_IS7_EERKNSt7__cxx1112basic_stringIS7_T0_T1_EE
FNDA:0,_ZNSt10filesystem7__cxx118__detail17__effective_rangeIA7_cEEDaRKT_
FNDA:0,_ZNSt10filesystem7__cxx114pathC2Ev
FNDA:0,_ZNSt10filesystem7__cxx114pathC2ERKS1_
FNDA:0,_ZNSt10filesystem7__cxx114pathC2EONSt7__cxx1112basic_stringIcSt11char_traitsIcESaIcEEENS1_6formatE
FNDA:0,_ZNSt10filesystem7__cxx114pathC2IA7_cS1_EERKT_NS1_6formatE
FNDA:0,_ZNSt10filesystem7__cxx114pathC2INSt7__cxx1112basic_stringIcSt11char_traitsIcESaIcEEES1_EERKT_NS1_6formatE
FNDA:0,_ZNSt10filesystem7__cxx114pathD2Ev
FNDA:5773,_ZNKSt10filesystem7__cxx114path5emptyEv
FNDA:0,_ZNSt10filesystem7__cxx114path10_S_convertISt17basic_string_viewIcSt11char_traitsIcEEEEDaT_
FNDA:40399,_ZNKSt10filesystem7__cxx114path7_M_typeEv
FNDA:0,_ZNSt10filesystem7__cxx114path5_ListD2Ev
FNDA:40399,_ZNKSt10filesystem7__cxx114path5_List4typeEv
FNDA:5771,_ZNKSt10filesystem7__cxx114path8iteratorptEv
FNDA:17313,_ZNKSt10filesystem7__cxx114path8iterator11_M_is_multiEv
FNF:24
FNH:11
BRDA:317,0,0,-
BRDA:317,e0,1,-
BRDA:325,0,0,-
BRDA:325,e0,1,-
BRDA:326,0,0,-
BRDA:326,e0,1,-
BRDA:331,0,0,-
BRDA:331,e0,1,-
BRDA:331,0,2,-
BRDA:331,e0,3,-
BRDA:332,0,0,-
BRDA:332,e0,1,-
BRDA:1170,0,0,-
BRDA:1170,e0,1,-
BRDA:1285,0,0,0
BRDA:1285,0,1,5773
BRDA:1287,0,0,2
BRDA:1287,0,1,5771
BRDA:1289,0,0,5771
BRDA:1289,0,1,0
BRDA:1291,0,0,0
BRDA:1291,0,1,5771
BRDA:1294,0,0,5771
BRDA:1294,0,1,0
BRDA:1295,0,0,5771
BRDA:1295,e0,1,0
BRDA:1313,0,0,5831
BRDA:1313,0,1,0
BRDA:1313,0,2,5831
BRDA:1313,0,3,0
BRDA:1314,0,0,5831
BRDA:1314,e0,1,0
BRDA:1314,0,2,5831
BRDA:1314,e0,3,0
BRDA:1353,0,0,5771
BRDA:1353,0,1,0
BRDA:1378,0,0,0
BRDA:1378,0,1,5771
BRDA:1378,0,2,0
BRDA:1378,0,3,0
BRDA:1378,0,4,0
BRDA:1378,0,5,5771
BRDA:1379,0,0,5771
BRDA:1379,0,1,0
BRDA:1381,0,0,0
BRDA:1381,0,1,5771
BRDA:1381,0,2,0
BRDA:1381,0,3,0
BRDA:1381,0,4,0
BRDA:1381,0,5,5771
BRDA:1386,0,0,-
BRDA:1386,0,1,-
BRDA:1386,0,2,-
BRDA:1386,0,3,-
BRDA:1386,0,4,-
BRDA:1386,0,5,-
BRDA:1395,0,0,0
BRDA:1395,0,1,11542
BRDA:1395,0,2,0
BRDA:1395,0,3,0
BRDA:1395,0,4,0
BRDA:1395,0,5,11542
BRDA:1396,0,0,11542
BRDA:1396,0,1,0
BRDA:1398,0,0,0
BRDA:1398,0,1,11542
BRDA:1398,0,2,0
BRDA:1398,0,3,0
BRDA:1398,0,4,0
BRDA:1398,0,5,11542
BRF:70
BRH:22
DA:183,0
DA:185,0
DA:196,0
DA:203,0
DA:315,0
DA:317,0
DA:324,0
DA:325,0
DA:326,0
DA:330,0
DA:331,0
DA:332,0
DA:355,0
DA:513,5773
DA:618,0
DA:622,0
DA:672,40399
DA:689,0
DA:691,40399
DA:692,40399
DA:957,5771
DA:981,17313
DA:982,17313
DA:1014,5771
DA:1015,5771
DA:1016,5771
DA:1018,0
DA:1019,0
DA:1020,0
DA:1161,0
DA:1164,0
DA:1170,0
DA:1283,5773
DA:1285,5773
DA:1286,0
DA:1287,5773
DA:1288,2
DA:1289,5771
DA:1291,5771
DA:1292,0
DA:1293,5771
DA:1294,5771
DA:1295,5771
DA:1297,0
DA:1310,5831
DA:1312,5831
DA:1313,5831
DA:1314,5831
DA:1315,0
DA:1351,5771
DA:1353,5771
DA:1354,5771
DA:1355,0
DA:1376,5771
DA:1378,5771
DA:1379,5771
DA:1381,5771
DA:1382,5771
DA:1386,0
DA:1387,0
DA:1389,5771
DA:1393,11542
DA:1395,11542
DA:1396,11542
DA:1398,11542
DA:1399,11542
DA:1401,0
LF:67
LH:37
end_of_record
TN:
SF:/usr/include/c++/13/bits/invoke.h
FN:104,117,_ZSt10__invoke_rIbRNSt8__detail11_AnyMatcherINSt7__cxx1112regex_traitsIcEELb0ELb0ELb0EEEJcEENSt9enable_ifIX16is_invocable_r_vIT_T0_DpT1_EES8_E4typeEOS9_DpOSA_
FN:104,117,_ZSt10__invoke_rIbRNSt8__detail11_AnyMatcherINSt7__cxx1112regex_traitsIcEELb0ELb0ELb1EEEJcEENSt9enable_ifIX16is_invocable_r_vIT_T0_DpT1_EES8_E4typeEOS9_DpOSA_
FN:104,117,_ZSt10__invoke_rIbRNSt8__detail11_AnyMatcherINSt7__cxx1112regex_traitsIcEELb0ELb1ELb0EEEJcEENSt9enable_ifIX16is_invocable_r_vIT_T0_DpT1_EES8_E4typeEOS9_DpOSA_
FN:104,117,_ZSt10__invoke_rIbRNSt8__detail11_AnyMatcherINSt7__cxx1112regex_traitsIcEELb0ELb1ELb1EEEJcEENSt9enable_ifIX16is_invocable_r_vIT_T0_DpT1_EES8_E4typeEOS9_DpOSA_
FN:104,117,_ZSt10__invoke_rIbRNSt8__detail11_AnyMatcherINSt7__cxx1112regex_traitsIcEELb1ELb0ELb0EEEJcEENSt9enable_ifIX16is_invocable_r_vIT_T0_DpT1_EES8_E4typeEOS9_DpOSA_
FN:104,117,_ZSt10__invoke_rIbRNSt8__detail11_AnyMatcherINSt7__cxx1112regex_traitsIcEELb1ELb0ELb1EEEJcEENSt9enable_ifIX16is_invocable_r_vIT_T0_DpT1_EES8_E4typeEOS9_DpOSA_
FN:104,117,_ZSt10__invoke_rIbRNSt8__detail11_AnyMatcherINSt7__cxx1112regex_traitsIcEELb1ELb1ELb0EEEJcEENSt9enable_ifIX16is_invocable_r_vIT_T0_DpT1_EES8_E4typeEOS9_DpOSA_
FN:104,117,_ZSt10__invoke_rIbRNSt8__detail11_AnyMatcherINSt7__cxx1112regex_traitsIcEELb1ELb1ELb1EEEJcEENSt9enable_ifIX16is_invocable_r_vIT_T0_DpT1_EES8_E4typeEOS9_DpOSA_
FN:104,117,_ZSt10__invoke_rIbRNSt8__detail12_CharMatcherINSt7__cxx1112regex_traitsIcEELb0ELb0EEEJcEENSt9enable_ifIX16is_invocable_r_vIT_T0_DpT1_EES8_E4typeEOS9_DpOSA_
FN:104,117,_ZSt10__invoke_rIbRNSt8__detail12_CharMatcherINSt7__cxx1112regex_traitsIcEELb0ELb1EEEJcEENSt9enable_ifIX16is_invocable_r_vIT_T0_DpT1_EES8_E4typeEOS9_DpOSA_
FN:104,117,_ZSt10__invoke_rIbRNSt8__detail12_CharMatcherINSt7__cxx1112regex_traitsIcEELb1ELb0EEEJcEENSt9enable_ifIX16is_invocable_r_vIT_T0_DpT1_EES8_E4typeEOS9_DpOSA_
FN:104,117,_ZSt10__invoke_rIbRNSt8__detail12_CharMatcherINSt7__cxx1112regex_traitsIcEELb1ELb1EEEJcEENSt9enable_ifIX16is_invocable_r_vIT_T0_DpT1_EES8_E4typeEOS9_DpOSA_
FN:104,117,_ZSt10__invoke_rIbRNSt8__detail15_BracketMatcherINSt7__cxx1112regex_traitsIcEELb0ELb0EEEJcEENSt9enable_ifIX16is_invocable_r_vIT_T0_DpT1_EES8_E4typeEOS9_DpOSA_
FN:104,117,_ZSt10__invoke_rIbRNSt8__detail15_BracketMatcherINSt7__cxx1112regex_traitsIcEELb0ELb1EEEJcEENSt9enable_ifIX16is_invocable_r_vIT_T0_DpT1_EES8_E4typeEOS9_DpOSA_
FN:104,117,_ZSt10__invoke_rIbRNSt8__detail15_BracketMatcherINSt7__cxx1112regex_traitsIcEELb1ELb0EEEJcEENSt9enable_ifIX16is_invocable_r_vIT_T0_DpT1_EES8_E4typeEOS9_DpOSA_
FN:104,117,_ZSt10__invoke_rIbRNSt8__detail15_BracketMatcherINSt7__cxx1112regex_traitsIcEELb1ELb1EEEJcEENSt9enable_ifIX16is_invocable_r_vIT_T0_DpT1_EES8_E4typeEOS9_DpOSA_
FN:104,117,_ZSt10__invoke_rIvRZN12media_player11controllers16SourceControllerC4ESt10shared_ptrINS0_8services12IFileScannerEES3_INS0_12repositories17LibraryRepositoryEES3_INS0_6models12LibraryModelEEEUlSt6vectorINSA_14MediaFileModelESaISE_EEE_JSG_EENSt9enable_ifIX16is_invocable_r_vIT_T0_DpT1_EESK_E4typeEOSL_DpOSM_
FN:104,117,_ZSt10__invoke_rIvRZN12media_player11controllers16SourceControllerC4ESt10shared_ptrINS0_8services12IFileScannerEES3_INS0_12repositories17LibraryRepositoryEES3_INS0_6models12LibraryModelEEEUliRKNSt7__cxx1112basic_stringIcSt11char_traitsIcESaIcEEEE_JiSK_EENSt9enable_ifIX16is_invocable_r_vIT_T0_DpT1_EESO_E4typeEOSP_DpOSQ_
FN:104,117,_ZSt10__invoke_rIvRZN12media_player11controllers18HardwareControllerC4ESt10shared_ptrINS0_8services20ISerialCommunicationEES3_INS0_6models18PlaybackStateModelEEEUlRKNSt7__cxx1112basic_stringIcSt11char_traitsIcESaIcEEEE0_JSH_EENSt9enable_ifIX16is_invocable_r_vIT_T0_DpT1_EESL_E4typeEOSM_DpOSN_
FN:104,117,_ZSt10__invoke_rIvRZN12media_player11controllers18HardwareControllerC4ESt10shared_ptrINS0_8services20ISerialCommunicationEES3_INS0_6models18PlaybackStateModelEEEUlRKNSt7__cxx1112basic_stringIcSt11char_traitsIcESaIcEEEE_JSH_EENSt9enable_ifIX16is_invocable_r_vIT_T0_DpT1_EESL_E4typeEOSM_DpOSN_
FN:104,117,_ZSt10__invoke_rIvRZN12media_player11controllers18PlaybackController14setAudioEngineESt10unique_ptrINS0_8services15IPlaybackEngineESt14default_deleteIS5_EEEUlNS4_13PlaybackStateEE_JS9_EENSt9enable_ifIX16is_invocable_r_vIT_T0_DpT1_EESD_E4typeEOSE_DpOSF_
FN:104,117,_ZSt10__invoke_rIvRZN12media_player11controllers18PlaybackController14setAudioEngineESt10unique_ptrINS0_8services15IPlaybackEngineESt14default_deleteIS5_EEEUlRKNSt7__cxx1112basic_stringIcSt11char_traitsIcESaIcEEEE_JSG_EENSt9enable_ifIX16is_invocable_r_vIT_T0_DpT1_EESK_E4typeEOSL_DpOSM_
FN:104,117,_ZSt10__invoke_rIvRZN12media_player11controllers18PlaybackController14setAudioEngineESt10unique_ptrINS0_8services15IPlaybackEngineESt14default_deleteIS5_EEEUliiE_JiiEENSt9enable_ifIX16is_invocable_r_vIT_T0_DpT1_EESC_E4typeEOSD_DpOSE_
FN:104,117,_ZSt10__invoke_rIvRZN12media_player11controllers18PlaybackController14setAudioEngineESt10unique_ptrINS0_8services15IPlaybackEngineESt14default_deleteIS5_EEEUlvE_JEENSt9enable_ifIX16is_invocable_r_vIT_T0_DpT1_EESC_E4typeEOSD_DpOSE_
FN:104,117,_ZSt10__invoke_rIvRZN12media_player11controllers18PlaybackControllerC4ESt10shared_ptrINS0_6models10QueueModelEES3_INS4_18PlaybackStateModelEES3_INS4_12HistoryModelEEEUlNS0_8services13PlaybackStateEE_JSC_EENSt9enable_ifIX16is_invocable_r_vIT_T0_DpT1_EESG_E4typeEOSH_DpOSI_
FN:104,117,_ZSt10__invoke_rIvRZN12media_player11controllers18PlaybackControllerC4ESt10shared_ptrINS0_6models10QueueModelEES3_INS4_18PlaybackStateModelEES3_INS4_12HistoryModelEEEUlRKNSt7__cxx1112basic_stringIcSt11char_traitsIcESaIcEEEE_JSI_EENSt9enable_ifIX16is_invocable_r_vIT_T0_DpT1_EESM_E4typeEOSN_DpOSO_
FN:104,117,_ZSt10__invoke_rIvRZN12media_player11controllers18PlaybackControllerC4ESt10shared_ptrINS0_6models10QueueModelEES3_INS4_18PlaybackStateModelEES3_INS4_12HistoryModelEEEUliiE_JiiEENSt9enable_ifIX16is_invocable_r_vIT_T0_DpT1_EESE_E4typeEOSF_DpOSG_
FN:104,117,_ZSt10__invoke_rIvRZN12media_player11controllers18PlaybackControllerC4ESt10shared_ptrINS0_6models10QueueModelEES3_INS4_18PlaybackStateModelEES3_INS4_12HistoryModelEEEUlvE_JEENSt9enable_ifIX16is_invocable_r_vIT_T0_DpT1_EESE_E4typeEOSF_DpOSG_
FN:60,61,_ZSt13__invoke_implIbRNSt8__detail11_AnyMatcherINSt7__cxx1112regex_traitsIcEELb0ELb0ELb0EEEJcEET_St14__invoke_otherOT0_DpOT1_
FN:60,61,_ZSt13__invoke_implIbRNSt8__detail11_AnyMatcherINSt7__cxx1112regex_traitsIcEELb0ELb0ELb1EEEJcEET_St14__invoke_otherOT0_DpOT1_
FN:60,61,_ZSt13__invoke_implIbRNSt8__detail11_AnyMatcherINSt7__cxx1112regex_traitsIcEELb0ELb1ELb0EEEJcEET_St14__invoke_otherOT0_DpOT1_
FN:60,61,_ZSt13__invoke_implIbRNSt8__detail11_AnyMatcherINSt7__cxx1112regex_traitsIcEELb0ELb1ELb1EEEJcEET_St14__invoke_otherOT0_DpOT1_
FN:60,61,_ZSt13__invoke_implIbRNSt8__detail11_AnyMatcherINSt7__cxx1112regex_traitsIcEELb1ELb0ELb0EEEJcEET_St14__invoke_otherOT0_DpOT1_
FN:60,61,_ZSt13__invoke_implIbRNSt8__detail11_AnyMatcherINSt7__cxx1112regex_traitsIcEELb1ELb0ELb1EEEJcEET_St14__invoke_otherOT0_DpOT1_
FN:60,61,_ZSt13__invoke_implIbRNSt8__detail11_AnyMatcherINSt7__cxx1112regex_traitsIcEELb1ELb1ELb0EEEJcEET_St14__invoke_otherOT0_DpOT1_
FN:60,61,_ZSt13__invoke_implIbRNSt8__detail11_AnyMatcherINSt7__cxx1112regex_traitsIcEELb1ELb1ELb1EEEJcEET_St14__invoke_otherOT0_DpOT1_
FN:60,61,_ZSt13__invoke_implIbRNSt8__detail12_CharMatcherINSt7__cxx1112regex_traitsIcEELb0ELb0EEEJcEET_St14__invoke_otherOT0_DpOT1_
FN:60,61,_ZSt13__invoke_implIbRNSt8__detail12_CharMatcherINSt7__cxx1112regex_traitsIcEELb0ELb1EEEJcEET_St14__invoke_otherOT0_DpOT1_
FN:60,61,_ZSt13__invoke_implIbRNSt8__detail12_CharMatcherINSt7__cxx1112regex_traitsIcEELb1ELb0EEEJcEET_St14__invoke_otherOT0_DpOT1_
FN:60,61,_ZSt13__invoke_implIbRNSt8__detail12_CharMatcherINSt7__cxx1112regex_traitsIcEELb1ELb1EEEJcEET_St14__invoke_otherOT0_DpOT1_
FN:60,61,_ZSt13__invoke_implIbRNSt8__detail15_BracketMatcherINSt7__cxx1112regex_traitsIcEELb0ELb0EEEJcEET_St14__invoke_otherOT0_DpOT1_
FN:60,61,_ZSt13__invoke_implIbRNSt8__detail15_BracketMatcherINSt7__cxx1112regex_traitsIcEELb0ELb1EEEJcEET_St14__invoke_otherOT0_DpOT1_
FN:60,61,_ZSt13__invoke_implIbRNSt8__detail15_BracketMatcherINSt7__cxx1112regex_traitsIcEELb1ELb0EEEJcEET_St14__invoke_otherOT0_DpOT1_
FN:60,61,_ZSt13__invoke_implIbRNSt8__detail15_BracketMatcherINSt7__cxx1112regex_traitsIcEELb1ELb1EEEJcEET_St14__invoke_otherOT0_DpOT1_
FN:60,61,_ZSt13__invoke_implIvRZN12media_player11controllers16SourceControllerC4ESt10shared_ptrINS0_8services12IFileScannerEES3_INS0_12repositories17LibraryRepositoryEES3_INS0_6models12LibraryModelEEEUlSt6vectorINSA_14MediaFileModelESaISE_EEE_JSG_EET_St14__invoke_otherOT0_DpOT1_
FN:60,61,_ZSt13__invoke_implIvRZN12media_player11controllers16SourceControllerC4ESt10shared_ptrINS0_8services12IFileScannerEES3_INS0_12repositories17LibraryRepositoryEES3_INS0_6models12LibraryModelEEEUliRKNSt7__cxx1112basic_stringIcSt11char_traitsIcESaIcEEEE_JiSK_EET_St14__invoke_otherOT0_DpOT1_
FN:60,61,_ZSt13__invoke_implIvRZN12media_player11controllers18HardwareControllerC4ESt10shared_ptrINS0_8services20ISerialCommunicationEES3_INS0_6models18PlaybackStateModelEEEUlRKNSt7__cxx1112basic_stringIcSt11char_traitsIcESaIcEEEE0_JSH_EET_St14__invoke_otherOT0_DpOT1_
FN:60,61,_ZSt13__invoke_implIvRZN12media_player11controllers18HardwareControllerC4ESt10shared_ptrINS0_8services20ISerialCommunicationEES3_INS0_6models18PlaybackStateModelEEEUlRKNSt7__cxx1112basic_stringIcSt11char_traitsIcESaIcEEEE_JSH_EET_St14__invoke_otherOT0_DpOT1_
FN:60,61,_ZSt13__invoke_implIvRZN12media_player11controllers18PlaybackController14setAudioEngineESt10unique_ptrINS0_8services15IPlaybackEngineESt14default_deleteIS5_EEEUlNS4_13PlaybackStateEE_JS9_EET_St14__invoke_otherOT0_DpOT1_
FN:60,61,_ZSt13__invoke_implIvRZN12media_player11controllers18PlaybackController14setAudioEngineESt10unique_ptrINS0_8services15IPlaybackEngineESt14default_deleteIS5_EEEUlRKNSt7__cxx1112basic_stringIcSt11char_traitsIcESaIcEEEE_JSG_EET_St14__invoke_otherOT0_DpOT1_
FN:60,61,_ZSt13__invoke_implIvRZN12media_player11controllers18PlaybackController14setAudioEngineESt10unique_ptrINS0_8services15IPlaybackEngineESt14default_deleteIS5_EEEUliiE_JiiEET_St14__invoke_otherOT0_DpOT1_
FN:60,61,_ZSt13__invoke_implIvRZN12media_player11controllers18PlaybackController14setAudioEngineESt10unique_ptrINS0_8services15IPlaybackEngineESt14default_deleteIS5_EEEUlvE_JEET_St14__invoke_otherOT0_DpOT1_
FN:60,61,_ZSt13__invoke_implIvRZN12media_player11controllers18PlaybackControllerC4ESt10shared_ptrINS0_6models10QueueModelEES3_INS4_18PlaybackStateModelEES3_INS4_12HistoryModelEEEUlNS0_8services13PlaybackStateEE_JSC_EET_St14__invoke_otherOT0_DpOT1_
FN:60,61,_ZSt13__invoke_implIvRZN12media_player11controllers18PlaybackControllerC4ESt10shared_ptrINS0_6models10QueueModelEES3_INS4_18PlaybackStateModelEES3_INS4_12HistoryModelEEEUlRKNSt7__cxx1112basic_stringIcSt11char_traitsIcESaIcEEEE_JSI_EET_St14__invoke_otherOT0_DpOT1_
FN:60,61,_ZSt13__invoke_implIvRZN12media_player11controllers18PlaybackControllerC4ESt10shared_ptrINS0_6models10QueueModelEES3_INS4_18PlaybackStateModelEES3_INS4_12HistoryModelEEEUliiE_JiiEET_St14__invoke_otherOT0_DpOT1_
FN:60,61,_ZSt13__invoke_implIvRZN12media_player11controllers18PlaybackControllerC4ESt10shared_ptrINS0_6models10QueueModelEES3_INS4_18PlaybackStateModelEES3_INS4_12HistoryModelEEEUlvE_JEET_St14__invoke_otherOT0_DpOT1_
FN:60,61,_ZSt13__invoke_implIvZN12media_player11controllers18HardwareController11autoConnectEvEUlvE_JEET_St14__invoke_otherOT0_DpOT1_
FN:71,75,_ZSt13__invoke_implIvMN12media_player11controllers16SourceControllerEFvvEPS2_JEET_St21__invoke_memfun_derefOT0_OT1_DpOT2_
FN:90,98,_ZSt8__invokeIMN12media_player11controllers16SourceControllerEFvvEJPS2_EENSt15__invoke_resultIT_JDpT0_EE4typeEOS7_DpOS8_
FN:90,98,_ZSt8__invokeIZN12media_player11controllers18HardwareController11autoConnectEvEUlvE_JEENSt15__invoke_resultIT_JDpT0_EE4typeEOS5_DpOS6_
FNDA:0,_ZSt10__invoke_rIbRNSt8__detail11_AnyMatcherINSt7__cxx1112regex_traitsIcEELb0ELb0ELb0EEEJcEENSt9enable_ifIX16is_invocable_r_vIT_T0_DpT1_EES8_E4typeEOS9_DpOSA_
FNDA:0,_ZSt10__invoke_rIbRNSt8__detail11_AnyMatcherINSt7__cxx1112regex_traitsIcEELb0ELb0ELb1EEEJcEENSt9enable_ifIX16is_invocable_r_vIT_T0_DpT1_EES8_E4typeEOS9_DpOSA_
FNDA:0,_ZSt10__invoke_rIbRNSt8__detail11_AnyMatcherINSt7__cxx1112regex_traitsIcEELb0ELb1ELb0EEEJcEENSt9enable_ifIX16is_invocable_r_vIT_T0_DpT1_EES8_E4typeEOS9_DpOSA_
FNDA:0,_ZSt10__invoke_rIbRNSt8__detail11_AnyMatcherINSt7__cxx1112regex_traitsIcEELb0ELb1ELb1EEEJcEENSt9enable_ifIX16is_invocable_r_vIT_T0_DpT1_EES8_E4typeEOS9_DpOSA_
FNDA:0,_ZSt10__invoke_rIbRNSt8__detail11_AnyMatcherINSt7__cxx1112regex_traitsIcEELb1ELb0ELb0EEEJcEENSt9enable_ifIX16is_invocable_r_vIT_T0_DpT1_EES8_E4typeEOS9_DpOSA_
FNDA:0,_ZSt10__invoke_rIbRNSt8__detail11_AnyMatcherINSt7__cxx1112regex_traitsIcEELb1ELb0ELb1EEEJcEENSt9enable_ifIX16is_invocable_r_vIT_T0_DpT1_EES8_E4typeEOS9_DpOSA_
FNDA:0,_ZSt10__invoke_rIbRNSt8__detail11_AnyMatcherINSt7__cxx1112regex_traitsIcEELb1ELb1ELb0EEEJcEENSt9enable_ifIX16is_invocable_r_vIT_T0_DpT1_EES8_E4typeEOS9_DpOSA_
FNDA:0,_ZSt10__invoke_rIbRNSt8__detail11_AnyMatcherINSt7__cxx1112regex_traitsIcEELb1ELb1ELb1EEEJcEENSt9enable_ifIX16is_invocable_r_vIT_T0_DpT1_EES8_E4typeEOS9_DpOSA_
FNDA:104,_ZSt10__invoke_rIbRNSt8__detail12_CharMatcherINSt7__cxx1112regex_traitsIcEELb0ELb0EEEJcEENSt9enable_ifIX16is_invocable_r_vIT_T0_DpT1_EES8_E4typeEOS9_DpOSA_
FNDA:0,_ZSt10__invoke_rIbRNSt8__detail12_CharMatcherINSt7__cxx1112regex_traitsIcEELb0ELb1EEEJcEENSt9enable_ifIX16is_invocable_r_vIT_T0_DpT1_EES8_E4typeEOS9_DpOSA_
FNDA:0,_ZSt10__invoke_rIbRNSt8__detail12_CharMatcherINSt7__cxx1112regex_traitsIcEELb1ELb0EEEJcEENSt9enable_ifIX16is_invocable_r_vIT_T0_DpT1_EES8_E4typeEOS9_DpOSA_
FNDA:0,_ZSt10__invoke_rIbRNSt8__detail12_CharMatcherINSt7__cxx1112regex_traitsIcEELb1ELb1EEEJcEENSt9enable_ifIX16is_invocable_r_vIT_T0_DpT1_EES8_E4typeEOS9_DpOSA_
FNDA:90,_ZSt10__invoke_rIbRNSt8__detail15_BracketMatcherINSt7__cxx1112regex_traitsIcEELb0ELb0EEEJcEENSt9enable_ifIX16is_invocable_r_vIT_T0_DpT1_EES8_E4typeEOS9_DpOSA_
FNDA:0,_ZSt10__invoke_rIbRNSt8__detail15_BracketMatcherINSt7__cxx1112regex_traitsIcEELb0ELb1EEEJcEENSt9enable_ifIX16is_invocable_r_vIT_T0_DpT1_EES8_E4typeEOS9_DpOSA_
FNDA:0,_ZSt10__invoke_rIbRNSt8__detail15_BracketMatcherINSt7__cxx1112regex_traitsIcEELb1ELb0EEEJcEENSt9enable_ifIX16is_invocable_r_vIT_T0_DpT1_EES8_E4typeEOS9_DpOSA_
FNDA:0,_ZSt10__invoke_rIbRNSt8__detail15_BracketMatcherINSt7__cxx1112regex_traitsIcEELb1ELb1EEEJcEENSt9enable_ifIX16is_invocable_r_vIT_T0_DpT1_EES8_E4typeEOS9_DpOSA_
FNDA:2,_ZSt10__invoke_rIvRZN12media_player11controllers16SourceControllerC4ESt10shared_ptrINS0_8services12IFileScannerEES3_INS0_12repositories17LibraryRepositoryEES3_INS0_6models12LibraryModelEEEUlSt6vectorINSA_14MediaFileModelESaISE_EEE_JSG_EENSt9enable_ifIX16is_invocable_r_vIT_T0_DpT1_EESK_E4typeEOSL_DpOSM_
FNDA:2,_ZSt10__invoke_rIvRZN12media_player11controllers16SourceControllerC4ESt10shared_ptrINS0_8services12IFileScannerEES3_INS0_12repositories17LibraryRepositoryEES3_INS0_6models12LibraryModelEEEUliRKNSt7__cxx1112basic_stringIcSt11char_traitsIcESaIcEEEE_JiSK_EENSt9enable_ifIX16is_invocable_r_vIT_T0_DpT1_EESO_E4typeEOSP_DpOSQ_
FNDA:1,_ZSt10__invoke_rIvRZN12media_player11controllers18HardwareControllerC4ESt10shared_ptrINS0_8services20ISerialCommunicationEES3_INS0_6models18PlaybackStateModelEEEUlRKNSt7__cxx1112basic_stringIcSt11char_traitsIcESaIcEEEE0_JSH_EENSt9enable_ifIX16is_invocable_r_vIT_T0_DpT1_EESL_E4typeEOSM_DpOSN_
FNDA:19,_ZSt10__invoke_rIvRZN12media_player11controllers18HardwareControllerC4ESt10shared_ptrINS0_8services20ISerialCommunicationEES3_INS0_6models18PlaybackStateModelEEEUlRKNSt7__cxx1112basic_stringIcSt11char_traitsIcESaIcEEEE_JSH_EENSt9enable_ifIX16is_invocable_r_vIT_T0_DpT1_EESL_E4typeEOSM_DpOSN_
FNDA:133,_ZSt10__invoke_rIvRZN12media_player11controllers18PlaybackController14setAudioEngineESt10unique_ptrINS0_8services15IPlaybackEngineESt14default_deleteIS5_EEEUlNS4_13PlaybackStateEE_JS9_EENSt9enable_ifIX16is_invocable_r_vIT_T0_DpT1_EESD_E4typeEOSE_DpOSF_
FNDA:1,_ZSt10__invoke_rIvRZN12media_player11controllers18PlaybackController14setAudioEngineESt10unique_ptrINS0_8services15IPlaybackEngineESt14default_deleteIS5_EEEUlRKNSt7__cxx1112basic_stringIcSt11char_traitsIcESaIcEEEE_JSG_EENSt9enable_ifIX16is_invocable_r_vIT_T0_DpT1_EESK_E4typeEOSL_DpOSM_
FNDA:2,_ZSt10__invoke_rIvRZN12media_player11controllers18PlaybackController14setAudioEngineESt10unique_ptrINS0_8services15IPlaybackEngineESt14default_deleteIS5_EEEUliiE_JiiEENSt9enable_ifIX16is_invocable_r_vIT_T0_DpT1_EESC_E4typeEOSD_DpOSE_
FNDA:9,_ZSt10__invoke_rIvRZN12media_player11controllers18PlaybackController14setAudioEngineESt10unique_ptrINS0_8services15IPlaybackEngineESt14default_deleteIS5_EEEUlvE_JEENSt9enable_ifIX16is_invocable_r_vIT_T0_DpT1_EESC_E4typeEOSD_DpOSE_
FNDA:0,_ZSt10__invoke_rIvRZN12media_player11controllers18PlaybackControllerC4ESt10shared_ptrINS0_6models10QueueModelEES3_INS4_18PlaybackStateModelEES3_INS4_12HistoryModelEEEUlNS0_8services13PlaybackStateEE_JSC_EENSt9enable_ifIX16is_invocable_r_vIT_T0_DpT1_EESG_E4typeEOSH_DpOSI_
FNDA:0,_ZSt10__invoke_rIvRZN12media_player11controllers18PlaybackControllerC4ESt10shared_ptrINS0_6models10QueueModelEES3_INS4_18PlaybackStateModelEES3_INS4_12HistoryModelEEEUlRKNSt7__cxx1112basic_stringIcSt11char_traitsIcESaIcEEEE_JSI_EENSt9enable_ifIX16is_invocable_r_vIT_T0_DpT1_EESM_E4typeEOSN_DpOSO_
FNDA:0,_ZSt10__invoke_rIvRZN12media_player11controllers18PlaybackControllerC4ESt10shared_ptrINS0_6models10QueueModelEES3_INS4_18PlaybackStateModelEES3_INS4_12HistoryModelEEEUliiE_JiiEENSt9enable_ifIX16is_invocable_r_vIT_T0_DpT1_EESE_E4typeEOSF_DpOSG_
FNDA:0,_ZSt10__invoke_rIvRZN12media_player11controllers18PlaybackControllerC4ESt10shared_ptrINS0_6models10QueueModelEES3_INS4_18PlaybackStateModelEES3_INS4_12HistoryModelEEEUlvE_JEENSt9enable_ifIX16is_invocable_r_vIT_T0_DpT1_EESE_E4typeEOSF_DpOSG_
FNDA:0,_ZSt13__invoke_implIbRNSt8__detail11_AnyMatcherINSt7__cxx1112regex_traitsIcEELb0ELb0ELb0EEEJcEET_St14__invoke_otherOT0_DpOT1_
FNDA:0,_ZSt13__invoke_implIbRNSt8__detail11_AnyMatcherINSt7__cxx1112regex_traitsIcEELb0ELb0ELb1EEEJcEET_St14__invoke_otherOT0_DpOT1_
FNDA:0,_ZSt13__invoke_implIbRNSt8__detail11_AnyMatcherINSt7__cxx1112regex_traitsIcEELb0ELb1ELb0EEEJcEET_St14__invoke_otherOT0_DpOT1_
FNDA:0,_ZSt13__invoke_implIbRNSt8__detail11_AnyMatcherINSt7__cxx1112regex_traitsIcEELb0ELb1ELb1EEEJcEET_St14__invoke_otherOT0_DpOT1_
FNDA:0,_ZSt13__invoke_implIbRNSt8__detail11_AnyMatcherINSt7__cxx1112regex_traitsIcEELb1ELb0ELb0EEEJcEET_St14__invoke_otherOT0_DpOT1_
FNDA:0,_ZSt13__invoke_implIbRNSt8__detail11_AnyMatcherINSt7__cxx1112regex_traitsIcEELb1ELb0ELb1EEEJcEET_St14__invoke_otherOT0_DpOT1_
FNDA:0,_ZSt13__invoke_implIbRNSt8__detail11_AnyMatcherINSt7__cxx1112regex_traitsIcEELb1ELb1ELb0EEEJcEET_St14__invoke_otherOT0_DpOT1_
FNDA:0,_ZSt13__invoke_implIbRNSt8__detail11_AnyMatcherINSt7__cxx1112regex_traitsIcEELb1ELb1ELb1EEEJcEET_St14__invoke_otherOT0_DpOT1_
FNDA:104,_ZSt13__invoke_implIbRNSt8__detail12_CharMatcherINSt7__cxx1112regex_traitsIcEELb0ELb0EEEJcEET_St14__invoke_otherOT0_DpOT1_
FNDA:0,_ZSt13__invoke_implIbRNSt8__detail12_CharMatcherINSt7__cxx1112regex_traitsIcEELb0ELb1EEEJcEET_St14__invoke_otherOT0_DpOT1_
FNDA:0,_ZSt13__invoke_implIbRNSt8__detail12_CharMatcherINSt7__cxx1112regex_traitsIcEELb1ELb0EEEJcEET_St14__invoke_otherOT0_DpOT1_
FNDA:0,_ZSt13__invoke_implIbRNSt8__detail12_CharMatcherINSt7__cxx1112regex_traitsIcEELb1ELb1EEEJcEET_St14__invoke_otherOT0_DpOT1_
FNDA:90,_ZSt13__invoke_implIbRNSt8__detail15_BracketMatcherINSt7__cxx1112regex_traitsIcEELb0ELb0EEEJcEET_St14__invoke_otherOT0_DpOT1_
FNDA:0,_ZSt13__invoke_implIbRNSt8__detail15_BracketMatcherINSt7__cxx1112regex_traitsIcEELb0ELb1EEEJcEET_St14__invoke_otherOT0_DpOT1_
FNDA:0,_ZSt13__invoke_implIbRNSt8__detail15_BracketMatcherINSt7__cxx1112regex_traitsIcEELb1ELb0EEEJcEET_St14__invoke_otherOT0_DpOT1_
FNDA:0,_ZSt13__invoke_implIbRNSt8__detail15_BracketMatcherINSt7__cxx1112regex_traitsIcEELb1ELb1EEEJcEET_St14__invoke_otherOT0_DpOT1_
FNDA:2,_ZSt13__invoke_implIvRZN12media_player11controllers16SourceControllerC4ESt10shared_ptrINS0_8services12IFileScannerEES3_INS0_12repositories17LibraryRepositoryEES3_INS0_6models12LibraryModelEEEUlSt6vectorINSA_14MediaFileModelESaISE_EEE_JSG_EET_St14__invoke_otherOT0_DpOT1_
FNDA:2,_ZSt13__invoke_implIvRZN12media_player11controllers16SourceControllerC4ESt10shared_ptrINS0_8services12IFileScannerEES3_INS0_12repositories17LibraryRepositoryEES3_INS0_6models12LibraryModelEEEUliRKNSt7__cxx1112basic_stringIcSt11char_traitsIcESaIcEEEE_JiSK_EET_St14__invoke_otherOT0_DpOT1_
FNDA:1,_ZSt13__invoke_implIvRZN12media_player11controllers18HardwareControllerC4ESt10shared_ptrINS0_8services20ISerialCommunicationEES3_INS0_6models18PlaybackStateModelEEEUlRKNSt7__cxx1112basic_stringIcSt11char_traitsIcESaIcEEEE0_JSH_EET_St14__invoke_otherOT0_DpOT1_
FNDA:19,_ZSt13__invoke_implIvRZN12media_player11controllers18HardwareControllerC4ESt10shared_ptrINS0_8services20ISerialCommunicationEES3_INS0_6models18PlaybackStateModelEEEUlRKNSt7__cxx1112basic_stringIcSt11char_traitsIcESaIcEEEE_JSH_EET_St14__invoke_otherOT0_DpOT1_
FNDA:133,_ZSt13__invoke_implIvRZN12media_player11controllers18PlaybackController14setAudioEngineESt10unique_ptrINS0_8services15IPlaybackEngineESt14default_deleteIS5_EEEUlNS4_13PlaybackStateEE_JS9_EET_St14__invoke_otherOT0_DpOT1_
FNDA:1,_ZSt13__invoke_implIvRZN12media_player11controllers18PlaybackController14setAudioEngineESt10unique_ptrINS0_8services15IPlaybackEngineESt14default_deleteIS5_EEEUlRKNSt7__cxx1112basic_stringIcSt11char_traitsIcESaIcEEEE_JSG_EET_St14__invoke_otherOT0_DpOT1_
FNDA:2,_ZSt13__invoke_implIvRZN12media_player11controllers18PlaybackController14setAudioEngineESt10unique_ptrINS0_8services15IPlaybackEngineESt14default_deleteIS5_EEEUliiE_JiiEET_St14__invoke_otherOT0_DpOT1_
FNDA:9,_ZSt13__invoke_implIvRZN12media_player11controllers18PlaybackController14setAudioEngineESt10unique_ptrINS0_8services15IPlaybackEngineESt14default_deleteIS5_EEEUlvE_JEET_St14__invoke_otherOT0_DpOT1_
FNDA:0,_ZSt13__invoke_implIvRZN12media_player11controllers18PlaybackControllerC4ESt10shared_ptrINS0_6models10QueueModelEES3_INS4_18PlaybackStateModelEES3_INS4_12HistoryModelEEEUlNS0_8services13PlaybackStateEE_JSC_EET_St14__invoke_otherOT0_DpOT1_
FNDA:0,_ZSt13__invoke_implIvRZN12media_player11controllers18PlaybackControllerC4ESt10shared_ptrINS0_6models10QueueModelEES3_INS4_18PlaybackStateModelEES3_INS4_12HistoryModelEEEUlRKNSt7__cxx1112basic_stringIcSt11char_traitsIcESaIcEEEE_JSI_EET_St14__invoke_otherOT0_DpOT1_
FNDA:0,_ZSt13__invoke_implIvRZN12media_player11controllers18PlaybackControllerC4ESt10shared_ptrINS0_6models10QueueModelEES3_INS4_18PlaybackStateModelEES3_INS4_12HistoryModelEEEUliiE_JiiEET_St14__invoke_otherOT0_DpOT1_
FNDA:0,_ZSt13__invoke_implIvRZN12media_player11controllers18PlaybackControllerC4ESt10shared_ptrINS0_6models10QueueModelEES3_INS4_18PlaybackStateModelEES3_INS4_12HistoryModelEEEUlvE_JEET_St14__invoke_otherOT0_DpOT1_
FNDA:3,_ZSt13__invoke_implIvZN12media_player11controllers18HardwareController11autoConnectEvEUlvE_JEET_St14__invoke_otherOT0_DpOT1_
FNDA:2,_ZSt13__invoke_implIvMN12media_player11controllers16SourceControllerEFvvEPS2_JEET_St21__invoke_memfun_derefOT0_OT1_DpOT2_
FNDA:2,_ZSt8__invokeIMN12media_player11controllers16SourceControllerEFvvEJPS2_EENSt15__invoke_resultIT_JDpT0_EE4typeEOS7_DpOS8_
FNDA:3,_ZSt8__invokeIZN12media_player11controllers18HardwareController11autoConnectEvEUlvE_JEENSt15__invoke_resultIT_JDpT0_EE4typeEOS5_DpOS6_
FNF:60
FNH:24
BRDA:61,0,0,2
BRDA:61,e0,1,0
BRDA:74,0,0,0
BRDA:74,0,1,2
BRF:4
BRH:2
DA:60,366
DA:61,366
DA:71,2
DA:74,2
DA:90,5
DA:96,5
DA:97,5
DA:104,363
DA:111,169
DA:114,194
DA:116,194
DA:117,169
LF:12
LH:12
end_of_record
TN:
SF:/usr/include/c++/13/bits/ios_base.h
FN:103,104,_ZStaNRSt13_Ios_FmtflagsS_
FN:1067,1071,_ZSt3hexRSt8ios_base
FN:1075,1079,_ZSt3octRSt8ios_base
FN:706,712,_ZNSt8ios_base4setfESt13_Ios_FmtflagsS0_
FN:83,84,_ZStanSt13_Ios_FmtflagsS_
FN:87,88,_ZStorSt13_Ios_FmtflagsS_
FN:95,96,_ZStcoSt13_Ios_Fmtflags
FN:99,100,_ZStoRRSt13_Ios_FmtflagsS_
FNDA:0,_ZStaNRSt13_Ios_FmtflagsS_
FNDA:0,_ZSt3hexRSt8ios_base
FNDA:0,_ZSt3octRSt8ios_base
FNDA:0,_ZNSt8ios_base4setfESt13_Ios_FmtflagsS0_
FNDA:0,_ZStanSt13_Ios_FmtflagsS_
FNDA:0,_ZStorSt13_Ios_FmtflagsS_
FNDA:0,_ZStcoSt13_Ios_Fmtflags
FNDA:0,_ZStoRRSt13_Ios_FmtflagsS_
FNF:8
FNH:0
DA:83,0
DA:84,0
DA:87,0
DA:88,0
DA:95,0
DA:96,0
DA:99,0
DA:100,0
DA:103,0
DA:104,0
DA:706,0
DA:708,0
DA:709,0
DA:710,0
DA:711,0
DA:1067,0
DA:1069,0
DA:1070,0
DA:1075,0
DA:1077,0
DA:1078,0
LF:21
LH:0
end_of_record
TN:
SF:/usr/include/c++/13/bits/locale_classes.tcc
FN:192,203,_ZSt9use_facetIKSt5ctypeIcEERKT_RKSt6locale
FN:92,147,_ZSt15__try_use_facetIKSt5ctypeIcEEPKT_RKSt6locale
FNDA:2,_ZSt9use_facetIKSt5ctypeIcEERKT_RKSt6locale
FNDA:2,_ZSt15__try_use_facetIKSt5ctypeIcEEPKT_RKSt6locale
FNF:2
FNH:2
BRDA:139,0,0,2
BRDA:139,0,1,0
BRDA:139,0,2,0
BRDA:139,0,3,2
BRDA:143,0,0,2
BRDA:143,0,1,0
BRDA:200,0,0,2
BRDA:200,0,1,0
BRF:8
BRH:4
DA:92,2
DA:94,2
DA:95,2
DA:139,2
DA:140,0
DA:143,2
DA:192,2
DA:200,2
DA:201,2
DA:202,0
LF:10
LH:8
end_of_record
TN:
SF:/usr/include/c++/13/bits/locale_facets.h
FN:810,811,_ZNKSt5ctypeIcE7toupperEc
FN:843,844,_ZNKSt5ctypeIcE7tolowerEc
FN:860,861,_ZNKSt5ctypeIcE7tolowerEPcPKc
FN:880,886,_ZNKSt5ctypeIcE5widenEc
FN:939,947,_ZNKSt5ctypeIcE6narrowEcc
FNDA:0,_ZNKSt5ctypeIcE7toupperEc
FNDA:6,_ZNKSt5ctypeIcE7tolowerEc
FNDA:1492,_ZNKSt5ctypeIcE7tolowerEPcPKc
FNDA:0,_ZNKSt5ctypeIcE5widenEc
FNDA:44,_ZNKSt5ctypeIcE6narrowEcc
FNF:5
FNH:3
BRDA:882,0,0,-
BRDA:882,0,1,-
BRDA:941,0,0,29
BRDA:941,0,1,15
BRDA:944,0,0,15
BRDA:944,0,1,0
BRF:6
BRH:3
DA:810,0
DA:811,0
DA:843,6
DA:844,6
DA:860,1492
DA:861,1492
DA:880,0
DA:882,0
DA:883,0
DA:884,0
DA:885,0
DA:939,44
DA:941,44
DA:942,29
DA:943,15
DA:944,15
DA:945,15
DA:946,15
LF:18
LH:11
end_of_record
TN:
SF:/usr/include/c++/13/bits/move.h
FN:189,200,_ZSt4swapINSt6thread2idEENSt9enable_ifIXsrSt6__and_IJSt6__not_ISt15__is_tuple_likeIT_EESt21is_move_constructibleIS6_ESt18is_move_assignableIS6_EEE5valueEvE4typeERS6_SG_
FN:189,200,_ZSt4swapIPFbRKSt9_Any_dataOcEENSt9enable_ifIXsrSt6__and_IJSt6__not_ISt15__is_tuple_likeIT_EESt21is_move_constructibleISA_ESt18is_move_assignableISA_EEE5valueEvE4typeERSA_SK_
FN:189,200,_ZSt4swapIPFbRSt9_Any_dataRKS0_St18_Manager_operationEENSt9enable_ifIXsrSt6__and_IJSt6__not_ISt15__is_tuple_likeIT_EESt21is_move_constructibleISB_ESt18is_move_assignableISB_EEE5valueEvE4typeERSB_SL_
FN:189,200,_ZSt4swapIPFvRKSt9_Any_dataON12media_player11controllers14HardwareButtonEEENSt9enable_ifIXsrSt6__and_IJSt6__not_ISt15__is_tuple_likeIT_EESt21is_move_constructibleISD_ESt18is_move_assignableISD_EEE5valueEvE4typeERSD_SN_
FN:189,200,_ZSt4swapIPFvRKSt9_Any_dataOiEENSt9enable_ifIXsrSt6__and_IJSt6__not_ISt15__is_tuple_likeIT_EESt21is_move_constructibleISA_ESt18is_move_assignableISA_EEE5valueEvE4typeERSA_SK_
FN:189,200,_ZSt4swapIPFvRKSt9_Any_dataOiRKNSt7__cxx1112basic_stringIcSt11char_traitsIcESaIcEEEEENSt9enable_ifIXsrSt6__and_IJSt6__not_ISt15__is_tuple_likeIT_EESt21is_move_constructibleISI_ESt18is_move_assignableISI_EEE5valueEvE4typeERSI_SS_
FN:189,200,_ZSt4swapIPFvRKSt9_Any_dataRKNSt7__cxx1112basic_stringIcSt11char_traitsIcESaIcEEEEENSt9enable_ifIXsrSt6__and_IJSt6__not_ISt15__is_tuple_likeIT_EESt21is_move_constructibleISH_ESt18is_move_assignableISH_EEE5valueEvE4typeERSH_SR_
FN:189,200,_ZSt4swapIPKNSt8__detail4_NFAINSt7__cxx1112regex_traitsIcEEEEENSt9enable_ifIXsrSt6__and_IJSt6__not_ISt15__is_tuple_likeIT_EESt21is_move_constructibleISC_ESt18is_move_assignableISC_EEE5valueEvE4typeERSC_SM_
FN:189,200,_ZSt4swapISt6localeENSt9enable_ifIXsrSt6__and_IJSt6__not_ISt15__is_tuple_likeIT_EESt21is_move_constructibleIS5_ESt18is_move_assignableIS5_EEE5valueEvE4typeERS5_SF_
FN:189,200,_ZSt4swapISt9_Any_dataENSt9enable_ifIXsrSt6__and_IJSt6__not_ISt15__is_tuple_likeIT_EESt21is_move_constructibleIS5_ESt18is_move_assignableIS5_EEE5valueEvE4typeERS5_SF_
FN:189,200,_ZSt4swapIcENSt9enable_ifIXsrSt6__and_IJSt6__not_ISt15__is_tuple_likeIT_EESt21is_move_constructibleIS4_ESt18is_move_assignableIS4_EEE5valueEvE4typeERS4_SE_
FN:189,200,_ZSt4swapIlENSt9enable_ifIXsrSt6__and_IJSt6__not_ISt15__is_tuple_likeIT_EESt21is_move_constructibleIS4_ESt18is_move_assignableIS4_EEE5valueEvE4typeERS4_SE_
FN:51,52,_ZSt11__addressofIKNSt10filesystem7__cxx114pathEEPT_RS4_
FN:51,52,_ZSt11__addressofIKNSt8__detail11_AnyMatcherINSt7__cxx1112regex_traitsIcEELb0ELb0ELb0EEEEPT_RS7_
FN:51,52,_ZSt11__addressofIKNSt8__detail11_AnyMatcherINSt7__cxx1112regex_traitsIcEELb0ELb0ELb1EEEEPT_RS7_
FN:51,52,_ZSt11__addressofIKNSt8__detail11_AnyMatcherINSt7__cxx1112regex_traitsIcEELb0ELb1ELb0EEEEPT_RS7_
FN:51,52,_ZSt11__addressofIKNSt8__detail11_AnyMatcherINSt7__cxx1112regex_traitsIcEELb0ELb1ELb1EEEEPT_RS7_
FN:51,52,_ZSt11__addressofIKNSt8__detail11_AnyMatcherINSt7__cxx1112regex_traitsIcEELb1ELb0ELb0EEEEPT_RS7_
FN:51,52,_ZSt11__addressofIKNSt8__detail11_AnyMatcherINSt7__cxx1112regex_traitsIcEELb1ELb0ELb1EEEEPT_RS7_
FN:51,52,_ZSt11__addressofIKNSt8__detail11_AnyMatcherINSt7__cxx1112regex_traitsIcEELb1ELb1ELb0EEEEPT_RS7_
FN:51,52,_ZSt11__addressofIKNSt8__detail11_AnyMatcherINSt7__cxx1112regex_traitsIcEELb1ELb1ELb1EEEEPT_RS7_
FN:51,52,_ZSt11__addressofIKNSt8__detail12_CharMatcherINSt7__cxx1112regex_traitsIcEELb0ELb0EEEEPT_RS7_
FN:51,52,_ZSt11__addressofIKNSt8__detail12_CharMatcherINSt7__cxx1112regex_traitsIcEELb0ELb1EEEEPT_RS7_
FN:51,52,_ZSt11__addressofIKNSt8__detail12_CharMatcherINSt7__cxx1112regex_traitsIcEELb1ELb0EEEEPT_RS7_
FN:51,52,_ZSt11__addressofIKNSt8__detail12_CharMatcherINSt7__cxx1112regex_traitsIcEELb1ELb1EEEEPT_RS7_
FN:51,52,_ZSt11__addressofIKSt6vectorINSt7__cxx119sub_matchIN9__gnu_cxx17__normal_iteratorIPKcNS1_12basic_stringIcSt11char_traitsIcESaIcEEEEEEESaISD_EEEPT_RSH_
FN:51,52,_ZSt11__addressofIKZN12media_player11controllers16SourceControllerC4ESt10shared_ptrINS0_8services12IFileScannerEES3_INS0_12repositories17LibraryRepositoryEES3_INS0_6models12LibraryModelEEEUlSt6vectorINSA_14MediaFileModelESaISE_EEE_EPT_RSJ_
FN:51,52,_ZSt11__addressofIKZN12media_player11controllers16SourceControllerC4ESt10shared_ptrINS0_8services12IFileScannerEES3_INS0_12repositories17LibraryRepositoryEES3_INS0_6models12LibraryModelEEEUliRKNSt7__cxx1112basic_stringIcSt11char_traitsIcESaIcEEEE_EPT_RSN_
FN:51,52,_ZSt11__addressofIKZN12media_player11controllers18HardwareControllerC4ESt10shared_ptrINS0_8services20ISerialCommunicationEES3_INS0_6models18PlaybackStateModelEEEUlRKNSt7__cxx1112basic_stringIcSt11char_traitsIcESaIcEEEE0_EPT_RSK_
FN:51,52,_ZSt11__addressofIKZN12media_player11controllers18HardwareControllerC4ESt10shared_ptrINS0_8services20ISerialCommunicationEES3_INS0_6models18PlaybackStateModelEEEUlRKNSt7__cxx1112basic_stringIcSt11char_traitsIcESaIcEEEE_EPT_RSK_
FN:51,52,_ZSt11__addressofIKZN12media_player11controllers18PlaybackController14setAudioEngineESt10unique_ptrINS0_8services15IPlaybackEngineESt14default_deleteIS5_EEEUlNS4_13PlaybackStateEE_EPT_RSC_
FN:51,52,_ZSt11__addressofIKZN12media_player11controllers18PlaybackController14setAudioEngineESt10unique_ptrINS0_8services15IPlaybackEngineESt14default_deleteIS5_EEEUlRKNSt7__cxx1112basic_stringIcSt11char_traitsIcESaIcEEEE_EPT_RSJ_
FN:51,52,_ZSt11__addressofIKZN12media_player11controllers18PlaybackController14setAudioEngineESt10unique_ptrINS0_8services15IPlaybackEngineESt14default_deleteIS5_EEEUliiE_EPT_RSB_
FN:51,52,_ZSt11__addressofIKZN12media_player11controllers18PlaybackController14setAudioEngineESt10unique_ptrINS0_8services15IPlaybackEngineESt14default_deleteIS5_EEEUlvE_EPT_RSB_
FN:51,52,_ZSt11__addressofIKZN12media_player11controllers18PlaybackControllerC4ESt10shared_ptrINS0_6models10QueueModelEES3_INS4_18PlaybackStateModelEES3_INS4_12HistoryModelEEEUlNS0_8services13PlaybackStateEE_EPT_RSF_
FN:51,52,_ZSt11__addressofIKZN12media_player11controllers18PlaybackControllerC4ESt10shared_ptrINS0_6models10QueueModelEES3_INS4_18PlaybackStateModelEES3_INS4_12HistoryModelEEEUlRKNSt7__cxx1112basic_stringIcSt11char_traitsIcESaIcEEEE_EPT_RSL_
FN:51,52,_ZSt11__addressofIKZN12media_player11controllers18PlaybackControllerC4ESt10shared_ptrINS0_6models10QueueModelEES3_INS4_18PlaybackStateModelEES3_INS4_12HistoryModelEEEUliiE_EPT_RSD_
FN:51,52,_ZSt11__addressofIKZN12media_player11controllers18PlaybackControllerC4ESt10shared_ptrINS0_6models10QueueModelEES3_INS4_18PlaybackStateModelEES3_INS4_12HistoryModelEEEUlvE_EPT_RSD_
FN:51,52,_ZSt11__addressofIN12media_player6models12HistoryEntryEEPT_RS3_
FN:51,52,_ZSt11__addressofIN12media_player6models13PlaylistModelEEPT_RS3_
FN:51,52,_ZSt11__addressofIN12media_player6models14MediaFileModelEEPT_RS3_
FN:51,52,_ZSt11__addressofINSt7__cxx1112basic_stringIcSt11char_traitsIcESaIcEEEEPT_RS6_
FN:51,52,_ZSt11__addressofINSt7__cxx1112regex_traitsIcE10_RegexMaskEEPT_RS4_
FN:51,52,_ZSt11__addressofINSt7__cxx119sub_matchIN9__gnu_cxx17__normal_iteratorIPKcNS0_12basic_stringIcSt11char_traitsIcESaIcEEEEEEEEPT_RSD_
FN:51,52,_ZSt11__addressofINSt8__detail6_StateIcEEEPT_RS3_
FN:51,52,_ZSt11__addressofISaISt23_Sp_counted_ptr_inplaceINSt8__detail4_NFAINSt7__cxx1112regex_traitsIcEEEESaIvELN9__gnu_cxx12_Lock_policyE2EEEEPT_RSC_
FN:51,52,_ZSt11__addressofISt4pairIN9__gnu_cxx17__normal_iteratorIPKcNSt7__cxx1112basic_stringIcSt11char_traitsIcESaIcEEEEEiEEPT_RSD_
FN:51,52,_ZSt11__addressofISt4pairINSt7__cxx1112basic_stringIcSt11char_traitsIcESaIcEEES6_EEPT_RS8_
FN:51,52,_ZSt11__addressofISt4pairIccEEPT_RS2_
FN:51,52,_ZSt11__addressofISt4pairIlSt6vectorINSt7__cxx119sub_matchIN9__gnu_cxx17__normal_iteratorIPKcNS2_12basic_stringIcSt11char_traitsIcESaIcEEEEEEESaISE_EEEEPT_RSI_
FN:70,71,_ZSt7forwardIMN12media_player11controllers16SourceControllerEFvvEEOT_RNSt16remove_referenceIS5_E4typeE
FN:70,71,_ZSt7forwardIN12media_player11controllers14HardwareButtonEEOT_RNSt16remove_referenceIS3_E4typeE
FN:70,71,_ZSt7forwardIN12media_player6models12HistoryEntryEEOT_RNSt16remove_referenceIS3_E4typeE
FN:70,71,_ZSt7forwardIN12media_player6models13MetadataModelEEOT_RNSt16remove_referenceIS3_E4typeE
FN:70,71,_ZSt7forwardIN12media_player6models13PlaybackStateEEOT_RNSt16remove_referenceIS3_E4typeE
FN:70,71,_ZSt7forwardIN12media_player6models14MediaFileModelEEOT_RNSt16remove_referenceIS3_E4typeE
FN:70,71,_ZSt7forwardIN12media_player8services13PlaybackStateEEOT_RNSt16remove_referenceIS3_E4typeE
FN:70,71,_ZSt7forwardINSt7__cxx1112basic_stringIcSt11char_traitsIcESaIcEEEEOT_RNSt16remove_referenceIS6_E4typeE
FN:70,71,_ZSt7forwardINSt7__cxx1112regex_traitsIcE10_RegexMaskEEOT_RNSt16remove_referenceIS4_E4typeE
FN:70,71,_ZSt7forwardINSt8__detail11_AnyMatcherINSt7__cxx1112regex_traitsIcEELb0ELb0ELb0EEEEOT_RNSt16remove_referenceIS6_E4typeE
FN:70,71,_ZSt7forwardINSt8__detail11_AnyMatcherINSt7__cxx1112regex_traitsIcEELb0ELb0ELb1EEEEOT_RNSt16remove_referenceIS6_E4typeE
FN:70,71,_ZSt7forwardINSt8__detail11_AnyMatcherINSt7__cxx1112regex_traitsIcEELb0ELb1ELb0EEEEOT_RNSt16remove_referenceIS6_E4typeE
FN:70,71,_ZSt7forwardINSt8__detail11_AnyMatcherINSt7__cxx1112regex_traitsIcEELb0ELb1ELb1EEEEOT_RNSt16remove_referenceIS6_E4typeE
FN:70,71,_ZSt7forwardINSt8__detail11_AnyMatcherINSt7__cxx1112regex_traitsIcEELb1ELb0ELb0EEEEOT_RNSt16remove_referenceIS6_E4typeE
FN:70,71,_ZSt7forwardINSt8__detail11_AnyMatcherINSt7__cxx1112regex_traitsIcEELb1ELb0ELb1EEEEOT_RNSt16remove_referenceIS6_E4typeE
FN:70,71,_ZSt7forwardINSt8__detail11_AnyMatcherINSt7__cxx1112regex_traitsIcEELb1ELb1ELb0EEEEOT_RNSt16remove_referenceIS6_E4typeE
FN:70,71,_ZSt7forwardINSt8__detail11_AnyMatcherINSt7__cxx1112regex_traitsIcEELb1ELb1ELb1EEEEOT_RNSt16remove_referenceIS6_E4typeE
FN:70,71,_ZSt7forwardINSt8__detail12_CharMatcherINSt7__cxx1112regex_traitsIcEELb0ELb0EEEEOT_RNSt16remove_referenceIS6_E4typeE
FN:70,71,_ZSt7forwardINSt8__detail12_CharMatcherINSt7__cxx1112regex_traitsIcEELb0ELb1EEEEOT_RNSt16remove_referenceIS6_E4typeE
FN:70,71,_ZSt7forwardINSt8__detail12_CharMatcherINSt7__cxx1112regex_traitsIcEELb1ELb0EEEEOT_RNSt16remove_referenceIS6_E4typeE
FN:70,71,_ZSt7forwardINSt8__detail12_CharMatcherINSt7__cxx1112regex_traitsIcEELb1ELb1EEEEOT_RNSt16remove_referenceIS6_E4typeE
FN:70,71,_ZSt7forwardINSt8__detail15_BracketMatcherINSt7__cxx1112regex_traitsIcEELb0ELb0EEEEOT_RNSt16remove_referenceIS6_E4typeE
FN:70,71,_ZSt7forwardINSt8__detail15_BracketMatcherINSt7__cxx1112regex_traitsIcEELb0ELb1EEEEOT_RNSt16remove_referenceIS6_E4typeE
FN:70,71,_ZSt7forwardINSt8__detail15_BracketMatcherINSt7__cxx1112regex_traitsIcEELb1ELb0EEEEOT_RNSt16remove_referenceIS6_E4typeE
FN:70,71,_ZSt7forwardINSt8__detail15_BracketMatcherINSt7__cxx1112regex_traitsIcEELb1ELb1EEEEOT_RNSt16remove_referenceIS6_E4typeE
FN:70,71,_ZSt7forwardINSt8__detail6_StateIcEEEOT_RNSt16remove_referenceIS3_E4typeE
FN:70,71,_ZSt7forwardINSt8__detail9_StateSeqINSt7__cxx1112regex_traitsIcEEEEEOT_RNSt16remove_referenceIS6_E4typeE
FN:70,71,_ZSt7forwardIPN12media_player11controllers16SourceControllerEEOT_RNSt16remove_referenceIS4_E4typeE
FN:70,71,_ZSt7forwardIRKN12media_player6models14MediaFileModelEEOT_RNSt16remove_referenceIS5_E4typeE
FN:70,71,_ZSt7forwardIRKNSt7__cxx1112basic_stringIcSt11char_traitsIcESaIcEEEEOT_RNSt16remove_referenceIS8_E4typeE
FN:70,71,_ZSt7forwardIRKNSt7__cxx1112regex_traitsIcE10_RegexMaskEEOT_RNSt16remove_referenceIS6_E4typeE
FN:70,71,_ZSt7forwardIRKNSt7__cxx119sub_matchIN9__gnu_cxx17__normal_iteratorIPKcNS0_12basic_stringIcSt11char_traitsIcESaIcEEEEEEEEOT_RNSt16remove_referenceISF_E4typeE
FN:70,71,_ZSt7forwardIRKNSt8__detail11_AnyMatcherINSt7__cxx1112regex_traitsIcEELb0ELb0ELb0EEEEOT_RNSt16remove_referenceIS8_E4typeE
FN:70,71,_ZSt7forwardIRKNSt8__detail11_AnyMatcherINSt7__cxx1112regex_traitsIcEELb0ELb0ELb1EEEEOT_RNSt16remove_referenceIS8_E4typeE
FN:70,71,_ZSt7forwardIRKNSt8__detail11_AnyMatcherINSt7__cxx1112regex_traitsIcEELb0ELb1ELb0EEEEOT_RNSt16remove_referenceIS8_E4typeE
FN:70,71,_ZSt7forwardIRKNSt8__detail11_AnyMatcherINSt7__cxx1112regex_traitsIcEELb0ELb1ELb1EEEEOT_RNSt16remove_referenceIS8_E4typeE
FN:70,71,_ZSt7forwardIRKNSt8__detail11_AnyMatcherINSt7__cxx1112regex_traitsIcEELb1ELb0ELb0EEEEOT_RNSt16remove_referenceIS8_E4typeE
FN:70,71,_ZSt7forwardIRKNSt8__detail11_AnyMatcherINSt7__cxx1112regex_traitsIcEELb1ELb0ELb1EEEEOT_RNSt16remove_referenceIS8_E4typeE
FN:70,71,_ZSt7forwardIRKNSt8__detail11_AnyMatcherINSt7__cxx1112regex_traitsIcEELb1ELb1ELb0EEEEOT_RNSt16remove_referenceIS8_E4typeE
FN:70,71,_ZSt7forwardIRKNSt8__detail11_AnyMatcherINSt7__cxx1112regex_traitsIcEELb1ELb1ELb1EEEEOT_RNSt16remove_referenceIS8_E4typeE
FN:70,71,_ZSt7forwardIRKNSt8__detail12_CharMatcherINSt7__cxx1112regex_traitsIcEELb0ELb0EEEEOT_RNSt16remove_referenceIS8_E4typeE
FN:70,71,_ZSt7forwardIRKNSt8__detail12_CharMatcherINSt7__cxx1112regex_traitsIcEELb0ELb1EEEEOT_RNSt16remove_referenceIS8_E4typeE
FN:70,71,_ZSt7forwardIRKNSt8__detail12_CharMatcherINSt7__cxx1112regex_traitsIcEELb1ELb0EEEEOT_RNSt16remove_referenceIS8_E4typeE
FN:70,71,_ZSt7forwardIRKNSt8__detail12_CharMatcherINSt7__cxx1112regex_traitsIcEELb1ELb1EEEEOT_RNSt16remove_referenceIS8_E4typeE
FN:70,71,_ZSt7forwardIRKNSt8__detail15_BracketMatcherINSt7__cxx1112regex_traitsIcEELb0ELb0EEEEOT_RNSt16remove_referenceIS8_E4typeE
FN:70,71,_ZSt7forwardIRKNSt8__detail15_BracketMatcherINSt7__cxx1112regex_traitsIcEELb0ELb1EEEEOT_RNSt16remove_referenceIS8_E4typeE
FN:70,71,_ZSt7forwardIRKNSt8__detail15_BracketMatcherINSt7__cxx1112regex_traitsIcEELb1ELb0EEEEOT_RNSt16remove_referenceIS8_E4typeE
FN:70,71,_ZSt7forwardIRKNSt8__detail15_BracketMatcherINSt7__cxx1112regex_traitsIcEELb1ELb1EEEEOT_RNSt16remove_referenceIS8_E4typeE
FN:70,71,_ZSt7forwardIRKNSt8__detail9_StateSeqINSt7__cxx1112regex_traitsIcEEEEEOT_RNSt16remove_referenceIS8_E4typeE
FN:70,71,_ZSt7forwardIRKPKcEOT_RNSt16remove_referenceIS4_E4typeE
FN:70,71,_ZSt7forwardIRKSt21piecewise_construct_tEOT_RNSt16remove_referenceIS3_E4typeE
FN:70,71,_ZSt7forwardIRKSt4pairINSt7__cxx1112basic_stringIcSt11char_traitsIcESaIcEEES6_EEOT_RNSt16remove_referenceISA_E4typeE
FN:70,71,_ZSt7forwardIRKSt4pairIccEEOT_RNSt16remove_referenceIS4_E4typeE
FN:70,71,_ZSt7forwardIRKSt6localeEOT_RNSt16remove_referenceIS3_E4typeE
FN:70,71,_ZSt7forwardIRKSt6vectorINSt7__cxx119sub_matchIN9__gnu_cxx17__normal_iteratorIPKcNS1_12basic_stringIcSt11char_traitsIcESaIcEEEEEEESaISD_EEEOT_RNSt16remove_referenceISI_E4typeE
FN:70,71,_ZSt7forwardIRKZN12media_player11controllers16SourceControllerC4ESt10shared_ptrINS0_8services12IFileScannerEES3_INS0_12repositories17LibraryRepositoryEES3_INS0_6models12LibraryModelEEEUlSt6vectorINSA_14MediaFileModelESaISE_EEE_EOT_RNSt16remove_referenceISK_E4typeE
FN:70,71,_ZSt7forwardIRKZN12media_player11controllers16SourceControllerC4ESt10shared_ptrINS0_8services12IFileScannerEES3_INS0_12repositories17LibraryRepositoryEES3_INS0_6models12LibraryModelEEEUliRKNSt7__cxx1112basic_stringIcSt11char_traitsIcESaIcEEEE_EOT_RNSt16remove_referenceISO_E4typeE
FN:70,71,_ZSt7forwardIRKZN12media_player11controllers18HardwareControllerC4ESt10shared_ptrINS0_8services20ISerialCommunicationEES3_INS0_6models18PlaybackStateModelEEEUlRKNSt7__cxx1112basic_stringIcSt11char_traitsIcESaIcEEEE0_EOT_RNSt16remove_referenceISL_E4typeE
FN:70,71,_ZSt7forwardIRKZN12media_player11controllers18HardwareControllerC4ESt10shared_ptrINS0_8services20ISerialCommunicationEES3_INS0_6models18PlaybackStateModelEEEUlRKNSt7__cxx1112basic_stringIcSt11char_traitsIcESaIcEEEE_EOT_RNSt16remove_referenceISL_E4typeE
FN:70,71,_ZSt7forwardIRKZN12media_player11controllers18PlaybackController14setAudioEngineESt10unique_ptrINS0_8services15IPlaybackEngineESt14default_deleteIS5_EEEUlNS4_13PlaybackStateEE_EOT_RNSt16remove_referenceISD_E4typeE
FN:70,71,_ZSt7forwardIRKZN12media_player11controllers18PlaybackController14setAudioEngineESt10unique_ptrINS0_8services15IPlaybackEngineESt14default_deleteIS5_EEEUlRKNSt7__cxx1112basic_stringIcSt11char_traitsIcESaIcEEEE_EOT_RNSt16remove_referenceISK_E4typeE
FN:70,71,_ZSt7forwardIRKZN12media_player11controllers18PlaybackController14setAudioEngineESt10unique_ptrINS0_8services15IPlaybackEngineESt14default_deleteIS5_EEEUliiE_EOT_RNSt16remove_referenceISC_E4typeE
FN:70,71,_ZSt7forwardIRKZN12media_player11controllers18PlaybackController14setAudioEngineESt10unique_ptrINS0_8services15IPlaybackEngineESt14default_deleteIS5_EEEUlvE_EOT_RNSt16remove_referenceISC_E4typeE
FN:70,71,_ZSt7forwardIRKZN12media_player11controllers18PlaybackControllerC4ESt10shared_ptrINS0_6models10QueueModelEES3_INS4_18PlaybackStateModelEES3_INS4_12HistoryModelEEEUlNS0_8services13PlaybackStateEE_EOT_RNSt16remove_referenceISG_E4typeE
FN:70,71,_ZSt7forwardIRKZN12media_player11controllers18PlaybackControllerC4ESt10shared_ptrINS0_6models10QueueModelEES3_INS4_18PlaybackStateModelEES3_INS4_12HistoryModelEEEUlRKNSt7__cxx1112basic_stringIcSt11char_traitsIcESaIcEEEE_EOT_RNSt16remove_referenceISM_E4typeE
FN:70,71,_ZSt7forwardIRKZN12media_player11controllers18PlaybackControllerC4ESt10shared_ptrINS0_6models10QueueModelEES3_INS4_18PlaybackStateModelEES3_INS4_12HistoryModelEEEUliiE_EOT_RNSt16remove_referenceISE_E4typeE
FN:70,71,_ZSt7forwardIRKZN12media_player11controllers18PlaybackControllerC4ESt10shared_ptrINS0_6models10QueueModelEES3_INS4_18PlaybackStateModelEES3_INS4_12HistoryModelEEEUlvE_EOT_RNSt16remove_referenceISE_E4typeE
FN:70,71,_ZSt7forwardIRKlEOT_RNSt16remove_referenceIS2_E4typeE
FN:70,71,_ZSt7forwardIRKmEOT_RNSt16remove_referenceIS2_E4typeE
FN:70,71,_ZSt7forwardIRNSt15regex_constants18syntax_option_typeEEOT_RNSt16remove_referenceIS3_E4typeE
FN:70,71,_ZSt7forwardIRNSt7__cxx119sub_matchIN9__gnu_cxx17__normal_iteratorIPKcNS0_12basic_stringIcSt11char_traitsIcESaIcEEEEEEEEOT_RNSt16remove_referenceISE_E4typeE
FN:70,71,_ZSt7forwardIRNSt8__detail11_AnyMatcherINSt7__cxx1112regex_traitsIcEELb0ELb0ELb0EEEEOT_RNSt16remove_referenceIS7_E4typeE
FN:70,71,_ZSt7forwardIRNSt8__detail11_AnyMatcherINSt7__cxx1112regex_traitsIcEELb0ELb0ELb1EEEEOT_RNSt16remove_referenceIS7_E4typeE
FN:70,71,_ZSt7forwardIRNSt8__detail11_AnyMatcherINSt7__cxx1112regex_traitsIcEELb0ELb1ELb0EEEEOT_RNSt16remove_referenceIS7_E4typeE
FN:70,71,_ZSt7forwardIRNSt8__detail11_AnyMatcherINSt7__cxx1112regex_traitsIcEELb0ELb1ELb1EEEEOT_RNSt16remove_referenceIS7_E4typeE
FN:70,71,_ZSt7forwardIRNSt8__detail11_AnyMatcherINSt7__cxx1112regex_traitsIcEELb1ELb0ELb0EEEEOT_RNSt16remove_referenceIS7_E4typeE
FN:70,71,_ZSt7forwardIRNSt8__detail11_AnyMatcherINSt7__cxx1112regex_traitsIcEELb1ELb0ELb1EEEEOT_RNSt16remove_referenceIS7_E4typeE
FN:70,71,_ZSt7forwardIRNSt8__detail11_AnyMatcherINSt7__cxx1112regex_traitsIcEELb1ELb1ELb0EEEEOT_RNSt16remove_referenceIS7_E4typeE
FN:70,71,_ZSt7forwardIRNSt8__detail11_AnyMatcherINSt7__cxx1112regex_traitsIcEELb1ELb1ELb1EEEEOT_RNSt16remove_referenceIS7_E4typeE
FN:70,71,_ZSt7forwardIRNSt8__detail12_CharMatcherINSt7__cxx1112regex_traitsIcEELb0ELb0EEEEOT_RNSt16remove_referenceIS7_E4typeE
FN:70,71,_ZSt7forwardIRNSt8__detail12_CharMatcherINSt7__cxx1112regex_traitsIcEELb0ELb1EEEEOT_RNSt16remove_referenceIS7_E4typeE
FN:70,71,_ZSt7forwardIRNSt8__detail12_CharMatcherINSt7__cxx1112regex_traitsIcEELb1ELb0EEEEOT_RNSt16remove_referenceIS7_E4typeE
FN:70,71,_ZSt7forwardIRNSt8__detail12_CharMatcherINSt7__cxx1112regex_traitsIcEELb1ELb1EEEEOT_RNSt16remove_referenceIS7_E4typeE
FN:70,71,_ZSt7forwardIRNSt8__detail15_BracketMatcherINSt7__cxx1112regex_traitsIcEELb0ELb0EEEEOT_RNSt16remove_referenceIS7_E4typeE
FN:70,71,_ZSt7forwardIRNSt8__detail15_BracketMatcherINSt7__cxx1112regex_traitsIcEELb0ELb1EEEEOT_RNSt16remove_referenceIS7_E4typeE
FN:70,71,_ZSt7forwardIRNSt8__detail15_BracketMatcherINSt7__cxx1112regex_traitsIcEELb1ELb0EEEEOT_RNSt16remove_referenceIS7_E4typeE
FN:70,71,_ZSt7forwardIRNSt8__detail15_BracketMatcherINSt7__cxx1112regex_traitsIcEELb1ELb1EEEEOT_RNSt16remove_referenceIS7_E4typeE
FN:70,71,_ZSt7forwardIRPSt13_Rb_tree_nodeISt4pairIKllEEEOT_RNSt16remove_referenceIS7_E4typeE
FN:70,71,_ZSt7forwardIRPSt18_Rb_tree_node_baseEOT_RNSt16remove_referenceIS3_E4typeE
FN:70,71,_ZSt7forwardIRZN12media_player11controllers16SourceControllerC4ESt10shared_ptrINS0_8services12IFileScannerEES3_INS0_12repositories17LibraryRepositoryEES3_INS0_6models12LibraryModelEEEUlSt6vectorINSA_14MediaFileModelESaISE_EEE_EOT_RNSt16remove_referenceISJ_E4typeE
FN:70,71,_ZSt7forwardIRZN12media_player11controllers16SourceControllerC4ESt10shared_ptrINS0_8services12IFileScannerEES3_INS0_12repositories17LibraryRepositoryEES3_INS0_6models12LibraryModelEEEUliRKNSt7__cxx1112basic_stringIcSt11char_traitsIcESaIcEEEE_EOT_RNSt16remove_referenceISN_E4typeE
FN:70,71,_ZSt7forwardIRZN12media_player11controllers18HardwareControllerC4ESt10shared_ptrINS0_8services20ISerialCommunicationEES3_INS0_6models18PlaybackStateModelEEEUlRKNSt7__cxx1112basic_stringIcSt11char_traitsIcESaIcEEEE0_EOT_RNSt16remove_referenceISK_E4typeE
FN:70,71,_ZSt7forwardIRZN12media_player11controllers18HardwareControllerC4ESt10shared_ptrINS0_8services20ISerialCommunicationEES3_INS0_6models18PlaybackStateModelEEEUlRKNSt7__cxx1112basic_stringIcSt11char_traitsIcESaIcEEEE_EOT_RNSt16remove_referenceISK_E4typeE
FN:70,71,_ZSt7forwardIRZN12media_player11controllers18PlaybackController14setAudioEngineESt10unique_ptrINS0_8services15IPlaybackEngineESt14default_deleteIS5_EEEUlNS4_13PlaybackStateEE_EOT_RNSt16remove_referenceISC_E4typeE
FN:70,71,_ZSt7forwardIRZN12media_player11controllers18PlaybackController14setAudioEngineESt10unique_ptrINS0_8services15IPlaybackEngineESt14default_deleteIS5_EEEUlRKNSt7__cxx1112basic_stringIcSt11char_traitsIcESaIcEEEE_EOT_RNSt16remove_referenceISJ_E4typeE
FN:70,71,_ZSt7forwardIRZN12media_player11controllers18PlaybackController14setAudioEngineESt10unique_ptrINS0_8services15IPlaybackEngineESt14default_deleteIS5_EEEUliiE_EOT_RNSt16remove_referenceISB_E4typeE
FN:70,71,_ZSt7forwardIRZN12media_player11controllers18PlaybackController14setAudioEngineESt10unique_ptrINS0_8services15IPlaybackEngineESt14default_deleteIS5_EEEUlvE_EOT_RNSt16remove_referenceISB_E4typeE
FN:70,71,_ZSt7forwardIRZN12media_player11controllers18PlaybackControllerC4ESt10shared_ptrINS0_6models10QueueModelEES3_INS4_18PlaybackStateModelEES3_INS4_12HistoryModelEEEUlNS0_8services13PlaybackStateEE_EOT_RNSt16remove_referenceISF_E4typeE
FN:70,71,_ZSt7forwardIRZN12media_player11controllers18PlaybackControllerC4ESt10shared_ptrINS0_6models10QueueModelEES3_INS4_18PlaybackStateModelEES3_INS4_12HistoryModelEEEUlRKNSt7__cxx1112basic_stringIcSt11char_traitsIcESaIcEEEE_EOT_RNSt16remove_referenceISL_E4typeE
FN:70,71,_ZSt7forwardIRZN12media_player11controllers18PlaybackControllerC4ESt10shared_ptrINS0_6models10QueueModelEES3_INS4_18PlaybackStateModelEES3_INS4_12HistoryModelEEEUliiE_EOT_RNSt16remove_referenceISD_E4typeE
FN:70,71,_ZSt7forwardIRZN12media_player11controllers18PlaybackControllerC4ESt10shared_ptrINS0_6models10QueueModelEES3_INS4_18PlaybackStateModelEES3_INS4_12HistoryModelEEEUlvE_EOT_RNSt16remove_referenceISD_E4typeE
FN:70,71,_ZSt7forwardIRlEOT_RNSt16remove_referenceIS1_E4typeE
FN:70,71,_ZSt7forwardISt14default_deleteIN12media_player8services15IPlaybackEngineEEEOT_RNSt16remove_referenceIS5_E4typeE
FN:70,71,_ZSt7forwardISt14default_deleteIN12media_player8services19AudioPlaybackEngineEEEOT_RNSt16remove_referenceIS5_E4typeE
FN:70,71,_ZSt7forwardISt4pairINSt7__cxx1112basic_stringIcSt11char_traitsIcESaIcEEES6_EEOT_RNSt16remove_referenceIS8_E4typeE
FN:70,71,_ZSt7forwardISt4pairIccEEOT_RNSt16remove_referenceIS2_E4typeE
FN:70,71,_ZSt7forwardISt4pairIlSt6vectorINSt7__cxx119sub_matchIN9__gnu_cxx17__normal_iteratorIPKcNS2_12basic_stringIcSt11char_traitsIcESaIcEEEEEEESaISE_EEEEOT_RNSt16remove_referenceISI_E4typeE
FN:70,71,_ZSt7forwardISt5tupleIJEEEOT_RNSt16remove_referenceIS2_E4typeE
FN:70,71,_ZSt7forwardISt5tupleIJRKlEEEOT_RNSt16remove_referenceIS4_E4typeE
FN:70,71,_ZSt7forwardISt6vectorIN12media_player6models14MediaFileModelESaIS3_EEEOT_RNSt16remove_referenceIS6_E4typeE
FN:70,71,_ZSt7forwardIZN12media_player11controllers16SourceControllerC4ESt10shared_ptrINS0_8services12IFileScannerEES3_INS0_12repositories17LibraryRepositoryEES3_INS0_6models12LibraryModelEEEUlSt6vectorINSA_14MediaFileModelESaISE_EEE_EOT_RNSt16remove_referenceISI_E4typeE
FN:70,71,_ZSt7forwardIZN12media_player11controllers16SourceControllerC4ESt10shared_ptrINS0_8services12IFileScannerEES3_INS0_12repositories17LibraryRepositoryEES3_INS0_6models12LibraryModelEEEUliRKNSt7__cxx1112basic_stringIcSt11char_traitsIcESaIcEEEE_EOT_RNSt16remove_referenceISM_E4typeE
FN:70,71,_ZSt7forwardIZN12media_player11controllers18HardwareController11autoConnectEvEUlvE_EOT_RNSt16remove_referenceIS4_E4typeE
FN:70,71,_ZSt7forwardIZN12media_player11controllers18HardwareControllerC4ESt10shared_ptrINS0_8services20ISerialCommunicationEES3_INS0_6models18PlaybackStateModelEEEUlRKNSt7__cxx1112basic_stringIcSt11char_traitsIcESaIcEEEE0_EOT_RNSt16remove_referenceISJ_E4typeE
FN:70,71,_ZSt7forwardIZN12media_player11controllers18HardwareControllerC4ESt10shared_ptrINS0_8services20ISerialCommunicationEES3_INS0_6models18PlaybackStateModelEEEUlRKNSt7__cxx1112basic_stringIcSt11char_traitsIcESaIcEEEE_EOT_RNSt16remove_referenceISJ_E4typeE
FN:70,71,_ZSt7forwardIZN12media_player11controllers18PlaybackController14setAudioEngineESt10unique_ptrINS0_8services15IPlaybackEngineESt14default_deleteIS5_EEEUlNS4_13PlaybackStateEE_EOT_RNSt16remove_referenceISB_E4typeE
FN:70,71,_ZSt7forwardIZN12media_player11controllers18PlaybackController14setAudioEngineESt10unique_ptrINS0_8services15IPlaybackEngineESt14default_deleteIS5_EEEUlRKNSt7__cxx1112basic_stringIcSt11char_traitsIcESaIcEEEE_EOT_RNSt16remove_referenceISI_E4typeE
FN:70,71,_ZSt7forwardIZN12media_player11controllers18PlaybackController14setAudioEngineESt10unique_ptrINS0_8services15IPlaybackEngineESt14default_deleteIS5_EEEUliiE_EOT_RNSt16remove_referenceISA_E4typeE
FN:70,71,_ZSt7forwardIZN12media_player11controllers18PlaybackController14setAudioEngineESt10unique_ptrINS0_8services15IPlaybackEngineESt14default_deleteIS5_EEEUlvE_EOT_RNSt16remove_referenceISA_E4typeE
FN:70,71,_ZSt7forwardIZN12media_player11controllers18PlaybackControllerC4ESt10shared_ptrINS0_6models10QueueModelEES3_INS4_18PlaybackStateModelEES3_INS4_12HistoryModelEEEUlNS0_8services13PlaybackStateEE_EOT_RNSt16remove_referenceISE_E4typeE
FN:70,71,_ZSt7forwardIZN12media_player11controllers18PlaybackControllerC4ESt10shared_ptrINS0_6models10QueueModelEES3_INS4_18PlaybackStateModelEES3_INS4_12HistoryModelEEEUlRKNSt7__cxx1112basic_stringIcSt11char_traitsIcESaIcEEEE_EOT_RNSt16remove_referenceISK_E4typeE
FN:70,71,_ZSt7forwardIZN12media_player11controllers18PlaybackControllerC4ESt10shared_ptrINS0_6models10QueueModelEES3_INS4_18PlaybackStateModelEES3_INS4_12HistoryModelEEEUliiE_EOT_RNSt16remove_referenceISC_E4typeE
FN:70,71,_ZSt7forwardIZN12media_player11controllers18PlaybackControllerC4ESt10shared_ptrINS0_6models10QueueModelEES3_INS4_18PlaybackStateModelEES3_INS4_12HistoryModelEEEUlvE_EOT_RNSt16remove_referenceISC_E4typeE
FN:70,71,_ZSt7forwardIcEOT_RNSt16remove_referenceIS0_E4typeE
FN:70,71,_ZSt7forwardIiEOT_RNSt16remove_referenceIS0_E4typeE
FN:97,98,_ZSt4moveIRN12media_player6models12HistoryEntryEEONSt16remove_referenceIT_E4typeEOS5_
FN:97,98,_ZSt4moveIRN12media_player6models13MetadataModelEEONSt16remove_referenceIT_E4typeEOS5_
FN:97,98,_ZSt4moveIRN12media_player6models14MediaFileModelEEONSt16remove_referenceIT_E4typeEOS5_
FN:97,98,_ZSt4moveIRN9__gnu_cxx5__ops15_Iter_less_iterEEONSt16remove_referenceIT_E4typeEOS5_
FN:97,98,_ZSt4moveIRNSt12_Vector_baseIN12media_player6models14MediaFileModelESaIS3_EE12_Vector_implEEONSt16remove_referenceIT_E4typeEOS9_
FN:97,98,_ZSt4moveIRNSt12_Vector_baseINSt7__cxx1112basic_stringIcSt11char_traitsIcESaIcEEESaIS6_EE12_Vector_implEEONSt16remove_referenceIT_E4typeEOSC_
FN:97,98,_ZSt4moveIRNSt12_Vector_baseINSt7__cxx1112regex_traitsIcE10_RegexMaskESaIS4_EE12_Vector_implEEONSt16remove_referenceIT_E4typeEOSA_
FN:97,98,_ZSt4moveIRNSt12_Vector_baseINSt7__cxx119sub_matchIN9__gnu_cxx17__normal_iteratorIPKcNS1_12basic_stringIcSt11char_traitsIcESaIcEEEEEEESaISD_EE12_Vector_implEEONSt16remove_referenceIT_E4typeEOSJ_
FN:97,98,_ZSt4moveIRNSt12_Vector_baseISt4pairINSt7__cxx1112basic_stringIcSt11char_traitsIcESaIcEEES7_ESaIS8_EE12_Vector_implEEONSt16remove_referenceIT_E4typeEOSE_
FN:97,98,_ZSt4moveIRNSt12_Vector_baseISt4pairIccESaIS2_EE12_Vector_implEEONSt16remove_referenceIT_E4typeEOS8_
FN:97,98,_ZSt4moveIRNSt12_Vector_baseISt4pairIlSt6vectorINSt7__cxx119sub_matchIN9__gnu_cxx17__normal_iteratorIPKcNS3_12basic_stringIcSt11char_traitsIcESaIcEEEEEEESaISF_EEESaISI_EE12_Vector_implEEONSt16remove_referenceIT_E4typeEOSO_
FN:97,98,_ZSt4moveIRNSt12_Vector_baseIcSaIcEE12_Vector_implEEONSt16remove_referenceIT_E4typeEOS6_
FN:97,98,_ZSt4moveIRNSt12_Vector_baseIhSaIhEE12_Vector_implEEONSt16remove_referenceIT_E4typeEOS6_
FN:97,98,_ZSt4moveIRNSt6thread2idEEONSt16remove_referenceIT_E4typeEOS4_
FN:97,98,_ZSt4moveIRNSt7__cxx1112basic_stringIcSt11char_traitsIcESaIcEEEEONSt16remove_referenceIT_E4typeEOS8_
FN:97,98,_ZSt4moveIRNSt7__cxx1112regex_traitsIcE10_RegexMaskEEONSt16remove_referenceIT_E4typeEOS6_
FN:97,98,_ZSt4moveIRNSt8__detail15_BracketMatcherINSt7__cxx1112regex_traitsIcEELb0ELb0EEEEONSt16remove_referenceIT_E4typeEOS8_
FN:97,98,_ZSt4moveIRNSt8__detail15_BracketMatcherINSt7__cxx1112regex_traitsIcEELb0ELb1EEEEONSt16remove_referenceIT_E4typeEOS8_
FN:97,98,_ZSt4moveIRNSt8__detail15_BracketMatcherINSt7__cxx1112regex_traitsIcEELb1ELb0EEEEONSt16remove_referenceIT_E4typeEOS8_
FN:97,98,_ZSt4moveIRNSt8__detail15_BracketMatcherINSt7__cxx1112regex_traitsIcEELb1ELb1EEEEONSt16remove_referenceIT_E4typeEOS8_
FN:97,98,_ZSt4moveIRNSt8__detail6_StateIcEEEONSt16remove_referenceIT_E4typeEOS5_
FN:97,98,_ZSt4moveIRNSt8__detail9_StateSeqINSt7__cxx1112regex_traitsIcEEEEEONSt16remove_referenceIT_E4typeEOS8_
FN:97,98,_ZSt4moveIRPFbRKSt9_Any_dataOcEEONSt16remove_referenceIT_E4typeEOS8_
FN:97,98,_ZSt4moveIRPFbRSt9_Any_dataRKS0_St18_Manager_operationEEONSt16remove_referenceIT_E4typeEOS9_
FN:97,98,_ZSt4moveIRPFvRKSt9_Any_dataON12media_player11controllers14HardwareButtonEEEONSt16remove_referenceIT_E4typeEOSB_
FN:97,98,_ZSt4moveIRPFvRKSt9_Any_dataOiEEONSt16remove_referenceIT_E4typeEOS8_
FN:97,98,_ZSt4moveIRPFvRKSt9_Any_dataOiRKNSt7__cxx1112basic_stringIcSt11char_traitsIcESaIcEEEEEONSt16remove_referenceIT_E4typeEOSG_
FN:97,98,_ZSt4moveIRPFvRKSt9_Any_dataRKNSt7__cxx1112basic_stringIcSt11char_traitsIcESaIcEEEEEONSt16remove_referenceIT_E4typeEOSF_
FN:97,98,_ZSt4moveIRPKNSt8__detail4_NFAINSt7__cxx1112regex_traitsIcEEEEEONSt16remove_referenceIT_E4typeEOSA_
FN:97,98,_ZSt4moveIRPN12media_player6models13MetadataModelEEONSt16remove_referenceIT_E4typeEOS6_
FN:97,98,_ZSt4moveIRPN12media_player8services15IPlaybackEngineEEONSt16remove_referenceIT_E4typeEOS6_
FN:97,98,_ZSt4moveIRPN12media_player8services19AudioPlaybackEngineEEONSt16remove_referenceIT_E4typeEOS6_
FN:97,98,_ZSt4moveIRPNSt10filesystem7__cxx114path5_List5_ImplEEONSt16remove_referenceIT_E4typeEOS8_
FN:97,98,_ZSt4moveIRPNSt6thread6_StateEEONSt16remove_referenceIT_E4typeEOS5_
FN:97,98,_ZSt4moveIRSaINSt7__cxx119sub_matchIN9__gnu_cxx17__normal_iteratorIPKcNS0_12basic_stringIcSt11char_traitsIcESaIcEEEEEEEEEONSt16remove_referenceIT_E4typeEOSG_
FN:97,98,_ZSt4moveIRSaIcEEONSt16remove_referenceIT_E4typeEOS3_
FN:97,98,_ZSt4moveIRSt10shared_ptrIKNSt8__detail4_NFAINSt7__cxx1112regex_traitsIcEEEEEEONSt16remove_referenceIT_E4typeEOSB_
FN:97,98,_ZSt4moveIRSt10shared_ptrINSt8__detail4_NFAINSt7__cxx1112regex_traitsIcEEEEEEONSt16remove_referenceIT_E4typeEOSA_
FN:97,98,_ZSt4moveIRSt10unique_ptrIN12media_player8services15IPlaybackEngineESt14default_deleteIS3_EEEONSt16remove_referenceIT_E4typeEOS9_
FN:97,98,_ZSt4moveIRSt12__shared_ptrIKNSt8__detail4_NFAINSt7__cxx1112regex_traitsIcEEEELN9__gnu_cxx12_Lock_policyE2EEEONSt16remove_referenceIT_E4typeEOSD_
FN:97,98,_ZSt4moveIRSt17_Optional_payloadIN12media_player6models12HistoryEntryELb1ELb0ELb0EEEONSt16remove_referenceIT_E4typeEOS7_
FN:97,98,_ZSt4moveIRSt17_Optional_payloadIN12media_player6models14MediaFileModelELb1ELb0ELb0EEEONSt16remove_referenceIT_E4typeEOS7_
FN:97,98,_ZSt4moveIRSt4pairINSt7__cxx1112basic_stringIcSt11char_traitsIcESaIcEEES6_EEONSt16remove_referenceIT_E4typeEOSA_
FN:97,98,_ZSt4moveIRSt4pairIccEEONSt16remove_referenceIT_E4typeEOS4_
FN:97,98,_ZSt4moveIRSt4pairIlSt6vectorINSt7__cxx119sub_matchIN9__gnu_cxx17__normal_iteratorIPKcNS2_12basic_stringIcSt11char_traitsIcESaIcEEEEEEESaISE_EEEEONSt16remove_referenceIT_E4typeEOSK_
FN:97,98,_ZSt4moveIRSt5tupleIJMN12media_player11controllers16SourceControllerEFvvEPS3_EEEONSt16remove_referenceIT_E4typeEOSA_
FN:97,98,_ZSt4moveIRSt5tupleIJZN12media_player11controllers18HardwareController11autoConnectEvEUlvE_EEEONSt16remove_referenceIT_E4typeEOS8_
FN:97,98,_ZSt4moveIRSt6localeEONSt16remove_referenceIT_E4typeEOS3_
FN:97,98,_ZSt4moveIRSt6vectorINSt7__cxx119sub_matchIN9__gnu_cxx17__normal_iteratorIPKcNS1_12basic_stringIcSt11char_traitsIcESaIcEEEEEEESaISD_EEEONSt16remove_referenceIT_E4typeEOSI_
FN:97,98,_ZSt4moveIRSt6vectorISt4pairIlS0_INSt7__cxx119sub_matchIN9__gnu_cxx17__normal_iteratorIPKcNS2_12basic_stringIcSt11char_traitsIcESaIcEEEEEEESaISE_EEESaISH_EEEONSt16remove_referenceIT_E4typeEOSM_
FN:97,98,_ZSt4moveIRSt8functionIFbcEEEONSt16remove_referenceIT_E4typeEOS5_
FN:97,98,_ZSt4moveIRSt9_Any_dataEONSt16remove_referenceIT_E4typeEOS3_
FN:97,98,_ZSt4moveIRcEONSt16remove_referenceIT_E4typeEOS2_
FN:97,98,_ZSt4moveIRlEONSt16remove_referenceIT_E4typeEOS2_
FNDA:0,_ZSt4swapINSt6thread2idEENSt9enable_ifIXsrSt6__and_IJSt6__not_ISt15__is_tuple_likeIT_EESt21is_move_constructibleIS6_ESt18is_move_assignableIS6_EEE5valueEvE4typeERS6_SG_
FNDA:18,_ZSt4swapIPFbRKSt9_Any_dataOcEENSt9enable_ifIXsrSt6__and_IJSt6__not_ISt15__is_tuple_likeIT_EESt21is_move_constructibleISA_ESt18is_move_assignableISA_EEE5valueEvE4typeERSA_SK_
FNDA:0,_ZSt4swapIPFbRSt9_Any_dataRKS0_St18_Manager_operationEENSt9enable_ifIXsrSt6__and_IJSt6__not_ISt15__is_tuple_likeIT_EESt21is_move_constructibleISB_ESt18is_move_assignableISB_EEE5valueEvE4typeERSB_SL_
FNDA:7,_ZSt4swapIPFvRKSt9_Any_dataON12media_player11controllers14HardwareButtonEEENSt9enable_ifIXsrSt6__and_IJSt6__not_ISt15__is_tuple_likeIT_EESt21is_move_constructibleISD_ESt18is_move_assignableISD_EEE5valueEvE4typeERSD_SN_
FNDA:7,_ZSt4swapIPFvRKSt9_Any_dataOiEENSt9enable_ifIXsrSt6__and_IJSt6__not_ISt15__is_tuple_likeIT_EESt21is_move_constructibleISA_ESt18is_move_assignableISA_EEE5valueEvE4typeERSA_SK_
FNDA:0,_ZSt4swapIPFvRKSt9_Any_dataOiRKNSt7__cxx1112basic_stringIcSt11char_traitsIcESaIcEEEEENSt9enable_ifIXsrSt6__and_IJSt6__not_ISt15__is_tuple_likeIT_EESt21is_move_constructibleISI_ESt18is_move_assignableISI_EEE5valueEvE4typeERSI_SS_
FNDA:0,_ZSt4swapIPFvRKSt9_Any_dataRKNSt7__cxx1112basic_stringIcSt11char_traitsIcESaIcEEEEENSt9enable_ifIXsrSt6__and_IJSt6__not_ISt15__is_tuple_likeIT_EESt21is_move_constructibleISH_ESt18is_move_assignableISH_EEE5valueEvE4typeERSH_SR_
FNDA:2,_ZSt4swapIPKNSt8__detail4_NFAINSt7__cxx1112regex_traitsIcEEEEENSt9enable_ifIXsrSt6__and_IJSt6__not_ISt15__is_tuple_likeIT_EESt21is_move_constructibleISC_ESt18is_move_assignableISC_EEE5valueEvE4typeERSC_SM_
FNDA:2,_ZSt4swapISt6localeENSt9enable_ifIXsrSt6__and_IJSt6__not_ISt15__is_tuple_likeIT_EESt21is_move_constructibleIS5_ESt18is_move_assignableIS5_EEE5valueEvE4typeERS5_SF_
FNDA:0,_ZSt4swapISt9_Any_dataENSt9enable_ifIXsrSt6__and_IJSt6__not_ISt15__is_tuple_likeIT_EESt21is_move_constructibleIS5_ESt18is_move_assignableIS5_EEE5valueEvE4typeERS5_SF_
FNDA:0,_ZSt4swapIcENSt9enable_ifIXsrSt6__and_IJSt6__not_ISt15__is_tuple_likeIT_EESt21is_move_constructibleIS4_ESt18is_move_assignableIS4_EEE5valueEvE4typeERS4_SE_
FNDA:3,_ZSt4swapIlENSt9enable_ifIXsrSt6__and_IJSt6__not_ISt15__is_tuple_likeIT_EESt21is_move_constructibleIS4_ESt18is_move_assignableIS4_EEE5valueEvE4typeERS4_SE_
FNDA:5771,_ZSt11__addressofIKNSt10filesystem7__cxx114pathEEPT_RS4_
FNDA:0,_ZSt11__addressofIKNSt8__detail11_AnyMatcherINSt7__cxx1112regex_traitsIcEELb0ELb0ELb0EEEEPT_RS7_
FNDA:0,_ZSt11__addressofIKNSt8__detail11_AnyMatcherINSt7__cxx1112regex_traitsIcEELb0ELb0ELb1EEEEPT_RS7_
FNDA:0,_ZSt11__addressofIKNSt8__detail11_AnyMatcherINSt7__cxx1112regex_traitsIcEELb0ELb1ELb0EEEEPT_RS7_
FNDA:0,_ZSt11__addressofIKNSt8__detail11_AnyMatcherINSt7__cxx1112regex_traitsIcEELb0ELb1ELb1EEEEPT_RS7_
FNDA:0,_ZSt11__addressofIKNSt8__detail11_AnyMatcherINSt7__cxx1112regex_traitsIcEELb1ELb0ELb0EEEEPT_RS7_
FNDA:0,_ZSt11__addressofIKNSt8__detail11_AnyMatcherINSt7__cxx1112regex_traitsIcEELb1ELb0ELb1EEEEPT_RS7_
FNDA:0,_ZSt11__addressofIKNSt8__detail11_AnyMatcherINSt7__cxx1112regex_traitsIcEELb1ELb1ELb0EEEEPT_RS7_
FNDA:0,_ZSt11__addressofIKNSt8__detail11_AnyMatcherINSt7__cxx1112regex_traitsIcEELb1ELb1ELb1EEEEPT_RS7_
FNDA:104,_ZSt11__addressofIKNSt8__detail12_CharMatcherINSt7__cxx1112regex_traitsIcEELb0ELb0EEEEPT_RS7_
FNDA:0,_ZSt11__addressofIKNSt8__detail12_CharMatcherINSt7__cxx1112regex_traitsIcEELb0ELb1EEEEPT_RS7_
FNDA:0,_ZSt11__addressofIKNSt8__detail12_CharMatcherINSt7__cxx1112regex_traitsIcEELb1ELb0EEEEPT_RS7_
FNDA:0,_ZSt11__addressofIKNSt8__detail12_CharMatcherINSt7__cxx1112regex_traitsIcEELb1ELb1EEEEPT_RS7_
FNDA:37,_ZSt11__addressofIKSt6vectorINSt7__cxx119sub_matchIN9__gnu_cxx17__normal_iteratorIPKcNS1_12basic_stringIcSt11char_traitsIcESaIcEEEEEEESaISD_EEEPT_RSH_
FNDA:4,_ZSt11__addressofIKZN12media_player11controllers16SourceControllerC4ESt10shared_ptrINS0_8services12IFileScannerEES3_INS0_12repositories17LibraryRepositoryEES3_INS0_6models12LibraryModelEEEUlSt6vectorINSA_14MediaFileModelESaISE_EEE_EPT_RSJ_
FNDA:4,_ZSt11__addressofIKZN12media_player11controllers16SourceControllerC4ESt10shared_ptrINS0_8services12IFileScannerEES3_INS0_12repositories17LibraryRepositoryEES3_INS0_6models12LibraryModelEEEUliRKNSt7__cxx1112basic_stringIcSt11char_traitsIcESaIcEEEE_EPT_RSN_
FNDA:15,_ZSt11__addressofIKZN12media_player11controllers18HardwareControllerC4ESt10shared_ptrINS0_8services20ISerialCommunicationEES3_INS0_6models18PlaybackStateModelEEEUlRKNSt7__cxx1112basic_stringIcSt11char_traitsIcESaIcEEEE0_EPT_RSK_
FNDA:33,_ZSt11__addressofIKZN12media_player11controllers18HardwareControllerC4ESt10shared_ptrINS0_8services20ISerialCommunicationEES3_INS0_6models18PlaybackStateModelEEEUlRKNSt7__cxx1112basic_stringIcSt11char_traitsIcESaIcEEEE_EPT_RSK_
FNDA:174,_ZSt11__addressofIKZN12media_player11controllers18PlaybackController14setAudioEngineESt10unique_ptrINS0_8services15IPlaybackEngineESt14default_deleteIS5_EEEUlNS4_13PlaybackStateEE_EPT_RSC_
FNDA:42,_ZSt11__addressofIKZN12media_player11controllers18PlaybackController14setAudioEngineESt10unique_ptrINS0_8services15IPlaybackEngineESt14default_deleteIS5_EEEUlRKNSt7__cxx1112basic_stringIcSt11char_traitsIcESaIcEEEE_EPT_RSJ_
FNDA:43,_ZSt11__addressofIKZN12media_player11controllers18PlaybackController14setAudioEngineESt10unique_ptrINS0_8services15IPlaybackEngineESt14default_deleteIS5_EEEUliiE_EPT_RSB_
FNDA:50,_ZSt11__addressofIKZN12media_player11controllers18PlaybackController14setAudioEngineESt10unique_ptrINS0_8services15IPlaybackEngineESt14default_deleteIS5_EEEUlvE_EPT_RSB_
FNDA:66,_ZSt11__addressofIKZN12media_player11controllers18PlaybackControllerC4ESt10shared_ptrINS0_6models10QueueModelEES3_INS4_18PlaybackStateModelEES3_INS4_12HistoryModelEEEUlNS0_8services13PlaybackStateEE_EPT_RSF_
FNDA:66,_ZSt11__addressofIKZN12media_player11controllers18PlaybackControllerC4ESt10shared_ptrINS0_6models10QueueModelEES3_INS4_18PlaybackStateModelEES3_INS4_12HistoryModelEEEUlRKNSt7__cxx1112basic_stringIcSt11char_traitsIcESaIcEEEE_EPT_RSL_
FNDA:66,_ZSt11__addressofIKZN12media_player11controllers18PlaybackControllerC4ESt10shared_ptrINS0_6models10QueueModelEES3_INS4_18PlaybackStateModelEES3_INS4_12HistoryModelEEEUliiE_EPT_RSD_
FNDA:66,_ZSt11__addressofIKZN12media_player11controllers18PlaybackControllerC4ESt10shared_ptrINS0_6models10QueueModelEES3_INS4_18PlaybackStateModelEES3_INS4_12HistoryModelEEEUlvE_EPT_RSD_
FNDA:0,_ZSt11__addressofIN12media_player6models12HistoryEntryEEPT_RS3_
FNDA:0,_ZSt11__addressofIN12media_player6models13PlaylistModelEEPT_RS3_
FNDA:0,_ZSt11__addressofIN12media_player6models14MediaFileModelEEPT_RS3_
FNDA:0,_ZSt11__addressofINSt7__cxx1112basic_stringIcSt11char_traitsIcESaIcEEEEPT_RS6_
FNDA:0,_ZSt11__addressofINSt7__cxx1112regex_traitsIcE10_RegexMaskEEPT_RS4_
FNDA:199,_ZSt11__addressofINSt7__cxx119sub_matchIN9__gnu_cxx17__normal_iteratorIPKcNS0_12basic_stringIcSt11char_traitsIcESaIcEEEEEEEEPT_RSD_
FNDA:234,_ZSt11__addressofINSt8__detail6_StateIcEEEPT_RS3_
FNDA:4,_ZSt11__addressofISaISt23_Sp_counted_ptr_inplaceINSt8__detail4_NFAINSt7__cxx1112regex_traitsIcEEEESaIvELN9__gnu_cxx12_Lock_policyE2EEEEPT_RSC_
FNDA:536,_ZSt11__addressofISt4pairIN9__gnu_cxx17__normal_iteratorIPKcNSt7__cxx1112basic_stringIcSt11char_traitsIcESaIcEEEEEiEEPT_RSD_
FNDA:0,_ZSt11__addressofISt4pairINSt7__cxx1112basic_stringIcSt11char_traitsIcESaIcEEES6_EEPT_RS8_
FNDA:0,_ZSt11__addressofISt4pairIccEEPT_RS2_
FNDA:0,_ZSt11__addressofISt4pairIlSt6vectorINSt7__cxx119sub_matchIN9__gnu_cxx17__normal_iteratorIPKcNS2_12basic_stringIcSt11char_traitsIcESaIcEEEEEEESaISE_EEEEPT_RSI_
FNDA:16,_ZSt7forwardIMN12media_player11controllers16SourceControllerEFvvEEOT_RNSt16remove_referenceIS5_E4typeE
FNDA:0,_ZSt7forwardIN12media_player11controllers14HardwareButtonEEOT_RNSt16remove_referenceIS3_E4typeE
FNDA:16416,_ZSt7forwardIN12media_player6models12HistoryEntryEEOT_RNSt16remove_referenceIS3_E4typeE
FNDA:4,_ZSt7forwardIN12media_player6models13MetadataModelEEOT_RNSt16remove_referenceIS3_E4typeE
FNDA:0,_ZSt7forwardIN12media_player6models13PlaybackStateEEOT_RNSt16remove_referenceIS3_E4typeE
FNDA:0,_ZSt7forwardIN12media_player6models14MediaFileModelEEOT_RNSt16remove_referenceIS3_E4typeE
FNDA:0,_ZSt7forwardIN12media_player8services13PlaybackStateEEOT_RNSt16remove_referenceIS3_E4typeE
FNDA:0,_ZSt7forwardINSt7__cxx1112basic_stringIcSt11char_traitsIcESaIcEEEEOT_RNSt16remove_referenceIS6_E4typeE
FNDA:0,_ZSt7forwardINSt7__cxx1112regex_traitsIcE10_RegexMaskEEOT_RNSt16remove_referenceIS4_E4typeE
FNDA:0,_ZSt7forwardINSt8__detail11_AnyMatcherINSt7__cxx1112regex_traitsIcEELb0ELb0ELb0EEEEOT_RNSt16remove_referenceIS6_E4typeE
FNDA:0,_ZSt7forwardINSt8__detail11_AnyMatcherINSt7__cxx1112regex_traitsIcEELb0ELb0ELb1EEEEOT_RNSt16remove_referenceIS6_E4typeE
FNDA:0,_ZSt7forwardINSt8__detail11_AnyMatcherINSt7__cxx1112regex_traitsIcEELb0ELb1ELb0EEEEOT_RNSt16remove_referenceIS6_E4typeE
FNDA:0,_ZSt7forwardINSt8__detail11_AnyMatcherINSt7__cxx1112regex_traitsIcEELb0ELb1ELb1EEEEOT_RNSt16remove_referenceIS6_E4typeE
FNDA:0,_ZSt7forwardINSt8__detail11_AnyMatcherINSt7__cxx1112regex_traitsIcEELb1ELb0ELb0EEEEOT_RNSt16remove_referenceIS6_E4typeE
FNDA:0,_ZSt7forwardINSt8__detail11_AnyMatcherINSt7__cxx1112regex_traitsIcEELb1ELb0ELb1EEEEOT_RNSt16remove_referenceIS6_E4typeE
FNDA:0,_ZSt7forwardINSt8__detail11_AnyMatcherINSt7__cxx1112regex_traitsIcEELb1ELb1ELb0EEEEOT_RNSt16remove_referenceIS6_E4typeE
FNDA:0,_ZSt7forwardINSt8__detail11_AnyMatcherINSt7__cxx1112regex_traitsIcEELb1ELb1ELb1EEEEOT_RNSt16remove_referenceIS6_E4typeE
FNDA:36,_ZSt7forwardINSt8__detail12_CharMatcherINSt7__cxx1112regex_traitsIcEELb0ELb0EEEEOT_RNSt16remove_referenceIS6_E4typeE
FNDA:0,_ZSt7forwardINSt8__detail12_CharMatcherINSt7__cxx1112regex_traitsIcEELb0ELb1EEEEOT_RNSt16remove_referenceIS6_E4typeE
FNDA:0,_ZSt7forwardINSt8__detail12_CharMatcherINSt7__cxx1112regex_traitsIcEELb1ELb0EEEEOT_RNSt16remove_referenceIS6_E4typeE
FNDA:0,_ZSt7forwardINSt8__detail12_CharMatcherINSt7__cxx1112regex_traitsIcEELb1ELb1EEEEOT_RNSt16remove_referenceIS6_E4typeE
FNDA:18,_ZSt7forwardINSt8__detail15_BracketMatcherINSt7__cxx1112regex_traitsIcEELb0ELb0EEEEOT_RNSt16remove_referenceIS6_E4typeE
FNDA:0,_ZSt7forwardINSt8__detail15_BracketMatcherINSt7__cxx1112regex_traitsIcEELb0ELb1EEEEOT_RNSt16remove_referenceIS6_E4typeE
FNDA:0,_ZSt7forwardINSt8__detail15_BracketMatcherINSt7__cxx1112regex_traitsIcEELb1ELb0EEEEOT_RNSt16remove_referenceIS6_E4typeE
FNDA:0,_ZSt7forwardINSt8__detail15_BracketMatcherINSt7__cxx1112regex_traitsIcEELb1ELb1EEEEOT_RNSt16remove_referenceIS6_E4typeE
FNDA:280,_ZSt7forwardINSt8__detail6_StateIcEEEOT_RNSt16remove_referenceIS3_E4typeE
FNDA:66,_ZSt7forwardINSt8__detail9_StateSeqINSt7__cxx1112regex_traitsIcEEEEEOT_RNSt16remove_referenceIS6_E4typeE
FNDA:20,_ZSt7forwardIPN12media_player11controllers16SourceControllerEEOT_RNSt16remove_referenceIS4_E4typeE
FNDA:0,_ZSt7forwardIRKN12media_player6models14MediaFileModelEEOT_RNSt16remove_referenceIS5_E4typeE
FNDA:0,_ZSt7forwardIRKNSt7__cxx1112basic_stringIcSt11char_traitsIcESaIcEEEEOT_RNSt16remove_referenceIS8_E4typeE
FNDA:0,_ZSt7forwardIRKNSt7__cxx1112regex_traitsIcE10_RegexMaskEEOT_RNSt16remove_referenceIS6_E4typeE
FNDA:199,_ZSt7forwardIRKNSt7__cxx119sub_matchIN9__gnu_cxx17__normal_iteratorIPKcNS0_12basic_stringIcSt11char_traitsIcESaIcEEEEEEEEOT_RNSt16remove_referenceISF_E4typeE
FNDA:0,_ZSt7forwardIRKNSt8__detail11_AnyMatcherINSt7__cxx1112regex_traitsIcEELb0ELb0ELb0EEEEOT_RNSt16remove_referenceIS8_E4typeE
FNDA:0,_ZSt7forwardIRKNSt8__detail11_AnyMatcherINSt7__cxx1112regex_traitsIcEELb0ELb0ELb1EEEEOT_RNSt16remove_referenceIS8_E4typeE
FNDA:0,_ZSt7forwardIRKNSt8__detail11_AnyMatcherINSt7__cxx1112regex_traitsIcEELb0ELb1ELb0EEEEOT_RNSt16remove_referenceIS8_E4typeE
FNDA:0,_ZSt7forwardIRKNSt8__detail11_AnyMatcherINSt7__cxx1112regex_traitsIcEELb0ELb1ELb1EEEEOT_RNSt16remove_referenceIS8_E4typeE
FNDA:0,_ZSt7forwardIRKNSt8__detail11_AnyMatcherINSt7__cxx1112regex_traitsIcEELb1ELb0ELb0EEEEOT_RNSt16remove_referenceIS8_E4typeE
FNDA:0,_ZSt7forwardIRKNSt8__detail11_AnyMatcherINSt7__cxx1112regex_traitsIcEELb1ELb0ELb1EEEEOT_RNSt16remove_referenceIS8_E4typeE
FNDA:0,_ZSt7forwardIRKNSt8__detail11_AnyMatcherINSt7__cxx1112regex_traitsIcEELb1ELb1ELb0EEEEOT_RNSt16remove_referenceIS8_E4typeE
FNDA:0,_ZSt7forwardIRKNSt8__detail11_AnyMatcherINSt7__cxx1112regex_traitsIcEELb1ELb1ELb1EEEEOT_RNSt16remove_referenceIS8_E4typeE
FNDA:0,_ZSt7forwardIRKNSt8__detail12_CharMatcherINSt7__cxx1112regex_traitsIcEELb0ELb0EEEEOT_RNSt16remove_referenceIS8_E4typeE
FNDA:0,_ZSt7forwardIRKNSt8__detail12_CharMatcherINSt7__cxx1112regex_traitsIcEELb0ELb1EEEEOT_RNSt16remove_referenceIS8_E4typeE
FNDA:0,_ZSt7forwardIRKNSt8__detail12_CharMatcherINSt7__cxx1112regex_traitsIcEELb1ELb0EEEEOT_RNSt16remove_referenceIS8_E4typeE
FNDA:0,_ZSt7forwardIRKNSt8__detail12_CharMatcherINSt7__cxx1112regex_traitsIcEELb1ELb1EEEEOT_RNSt16remove_referenceIS8_E4typeE
FNDA:10,_ZSt7forwardIRKNSt8__detail15_BracketMatcherINSt7__cxx1112regex_traitsIcEELb0ELb0EEEEOT_RNSt16remove_referenceIS8_E4typeE
FNDA:0,_ZSt7forwardIRKNSt8__detail15_BracketMatcherINSt7__cxx1112regex_traitsIcEELb0ELb1EEEEOT_RNSt16remove_referenceIS8_E4typeE
FNDA:0,_ZSt7forwardIRKNSt8__detail15_BracketMatcherINSt7__cxx1112regex_traitsIcEELb1ELb0EEEEOT_RNSt16remove_referenceIS8_E4typeE
FNDA:0,_ZSt7forwardIRKNSt8__detail15_BracketMatcherINSt7__cxx1112regex_traitsIcEELb1ELb1EEEEOT_RNSt16remove_referenceIS8_E4typeE
FNDA:56,_ZSt7forwardIRKNSt8__detail9_StateSeqINSt7__cxx1112regex_traitsIcEEEEEOT_RNSt16remove_referenceIS8_E4typeE
FNDA:0,_ZSt7forwardIRKPKcEOT_RNSt16remove_referenceIS4_E4typeE
FNDA:510,_ZSt7forwardIRKSt21piecewise_construct_tEOT_RNSt16remove_referenceIS3_E4typeE
FNDA:0,_ZSt7forwardIRKSt4pairINSt7__cxx1112basic_stringIcSt11char_traitsIcESaIcEEES6_EEOT_RNSt16remove_referenceISA_E4typeE
FNDA:0,_ZSt7forwardIRKSt4pairIccEEOT_RNSt16remove_referenceIS4_E4typeE
FNDA:14,_ZSt7forwardIRKSt6localeEOT_RNSt16remove_referenceIS3_E4typeE
FNDA:0,_ZSt7forwardIRKSt6vectorINSt7__cxx119sub_matchIN9__gnu_cxx17__normal_iteratorIPKcNS1_12basic_stringIcSt11char_traitsIcESaIcEEEEEEESaISD_EEEOT_RNSt16remove_referenceISI_E4typeE
FNDA:4,_ZSt7forwardIRKZN12media_player11controllers16SourceControllerC4ESt10shared_ptrINS0_8services12IFileScannerEES3_INS0_12repositories17LibraryRepositoryEES3_INS0_6models12LibraryModelEEEUlSt6vectorINSA_14MediaFileModelESaISE_EEE_EOT_RNSt16remove_referenceISK_E4typeE
FNDA:4,_ZSt7forwardIRKZN12media_player11controllers16SourceControllerC4ESt10shared_ptrINS0_8services12IFileScannerEES3_INS0_12repositories17LibraryRepositoryEES3_INS0_6models12LibraryModelEEEUliRKNSt7__cxx1112basic_stringIcSt11char_traitsIcESaIcEEEE_EOT_RNSt16remove_referenceISO_E4typeE
FNDA:28,_ZSt7forwardIRKZN12media_player11controllers18HardwareControllerC4ESt10shared_ptrINS0_8services20ISerialCommunicationEES3_INS0_6models18PlaybackStateModelEEEUlRKNSt7__cxx1112basic_stringIcSt11char_traitsIcESaIcEEEE0_EOT_RNSt16remove_referenceISL_E4typeE
FNDA:28,_ZSt7forwardIRKZN12media_player11controllers18HardwareControllerC4ESt10shared_ptrINS0_8services20ISerialCommunicationEES3_INS0_6models18PlaybackStateModelEEEUlRKNSt7__cxx1112basic_stringIcSt11char_traitsIcESaIcEEEE_EOT_RNSt16remove_referenceISL_E4typeE
FNDA:82,_ZSt7forwardIRKZN12media_player11controllers18PlaybackController14setAudioEngineESt10unique_ptrINS0_8services15IPlaybackEngineESt14default_deleteIS5_EEEUlNS4_13PlaybackStateEE_EOT_RNSt16remove_referenceISD_E4typeE
FNDA:82,_ZSt7forwardIRKZN12media_player11controllers18PlaybackController14setAudioEngineESt10unique_ptrINS0_8services15IPlaybackEngineESt14default_deleteIS5_EEEUlRKNSt7__cxx1112basic_stringIcSt11char_traitsIcESaIcEEEE_EOT_RNSt16remove_referenceISK_E4typeE
FNDA:82,_ZSt7forwardIRKZN12media_player11controllers18PlaybackController14setAudioEngineESt10unique_ptrINS0_8services15IPlaybackEngineESt14default_deleteIS5_EEEUliiE_EOT_RNSt16remove_referenceISC_E4typeE
FNDA:82,_ZSt7forwardIRKZN12media_player11controllers18PlaybackController14setAudioEngineESt10unique_ptrINS0_8services15IPlaybackEngineESt14default_deleteIS5_EEEUlvE_EOT_RNSt16remove_referenceISC_E4typeE
FNDA:132,_ZSt7forwardIRKZN12media_player11controllers18PlaybackControllerC4ESt10shared_ptrINS0_6models10QueueModelEES3_INS4_18PlaybackStateModelEES3_INS4_12HistoryModelEEEUlNS0_8services13PlaybackStateEE_EOT_RNSt16remove_referenceISG_E4typeE
FNDA:132,_ZSt7forwardIRKZN12media_player11controllers18PlaybackControllerC4ESt10shared_ptrINS0_6models10QueueModelEES3_INS4_18PlaybackStateModelEES3_INS4_12HistoryModelEEEUlRKNSt7__cxx1112basic_stringIcSt11char_traitsIcESaIcEEEE_EOT_RNSt16remove_referenceISM_E4typeE
FNDA:132,_ZSt7forwardIRKZN12media_player11controllers18PlaybackControllerC4ESt10shared_ptrINS0_6models10QueueModelEES3_INS4_18PlaybackStateModelEES3_INS4_12HistoryModelEEEUliiE_EOT_RNSt16remove_referenceISE_E4typeE
FNDA:132,_ZSt7forwardIRKZN12media_player11controllers18PlaybackControllerC4ESt10shared_ptrINS0_6models10QueueModelEES3_INS4_18PlaybackStateModelEES3_INS4_12HistoryModelEEEUlvE_EOT_RNSt16remove_referenceISE_E4typeE
FNDA:21,_ZSt7forwardIRKlEOT_RNSt16remove_referenceIS2_E4typeE
FNDA:30,_ZSt7forwardIRKmEOT_RNSt16remove_referenceIS2_E4typeE
FNDA:14,_ZSt7forwardIRNSt15regex_constants18syntax_option_typeEEOT_RNSt16remove_referenceIS3_E4typeE
FNDA:0,_ZSt7forwardIRNSt7__cxx119sub_matchIN9__gnu_cxx17__normal_iteratorIPKcNS0_12basic_stringIcSt11char_traitsIcESaIcEEEEEEEEOT_RNSt16remove_referenceISE_E4typeE
FNDA:0,_ZSt7forwardIRNSt8__detail11_AnyMatcherINSt7__cxx1112regex_traitsIcEELb0ELb0ELb0EEEEOT_RNSt16remove_referenceIS7_E4typeE
FNDA:0,_ZSt7forwardIRNSt8__detail11_AnyMatcherINSt7__cxx1112regex_traitsIcEELb0ELb0ELb1EEEEOT_RNSt16remove_referenceIS7_E4typeE
FNDA:0,_ZSt7forwardIRNSt8__detail11_AnyMatcherINSt7__cxx1112regex_traitsIcEELb0ELb1ELb0EEEEOT_RNSt16remove_referenceIS7_E4typeE
FNDA:0,_ZSt7forwardIRNSt8__detail11_AnyMatcherINSt7__cxx1112regex_traitsIcEELb0ELb1ELb1EEEEOT_RNSt16remove_referenceIS7_E4typeE
FNDA:0,_ZSt7forwardIRNSt8__detail11_AnyMatcherINSt7__cxx1112regex_traitsIcEELb1ELb0ELb0EEEEOT_RNSt16remove_referenceIS7_E4typeE
FNDA:0,_ZSt7forwardIRNSt8__detail11_AnyMatcherINSt7__cxx1112regex_traitsIcEELb1ELb0ELb1EEEEOT_RNSt16remove_referenceIS7_E4typeE
FNDA:0,_ZSt7forwardIRNSt8__detail11_AnyMatcherINSt7__cxx1112regex_traitsIcEELb1ELb1ELb0EEEEOT_RNSt16remove_referenceIS7_E4typeE
FNDA:0,_ZSt7forwardIRNSt8__detail11_AnyMatcherINSt7__cxx1112regex_traitsIcEELb1ELb1ELb1EEEEOT_RNSt16remove_referenceIS7_E4typeE
FNDA:208,_ZSt7forwardIRNSt8__detail12_CharMatcherINSt7__cxx1112regex_traitsIcEELb0ELb0EEEEOT_RNSt16remove_referenceIS7_E4typeE
FNDA:0,_ZSt7forwardIRNSt8__detail12_CharMatcherINSt7__cxx1112regex_traitsIcEELb0ELb1EEEEOT_RNSt16remove_referenceIS7_E4typeE
FNDA:0,_ZSt7forwardIRNSt8__detail12_CharMatcherINSt7__cxx1112regex_traitsIcEELb1ELb0EEEEOT_RNSt16remove_referenceIS7_E4typeE
FNDA:0,_ZSt7forwardIRNSt8__detail12_CharMatcherINSt7__cxx1112regex_traitsIcEELb1ELb1EEEEOT_RNSt16remove_referenceIS7_E4typeE
FNDA:180,_ZSt7forwardIRNSt8__detail15_BracketMatcherINSt7__cxx1112regex_traitsIcEELb0ELb0EEEEOT_RNSt16remove_referenceIS7_E4typeE
FNDA:0,_ZSt7forwardIRNSt8__detail15_BracketMatcherINSt7__cxx1112regex_traitsIcEELb0ELb1EEEEOT_RNSt16remove_referenceIS7_E4typeE
FNDA:0,_ZSt7forwardIRNSt8__detail15_BracketMatcherINSt7__cxx1112regex_traitsIcEELb1ELb0EEEEOT_RNSt16remove_referenceIS7_E4typeE
FNDA:0,_ZSt7forwardIRNSt8__detail15_BracketMatcherINSt7__cxx1112regex_traitsIcEELb1ELb1EEEEOT_RNSt16remove_referenceIS7_E4typeE
FNDA:5,_ZSt7forwardIRPSt13_Rb_tree_nodeISt4pairIKllEEEOT_RNSt16remove_referenceIS7_E4typeE
FNDA:69,_ZSt7forwardIRPSt18_Rb_tree_node_baseEOT_RNSt16remove_referenceIS3_E4typeE
FNDA:4,_ZSt7forwardIRZN12media_player11controllers16SourceControllerC4ESt10shared_ptrINS0_8services12IFileScannerEES3_INS0_12repositories17LibraryRepositoryEES3_INS0_6models12LibraryModelEEEUlSt6vectorINSA_14MediaFileModelESaISE_EEE_EOT_RNSt16remove_referenceISJ_E4typeE
FNDA:4,_ZSt7forwardIRZN12media_player11controllers16SourceControllerC4ESt10shared_ptrINS0_8services12IFileScannerEES3_INS0_12repositories17LibraryRepositoryEES3_INS0_6models12LibraryModelEEEUliRKNSt7__cxx1112basic_stringIcSt11char_traitsIcESaIcEEEE_EOT_RNSt16remove_referenceISN_E4typeE
FNDA:2,_ZSt7forwardIRZN12media_player11controllers18HardwareControllerC4ESt10shared_ptrINS0_8services20ISerialCommunicationEES3_INS0_6models18PlaybackStateModelEEEUlRKNSt7__cxx1112basic_stringIcSt11char_traitsIcESaIcEEEE0_EOT_RNSt16remove_referenceISK_E4typeE
FNDA:38,_ZSt7forwardIRZN12media_player11controllers18HardwareControllerC4ESt10shared_ptrINS0_8services20ISerialCommunicationEES3_INS0_6models18PlaybackStateModelEEEUlRKNSt7__cxx1112basic_stringIcSt11char_traitsIcESaIcEEEE_EOT_RNSt16remove_referenceISK_E4typeE
FNDA:266,_ZSt7forwardIRZN12media_player11controllers18PlaybackController14setAudioEngineESt10unique_ptrINS0_8services15IPlaybackEngineESt14default_deleteIS5_EEEUlNS4_13PlaybackStateEE_EOT_RNSt16remove_referenceISC_E4typeE
FNDA:2,_ZSt7forwardIRZN12media_player11controllers18PlaybackController14setAudioEngineESt10unique_ptrINS0_8services15IPlaybackEngineESt14default_deleteIS5_EEEUlRKNSt7__cxx1112basic_stringIcSt11char_traitsIcESaIcEEEE_EOT_RNSt16remove_referenceISJ_E4typeE
FNDA:4,_ZSt7forwardIRZN12media_player11controllers18PlaybackController14setAudioEngineESt10unique_ptrINS0_8services15IPlaybackEngineESt14default_deleteIS5_EEEUliiE_EOT_RNSt16remove_referenceISB_E4typeE
FNDA:18,_ZSt7forwardIRZN12media_player11controllers18PlaybackController14setAudioEngineESt10unique_ptrINS0_8services15IPlaybackEngineESt14default_deleteIS5_EEEUlvE_EOT_RNSt16remove_referenceISB_E4typeE
FNDA:0,_ZSt7forwardIRZN12media_player11controllers18PlaybackControllerC4ESt10shared_ptrINS0_6models10QueueModelEES3_INS4_18PlaybackStateModelEES3_INS4_12HistoryModelEEEUlNS0_8services13PlaybackStateEE_EOT_RNSt16remove_referenceISF_E4typeE
FNDA:0,_ZSt7forwardIRZN12media_player11controllers18PlaybackControllerC4ESt10shared_ptrINS0_6models10QueueModelEES3_INS4_18PlaybackStateModelEES3_INS4_12HistoryModelEEEUlRKNSt7__cxx1112basic_stringIcSt11char_traitsIcESaIcEEEE_EOT_RNSt16remove_referenceISL_E4typeE
FNDA:0,_ZSt7forwardIRZN12media_player11controllers18PlaybackControllerC4ESt10shared_ptrINS0_6models10QueueModelEES3_INS4_18PlaybackStateModelEES3_INS4_12HistoryModelEEEUliiE_EOT_RNSt16remove_referenceISD_E4typeE
FNDA:0,_ZSt7forwardIRZN12media_player11controllers18PlaybackControllerC4ESt10shared_ptrINS0_6models10QueueModelEES3_INS4_18PlaybackStateModelEES3_INS4_12HistoryModelEEEUlvE_EOT_RNSt16remove_referenceISD_E4typeE
FNDA:0,_ZSt7forwardIRlEOT_RNSt16remove_referenceIS1_E4typeE
FNDA:41,_ZSt7forwardISt14default_deleteIN12media_player8services15IPlaybackEngineEEEOT_RNSt16remove_referenceIS5_E4typeE
FNDA:66,_ZSt7forwardISt14default_deleteIN12media_player8services19AudioPlaybackEngineEEEOT_RNSt16remove_referenceIS5_E4typeE
FNDA:0,_ZSt7forwardISt4pairINSt7__cxx1112basic_stringIcSt11char_traitsIcESaIcEEES6_EEOT_RNSt16remove_referenceIS8_E4typeE
FNDA:0,_ZSt7forwardISt4pairIccEEOT_RNSt16remove_referenceIS2_E4typeE
FNDA:0,_ZSt7forwardISt4pairIlSt6vectorINSt7__cxx119sub_matchIN9__gnu_cxx17__normal_iteratorIPKcNS2_12basic_stringIcSt11char_traitsIcESaIcEEEEEEESaISE_EEEEOT_RNSt16remove_referenceISI_E4typeE
FNDA:0,_ZSt7forwardISt5tupleIJEEEOT_RNSt16remove_referenceIS2_E4typeE
FNDA:30,_ZSt7forwardISt5tupleIJRKlEEEOT_RNSt16remove_referenceIS4_E4typeE
FNDA:0,_ZSt7forwardISt6vectorIN12media_player6models14MediaFileModelESaIS3_EEEOT_RNSt16remove_referenceIS6_E4typeE
FNDA:57,_ZSt7forwardIZN12media_player11controllers16SourceControllerC4ESt10shared_ptrINS0_8services12IFileScannerEES3_INS0_12repositories17LibraryRepositoryEES3_INS0_6models12LibraryModelEEEUlSt6vectorINSA_14MediaFileModelESaISE_EEE_EOT_RNSt16remove_referenceISI_E4typeE
FNDA:57,_ZSt7forwardIZN12media_player11controllers16SourceControllerC4ESt10shared_ptrINS0_8services12IFileScannerEES3_INS0_12repositories17LibraryRepositoryEES3_INS0_6models12LibraryModelEEEUliRKNSt7__cxx1112basic_stringIcSt11char_traitsIcESaIcEEEE_EOT_RNSt16remove_referenceISM_E4typeE
FNDA:27,_ZSt7forwardIZN12media_player11controllers18HardwareController11autoConnectEvEUlvE_EOT_RNSt16remove_referenceIS4_E4typeE
FNDA:84,_ZSt7forwardIZN12media_player11controllers18HardwareControllerC4ESt10shared_ptrINS0_8services20ISerialCommunicationEES3_INS0_6models18PlaybackStateModelEEEUlRKNSt7__cxx1112basic_stringIcSt11char_traitsIcESaIcEEEE0_EOT_RNSt16remove_referenceISJ_E4typeE
FNDA:84,_ZSt7forwardIZN12media_player11controllers18HardwareControllerC4ESt10shared_ptrINS0_8services20ISerialCommunicationEES3_INS0_6models18PlaybackStateModelEEEUlRKNSt7__cxx1112basic_stringIcSt11char_traitsIcESaIcEEEE_EOT_RNSt16remove_referenceISJ_E4typeE
FNDA:123,_ZSt7forwardIZN12media_player11controllers18PlaybackController14setAudioEngineESt10unique_ptrINS0_8services15IPlaybackEngineESt14default_deleteIS5_EEEUlNS4_13PlaybackStateEE_EOT_RNSt16remove_referenceISB_E4typeE
FNDA:123,_ZSt7forwardIZN12media_player11controllers18PlaybackController14setAudioEngineESt10unique_ptrINS0_8services15IPlaybackEngineESt14default_deleteIS5_EEEUlRKNSt7__cxx1112basic_stringIcSt11char_traitsIcESaIcEEEE_EOT_RNSt16remove_referenceISI_E4typeE
FNDA:123,_ZSt7forwardIZN12media_player11controllers18PlaybackController14setAudioEngineESt10unique_ptrINS0_8services15IPlaybackEngineESt14default_deleteIS5_EEEUliiE_EOT_RNSt16remove_referenceISA_E4typeE
FNDA:123,_ZSt7forwardIZN12media_player11controllers18PlaybackController14setAudioEngineESt10unique_ptrINS0_8services15IPlaybackEngineESt14default_deleteIS5_EEEUlvE_EOT_RNSt16remove_referenceISA_E4typeE
FNDA:198,_ZSt7forwardIZN12media_player11controllers18PlaybackControllerC4ESt10shared_ptrINS0_6models10QueueModelEES3_INS4_18PlaybackStateModelEES3_INS4_12HistoryModelEEEUlNS0_8services13PlaybackStateEE_EOT_RNSt16remove_referenceISE_E4typeE
FNDA:198,_ZSt7forwardIZN12media_player11controllers18PlaybackControllerC4ESt10shared_ptrINS0_6models10QueueModelEES3_INS4_18PlaybackStateModelEES3_INS4_12HistoryModelEEEUlRKNSt7__cxx1112basic_stringIcSt11char_traitsIcESaIcEEEE_EOT_RNSt16remove_referenceISK_E4typeE
FNDA:198,_ZSt7forwardIZN12media_player11controllers18PlaybackControllerC4ESt10shared_ptrINS0_6models10QueueModelEES3_INS4_18PlaybackStateModelEES3_INS4_12HistoryModelEEEUliiE_EOT_RNSt16remove_referenceISC_E4typeE
FNDA:198,_ZSt7forwardIZN12media_player11controllers18PlaybackControllerC4ESt10shared_ptrINS0_6models10QueueModelEES3_INS4_18PlaybackStateModelEES3_INS4_12HistoryModelEEEUlvE_EOT_RNSt16remove_referenceISC_E4typeE
FNDA:776,_ZSt7forwardIcEOT_RNSt16remove_referenceIS0_E4typeE
FNDA:0,_ZSt7forwardIiEOT_RNSt16remove_referenceIS0_E4typeE
FNDA:5417,_ZSt4moveIRN12media_player6models12HistoryEntryEEONSt16remove_referenceIT_E4typeEOS5_
FNDA:1,_ZSt4moveIRN12media_player6models13MetadataModelEEONSt16remove_referenceIT_E4typeEOS5_
FNDA:0,_ZSt4moveIRN12media_player6models14MediaFileModelEEONSt16remove_referenceIT_E4typeEOS5_
FNDA:0,_ZSt4moveIRN9__gnu_cxx5__ops15_Iter_less_iterEEONSt16remove_referenceIT_E4typeEOS5_
FNDA:0,_ZSt4moveIRNSt12_Vector_baseIN12media_player6models14MediaFileModelESaIS3_EE12_Vector_implEEONSt16remove_referenceIT_E4typeEOS9_
FNDA:12,_ZSt4moveIRNSt12_Vector_baseINSt7__cxx1112basic_stringIcSt11char_traitsIcESaIcEEESaIS6_EE12_Vector_implEEONSt16remove_referenceIT_E4typeEOSC_
FNDA:12,_ZSt4moveIRNSt12_Vector_baseINSt7__cxx1112regex_traitsIcE10_RegexMaskESaIS4_EE12_Vector_implEEONSt16remove_referenceIT_E4typeEOSA_
FNDA:0,_ZSt4moveIRNSt12_Vector_baseINSt7__cxx119sub_matchIN9__gnu_cxx17__normal_iteratorIPKcNS1_12basic_stringIcSt11char_traitsIcESaIcEEEEEEESaISD_EE12_Vector_implEEONSt16remove_referenceIT_E4typeEOSJ_
FNDA:0,_ZSt4moveIRNSt12_Vector_baseISt4pairINSt7__cxx1112basic_stringIcSt11char_traitsIcESaIcEEES7_ESaIS8_EE12_Vector_implEEONSt16remove_referenceIT_E4typeEOSE_
FNDA:12,_ZSt4moveIRNSt12_Vector_baseISt4pairIccESaIS2_EE12_Vector_implEEONSt16remove_referenceIT_E4typeEOS8_
FNDA:0,_ZSt4moveIRNSt12_Vector_baseISt4pairIlSt6vectorINSt7__cxx119sub_matchIN9__gnu_cxx17__normal_iteratorIPKcNS3_12basic_stringIcSt11char_traitsIcESaIcEEEEEEESaISF_EEESaISI_EE12_Vector_implEEONSt16remove_referenceIT_E4typeEOSO_
FNDA:12,_ZSt4moveIRNSt12_Vector_baseIcSaIcEE12_Vector_implEEONSt16remove_referenceIT_E4typeEOS6_
FNDA:4,_ZSt4moveIRNSt12_Vector_baseIhSaIhEE12_Vector_implEEONSt16remove_referenceIT_E4typeEOS6_
FNDA:0,_ZSt4moveIRNSt6thread2idEEONSt16remove_referenceIT_E4typeEOS4_
FNDA:0,_ZSt4moveIRNSt7__cxx1112basic_stringIcSt11char_traitsIcESaIcEEEEONSt16remove_referenceIT_E4typeEOS8_
FNDA:0,_ZSt4moveIRNSt7__cxx1112regex_traitsIcE10_RegexMaskEEONSt16remove_referenceIT_E4typeEOS6_
FNDA:6,_ZSt4moveIRNSt8__detail15_BracketMatcherINSt7__cxx1112regex_traitsIcEELb0ELb0EEEEONSt16remove_referenceIT_E4typeEOS8_
FNDA:0,_ZSt4moveIRNSt8__detail15_BracketMatcherINSt7__cxx1112regex_traitsIcEELb0ELb1EEEEONSt16remove_referenceIT_E4typeEOS8_
FNDA:0,_ZSt4moveIRNSt8__detail15_BracketMatcherINSt7__cxx1112regex_traitsIcEELb1ELb0EEEEONSt16remove_referenceIT_E4typeEOS8_
FNDA:0,_ZSt4moveIRNSt8__detail15_BracketMatcherINSt7__cxx1112regex_traitsIcEELb1ELb1EEEEONSt16remove_referenceIT_E4typeEOS8_
FNDA:196,_ZSt4moveIRNSt8__detail6_StateIcEEEONSt16remove_referenceIT_E4typeEOS5_
FNDA:44,_ZSt4moveIRNSt8__detail9_StateSeqINSt7__cxx1112regex_traitsIcEEEEEONSt16remove_referenceIT_E4typeEOS8_
FNDA:54,_ZSt4moveIRPFbRKSt9_Any_dataOcEEONSt16remove_referenceIT_E4typeEOS8_
FNDA:0,_ZSt4moveIRPFbRSt9_Any_dataRKS0_St18_Manager_operationEEONSt16remove_referenceIT_E4typeEOS9_
FNDA:21,_ZSt4moveIRPFvRKSt9_Any_dataON12media_player11controllers14HardwareButtonEEEONSt16remove_referenceIT_E4typeEOSB_
FNDA:21,_ZSt4moveIRPFvRKSt9_Any_dataOiEEONSt16remove_referenceIT_E4typeEOS8_
FNDA:0,_ZSt4moveIRPFvRKSt9_Any_dataOiRKNSt7__cxx1112basic_stringIcSt11char_traitsIcESaIcEEEEEONSt16remove_referenceIT_E4typeEOSG_
FNDA:0,_ZSt4moveIRPFvRKSt9_Any_dataRKNSt7__cxx1112basic_stringIcSt11char_traitsIcESaIcEEEEEONSt16remove_referenceIT_E4typeEOSF_
FNDA:6,_ZSt4moveIRPKNSt8__detail4_NFAINSt7__cxx1112regex_traitsIcEEEEEONSt16remove_referenceIT_E4typeEOSA_
FNDA:0,_ZSt4moveIRPN12media_player6models13MetadataModelEEONSt16remove_referenceIT_E4typeEOS6_
FNDA:0,_ZSt4moveIRPN12media_player8services15IPlaybackEngineEEONSt16remove_referenceIT_E4typeEOS6_
FNDA:0,_ZSt4moveIRPN12media_player8services19AudioPlaybackEngineEEONSt16remove_referenceIT_E4typeEOS6_
FNDA:0,_ZSt4moveIRPNSt10filesystem7__cxx114path5_List5_ImplEEONSt16remove_referenceIT_E4typeEOS8_
FNDA:0,_ZSt4moveIRPNSt6thread6_StateEEONSt16remove_referenceIT_E4typeEOS5_
FNDA:0,_ZSt4moveIRSaINSt7__cxx119sub_matchIN9__gnu_cxx17__normal_iteratorIPKcNS0_12basic_stringIcSt11char_traitsIcESaIcEEEEEEEEEONSt16remove_referenceIT_E4typeEOSG_
FNDA:0,_ZSt4moveIRSaIcEEONSt16remove_referenceIT_E4typeEOS3_
FNDA:2,_ZSt4moveIRSt10shared_ptrIKNSt8__detail4_NFAINSt7__cxx1112regex_traitsIcEEEEEEONSt16remove_referenceIT_E4typeEOSB_
FNDA:4,_ZSt4moveIRSt10shared_ptrINSt8__detail4_NFAINSt7__cxx1112regex_traitsIcEEEEEEONSt16remove_referenceIT_E4typeEOSA_
FNDA:41,_ZSt4moveIRSt10unique_ptrIN12media_player8services15IPlaybackEngineESt14default_deleteIS3_EEEONSt16remove_referenceIT_E4typeEOS9_
FNDA:2,_ZSt4moveIRSt12__shared_ptrIKNSt8__detail4_NFAINSt7__cxx1112regex_traitsIcEEEELN9__gnu_cxx12_Lock_policyE2EEEONSt16remove_referenceIT_E4typeEOSD_
FNDA:4,_ZSt4moveIRSt17_Optional_payloadIN12media_player6models12HistoryEntryELb1ELb0ELb0EEEONSt16remove_referenceIT_E4typeEOS7_
FNDA:6,_ZSt4moveIRSt17_Optional_payloadIN12media_player6models14MediaFileModelELb1ELb0ELb0EEEONSt16remove_referenceIT_E4typeEOS7_
FNDA:0,_ZSt4moveIRSt4pairINSt7__cxx1112basic_stringIcSt11char_traitsIcESaIcEEES6_EEONSt16remove_referenceIT_E4typeEOSA_
FNDA:0,_ZSt4moveIRSt4pairIccEEONSt16remove_referenceIT_E4typeEOS4_
FNDA:0,_ZSt4moveIRSt4pairIlSt6vectorINSt7__cxx119sub_matchIN9__gnu_cxx17__normal_iteratorIPKcNS2_12basic_stringIcSt11char_traitsIcESaIcEEEEEEESaISE_EEEEONSt16remove_referenceIT_E4typeEOSK_
FNDA:4,_ZSt4moveIRSt5tupleIJMN12media_player11controllers16SourceControllerEFvvEPS3_EEEONSt16remove_referenceIT_E4typeEOSA_
FNDA:3,_ZSt4moveIRSt5tupleIJZN12media_player11controllers18HardwareController11autoConnectEvEUlvE_EEEONSt16remove_referenceIT_E4typeEOS8_
FNDA:6,_ZSt4moveIRSt6localeEONSt16remove_referenceIT_E4typeEOS3_
FNDA:0,_ZSt4moveIRSt6vectorINSt7__cxx119sub_matchIN9__gnu_cxx17__normal_iteratorIPKcNS1_12basic_stringIcSt11char_traitsIcESaIcEEEEEEESaISD_EEEONSt16remove_referenceIT_E4typeEOSI_
FNDA:0,_ZSt4moveIRSt6vectorISt4pairIlS0_INSt7__cxx119sub_matchIN9__gnu_cxx17__normal_iteratorIPKcNS2_12basic_stringIcSt11char_traitsIcESaIcEEEEEEESaISE_EEESaISH_EEEONSt16remove_referenceIT_E4typeEOSM_
FNDA:121,_ZSt4moveIRSt8functionIFbcEEEONSt16remove_referenceIT_E4typeEOS5_
FNDA:0,_ZSt4moveIRSt9_Any_dataEONSt16remove_referenceIT_E4typeEOS3_
FNDA:0,_ZSt4moveIRcEONSt16remove_referenceIT_E4typeEOS2_
FNDA:9,_ZSt4moveIRlEONSt16remove_referenceIT_E4typeEOS2_
FNF:229
FNH:107
DA:51,7514
DA:52,7514
DA:70,21936
DA:71,21936
DA:97,6020
DA:98,6020
DA:189,39
DA:197,39
DA:198,39
DA:199,39
DA:200,39
LF:11
LH:11
end_of_record
TN:
SF:/usr/include/c++/13/bits/new_allocator.h
FN:104,104,_ZNSt15__new_allocatorIN12media_player6models14MediaFileModelEED2Ev
FN:104,104,_ZNSt15__new_allocatorINSt7__cxx1112basic_stringIcSt11char_traitsIcESaIcEEEED2Ev
FN:104,104,_ZNSt15__new_allocatorINSt7__cxx1112regex_traitsIcE10_RegexMaskEED2Ev
FN:104,104,_ZNSt15__new_allocatorINSt7__cxx119sub_matchIN9__gnu_cxx17__normal_iteratorIPKcNS0_12basic_stringIcSt11char_traitsIcESaIcEEEEEEEED2Ev
FN:104,104,_ZNSt15__new_allocatorINSt8__detail6_StateIcEEED2Ev
FN:104,104,_ZNSt15__new_allocatorINSt8__detail9_StateSeqINSt7__cxx1112regex_traitsIcEEEEED2Ev
FN:104,104,_ZNSt15__new_allocatorIPNSt8__detail9_StateSeqINSt7__cxx1112regex_traitsIcEEEEED2Ev
FN:104,104,_ZNSt15__new_allocatorIPlED2Ev
FN:104,104,_ZNSt15__new_allocatorISt13_Rb_tree_nodeISt4pairIKNSt7__cxx1112basic_stringIcSt11char_traitsIcESaIcEEES7_EEED2Ev
FN:104,104,_ZNSt15__new_allocatorISt13_Rb_tree_nodeISt4pairIKllEEED2Ev
FN:104,104,_ZNSt15__new_allocatorISt23_Sp_counted_ptr_inplaceINSt8__detail4_NFAINSt7__cxx1112regex_traitsIcEEEESaIvELN9__gnu_cxx12_Lock_policyE2EEED2Ev
FN:104,104,_ZNSt15__new_allocatorISt4pairIN9__gnu_cxx17__normal_iteratorIPKcNSt7__cxx1112basic_stringIcSt11char_traitsIcESaIcEEEEEiEED2Ev
FN:104,104,_ZNSt15__new_allocatorISt4pairINSt7__cxx1112basic_stringIcSt11char_traitsIcESaIcEEES6_EED2Ev
FN:104,104,_ZNSt15__new_allocatorISt4pairIccEED2Ev
FN:104,104,_ZNSt15__new_allocatorISt4pairIlSt6vectorINSt7__cxx119sub_matchIN9__gnu_cxx17__normal_iteratorIPKcNS2_12basic_stringIcSt11char_traitsIcESaIcEEEEEEESaISE_EEEED2Ev
FN:104,104,_ZNSt15__new_allocatorIcED2Ev
FN:104,104,_ZNSt15__new_allocatorIhED2Ev
FN:104,104,_ZNSt15__new_allocatorIlED2Ev
FN:104,104,_ZNSt15__new_allocatorImED2Ev
FN:126,152,_ZNSt15__new_allocatorIN12media_player6models14MediaFileModelEE8allocateEmPKv
FN:126,152,_ZNSt15__new_allocatorINSt7__cxx1112basic_stringIcSt11char_traitsIcESaIcEEEE8allocateEmPKv
FN:126,152,_ZNSt15__new_allocatorINSt7__cxx1112regex_traitsIcE10_RegexMaskEE8allocateEmPKv
FN:126,152,_ZNSt15__new_allocatorINSt7__cxx119sub_matchIN9__gnu_cxx17__normal_iteratorIPKcNS0_12basic_stringIcSt11char_traitsIcESaIcEEEEEEEE8allocateEmPKv
FN:126,152,_ZNSt15__new_allocatorINSt8__detail6_StateIcEEE8allocateEmPKv
FN:126,152,_ZNSt15__new_allocatorINSt8__detail9_StateSeqINSt7__cxx1112regex_traitsIcEEEEE8allocateEmPKv
FN:126,152,_ZNSt15__new_allocatorIPNSt8__detail9_StateSeqINSt7__cxx1112regex_traitsIcEEEEE8allocateEmPKv
FN:126,152,_ZNSt15__new_allocatorIPlE8allocateEmPKv
FN:126,152,_ZNSt15__new_allocatorISt13_Rb_tree_nodeISt4pairIKllEEE8allocateEmPKv
FN:126,152,_ZNSt15__new_allocatorISt23_Sp_counted_ptr_inplaceINSt8__detail4_NFAINSt7__cxx1112regex_traitsIcEEEESaIvELN9__gnu_cxx12_Lock_policyE2EEE8allocateEmPKv
FN:126,152,_ZNSt15__new_allocatorISt4pairIN9__gnu_cxx17__normal_iteratorIPKcNSt7__cxx1112basic_stringIcSt11char_traitsIcESaIcEEEEEiEE8allocateEmPKv
FN:126,152,_ZNSt15__new_allocatorISt4pairINSt7__cxx1112basic_stringIcSt11char_traitsIcESaIcEEES6_EE8allocateEmPKv
FN:126,152,_ZNSt15__new_allocatorISt4pairIccEE8allocateEmPKv
FN:126,152,_ZNSt15__new_allocatorISt4pairIlSt6vectorINSt7__cxx119sub_matchIN9__gnu_cxx17__normal_iteratorIPKcNS2_12basic_stringIcSt11char_traitsIcESaIcEEEEEEESaISE_EEEE8allocateEmPKv
FN:126,152,_ZNSt15__new_allocatorIcE8allocateEmPKv
FN:126,152,_ZNSt15__new_allocatorIlE8allocateEmPKv
FN:126,152,_ZNSt15__new_allocatorImE8allocateEmPKv
FN:156,173,_ZNSt15__new_allocatorIN12media_player6models14MediaFileModelEE10deallocateEPS2_m
FN:156,173,_ZNSt15__new_allocatorINSt7__cxx1112basic_stringIcSt11char_traitsIcESaIcEEEE10deallocateEPS5_m
FN:156,173,_ZNSt15__new_allocatorINSt7__cxx1112regex_traitsIcE10_RegexMaskEE10deallocateEPS3_m
FN:156,173,_ZNSt15__new_allocatorINSt7__cxx119sub_matchIN9__gnu_cxx17__normal_iteratorIPKcNS0_12basic_stringIcSt11char_traitsIcESaIcEEEEEEEE10deallocateEPSC_m
FN:156,173,_ZNSt15__new_allocatorINSt8__detail6_StateIcEEE10deallocateEPS2_m
FN:156,173,_ZNSt15__new_allocatorINSt8__detail9_StateSeqINSt7__cxx1112regex_traitsIcEEEEE10deallocateEPS5_m
FN:156,173,_ZNSt15__new_allocatorIPNSt8__detail9_StateSeqINSt7__cxx1112regex_traitsIcEEEEE10deallocateEPS6_m
FN:156,173,_ZNSt15__new_allocatorIPlE10deallocateEPS0_m
FN:156,173,_ZNSt15__new_allocatorISt13_Rb_tree_nodeISt4pairIKNSt7__cxx1112basic_stringIcSt11char_traitsIcESaIcEEES7_EEE10deallocateEPSA_m
FN:156,173,_ZNSt15__new_allocatorISt13_Rb_tree_nodeISt4pairIKllEEE10deallocateEPS4_m
FN:156,173,_ZNSt15__new_allocatorISt23_Sp_counted_ptr_inplaceINSt8__detail4_NFAINSt7__cxx1112regex_traitsIcEEEESaIvELN9__gnu_cxx12_Lock_policyE2EEE10deallocateEPSA_m
FN:156,173,_ZNSt15__new_allocatorISt4pairIN9__gnu_cxx17__normal_iteratorIPKcNSt7__cxx1112basic_stringIcSt11char_traitsIcESaIcEEEEEiEE10deallocateEPSC_m
FN:156,173,_ZNSt15__new_allocatorISt4pairINSt7__cxx1112basic_stringIcSt11char_traitsIcESaIcEEES6_EE10deallocateEPS7_m
FN:156,173,_ZNSt15__new_allocatorISt4pairIccEE10deallocateEPS1_m
FN:156,173,_ZNSt15__new_allocatorISt4pairIlSt6vectorINSt7__cxx119sub_matchIN9__gnu_cxx17__normal_iteratorIPKcNS2_12basic_stringIcSt11char_traitsIcESaIcEEEEEEESaISE_EEEE10deallocateEPSH_m
FN:156,173,_ZNSt15__new_allocatorIcE10deallocateEPcm
FN:156,173,_ZNSt15__new_allocatorIhE10deallocateEPhm
FN:156,173,_ZNSt15__new_allocatorIlE10deallocateEPlm
FN:156,173,_ZNSt15__new_allocatorImE10deallocateEPmm
FNDA:0,_ZNSt15__new_allocatorIN12media_player6models14MediaFileModelEED2Ev
FNDA:0,_ZNSt15__new_allocatorINSt7__cxx1112basic_stringIcSt11char_traitsIcESaIcEEEED2Ev
FNDA:22,_ZNSt15__new_allocatorINSt7__cxx1112regex_traitsIcE10_RegexMaskEED2Ev
FNDA:104,_ZNSt15__new_allocatorINSt7__cxx119sub_matchIN9__gnu_cxx17__normal_iteratorIPKcNS0_12basic_stringIcSt11char_traitsIcESaIcEEEEEEEED2Ev
FNDA:2,_ZNSt15__new_allocatorINSt8__detail6_StateIcEEED2Ev
FNDA:2,_ZNSt15__new_allocatorINSt8__detail9_StateSeqINSt7__cxx1112regex_traitsIcEEEEED2Ev
FNDA:4,_ZNSt15__new_allocatorIPNSt8__detail9_StateSeqINSt7__cxx1112regex_traitsIcEEEEED2Ev
FNDA:14,_ZNSt15__new_allocatorIPlED2Ev
FNDA:0,_ZNSt15__new_allocatorISt13_Rb_tree_nodeISt4pairIKNSt7__cxx1112basic_stringIcSt11char_traitsIcESaIcEEES7_EEED2Ev
FNDA:5,_ZNSt15__new_allocatorISt13_Rb_tree_nodeISt4pairIKllEEED2Ev
FNDA:4,_ZNSt15__new_allocatorISt23_Sp_counted_ptr_inplaceINSt8__detail4_NFAINSt7__cxx1112regex_traitsIcEEEESaIvELN9__gnu_cxx12_Lock_policyE2EEED2Ev
FNDA:66,_ZNSt15__new_allocatorISt4pairIN9__gnu_cxx17__normal_iteratorIPKcNSt7__cxx1112basic_stringIcSt11char_traitsIcESaIcEEEEEiEED2Ev
FNDA:0,_ZNSt15__new_allocatorISt4pairINSt7__cxx1112basic_stringIcSt11char_traitsIcESaIcEEES6_EED2Ev
FNDA:22,_ZNSt15__new_allocatorISt4pairIccEED2Ev
FNDA:0,_ZNSt15__new_allocatorISt4pairIlSt6vectorINSt7__cxx119sub_matchIN9__gnu_cxx17__normal_iteratorIPKcNS2_12basic_stringIcSt11char_traitsIcESaIcEEEEEEESaISE_EEEED2Ev
FNDA:0,_ZNSt15__new_allocatorIcED2Ev
FNDA:0,_ZNSt15__new_allocatorIhED2Ev
FNDA:7,_ZNSt15__new_allocatorIlED2Ev
FNDA:0,_ZNSt15__new_allocatorImED2Ev
FNDA:0,_ZNSt15__new_allocatorIN12media_player6models14MediaFileModelEE8allocateEmPKv
FNDA:0,_ZNSt15__new_allocatorINSt7__cxx1112basic_stringIcSt11char_traitsIcESaIcEEEE8allocateEmPKv
FNDA:0,_ZNSt15__new_allocatorINSt7__cxx1112regex_traitsIcE10_RegexMaskEE8allocateEmPKv
FNDA:37,_ZNSt15__new_allocatorINSt7__cxx119sub_matchIN9__gnu_cxx17__normal_iteratorIPKcNS0_12basic_stringIcSt11char_traitsIcESaIcEEEEEEEE8allocateEmPKv
FNDA:12,_ZNSt15__new_allocatorINSt8__detail6_StateIcEEE8allocateEmPKv
FNDA:2,_ZNSt15__new_allocatorINSt8__detail9_StateSeqINSt7__cxx1112regex_traitsIcEEEEE8allocateEmPKv
FNDA:2,_ZNSt15__new_allocatorIPNSt8__detail9_StateSeqINSt7__cxx1112regex_traitsIcEEEEE8allocateEmPKv
FNDA:7,_ZNSt15__new_allocatorIPlE8allocateEmPKv
FNDA:5,_ZNSt15__new_allocatorISt13_Rb_tree_nodeISt4pairIKllEEE8allocateEmPKv
FNDA:2,_ZNSt15__new_allocatorISt23_Sp_counted_ptr_inplaceINSt8__detail4_NFAINSt7__cxx1112regex_traitsIcEEEESaIvELN9__gnu_cxx12_Lock_policyE2EEE8allocateEmPKv
FNDA:22,_ZNSt15__new_allocatorISt4pairIN9__gnu_cxx17__normal_iteratorIPKcNSt7__cxx1112basic_stringIcSt11char_traitsIcESaIcEEEEEiEE8allocateEmPKv
FNDA:0,_ZNSt15__new_allocatorISt4pairINSt7__cxx1112basic_stringIcSt11char_traitsIcESaIcEEES6_EE8allocateEmPKv
FNDA:0,_ZNSt15__new_allocatorISt4pairIccEE8allocateEmPKv
FNDA:0,_ZNSt15__new_allocatorISt4pairIlSt6vectorINSt7__cxx119sub_matchIN9__gnu_cxx17__normal_iteratorIPKcNS2_12basic_stringIcSt11char_traitsIcESaIcEEEEEEESaISE_EEEE8allocateEmPKv
FNDA:0,_ZNSt15__new_allocatorIcE8allocateEmPKv
FNDA:7,_ZNSt15__new_allocatorIlE8allocateEmPKv
FNDA:9,_ZNSt15__new_allocatorImE8allocateEmPKv
FNDA:0,_ZNSt15__new_allocatorIN12media_player6models14MediaFileModelEE10deallocateEPS2_m
FNDA:0,_ZNSt15__new_allocatorINSt7__cxx1112basic_stringIcSt11char_traitsIcESaIcEEEE10deallocateEPS5_m
FNDA:0,_ZNSt15__new_allocatorINSt7__cxx1112regex_traitsIcE10_RegexMaskEE10deallocateEPS3_m
FNDA:37,_ZNSt15__new_allocatorINSt7__cxx119sub_matchIN9__gnu_cxx17__normal_iteratorIPKcNS0_12basic_stringIcSt11char_traitsIcESaIcEEEEEEEE10deallocateEPSC_m
FNDA:12,_ZNSt15__new_allocatorINSt8__detail6_StateIcEEE10deallocateEPS2_m
FNDA:2,_ZNSt15__new_allocatorINSt8__detail9_StateSeqINSt7__cxx1112regex_traitsIcEEEEE10deallocateEPS5_m
FNDA:2,_ZNSt15__new_allocatorIPNSt8__detail9_StateSeqINSt7__cxx1112regex_traitsIcEEEEE10deallocateEPS6_m
FNDA:7,_ZNSt15__new_allocatorIPlE10deallocateEPS0_m
FNDA:0,_ZNSt15__new_allocatorISt13_Rb_tree_nodeISt4pairIKNSt7__cxx1112basic_stringIcSt11char_traitsIcESaIcEEES7_EEE10deallocateEPSA_m
FNDA:5,_ZNSt15__new_allocatorISt13_Rb_tree_nodeISt4pairIKllEEE10deallocateEPS4_m
FNDA:2,_ZNSt15__new_allocatorISt23_Sp_counted_ptr_inplaceINSt8__detail4_NFAINSt7__cxx1112regex_traitsIcEEEESaIvELN9__gnu_cxx12_Lock_policyE2EEE10deallocateEPSA_m
FNDA:22,_ZNSt15__new_allocatorISt4pairIN9__gnu_cxx17__normal_iteratorIPKcNSt7__cxx1112basic_stringIcSt11char_traitsIcESaIcEEEEEiEE10deallocateEPSC_m
FNDA:0,_ZNSt15__new_allocatorISt4pairINSt7__cxx1112basic_stringIcSt11char_traitsIcESaIcEEES6_EE10deallocateEPS7_m
FNDA:0,_ZNSt15__new_allocatorISt4pairIccEE10deallocateEPS1_m
FNDA:0,_ZNSt15__new_allocatorISt4pairIlSt6vectorINSt7__cxx119sub_matchIN9__gnu_cxx17__normal_iteratorIPKcNS2_12basic_stringIcSt11char_traitsIcESaIcEEEEEEESaISE_EEEE10deallocateEPSH_m
FNDA:0,_ZNSt15__new_allocatorIcE10deallocateEPcm
FNDA:0,_ZNSt15__new_allocatorIhE10deallocateEPhm
FNDA:7,_ZNSt15__new_allocatorIlE10deallocateEPlm
FNDA:0,_ZNSt15__new_allocatorImE10deallocateEPmm
FNF:55
FNH:30
BRDA:134,0,0,0
BRDA:134,0,1,105
BRDA:138,0,0,-
BRDA:138,0,1,-
BRDA:191,0,0,283
BRDA:191,e0,1,0
BRDA:191,0,2,0
BRDA:191,0,3,0
BRDA:191,0,4,76
BRDA:191,e0,5,0
BRDA:191,0,6,0
BRDA:191,0,7,0
BRDA:191,0,8,0
BRDA:191,e0,9,0
BRDA:191,0,10,0
BRDA:191,0,11,0
BRDA:191,0,12,0
BRDA:191,e0,13,0
BRDA:191,0,14,0
BRDA:191,0,15,0
BRDA:191,0,16,0
BRDA:191,e0,17,0
BRDA:191,0,18,0
BRDA:191,0,19,0
BRF:24
BRH:3
DA:88,4
DA:92,0
DA:104,252
DA:126,105
DA:134,105
DA:138,0
DA:139,0
DA:140,0
DA:151,105
DA:156,96
DA:172,96
DA:183,0
DA:191,613
DA:198,0
DA:233,0
LF:15
LH:8
end_of_record
TN:
SF:/usr/include/c++/13/bits/predefined_ops.h
FN:108,109,_ZN9__gnu_cxx5__ops15__val_comp_iterENS0_15_Iter_less_iterE
FN:116,117,_ZNK9__gnu_cxx5__ops19_Iter_equal_to_iterclINS_17__normal_iteratorIPNSt7__cxx1112basic_stringIcSt11char_traitsIcESaIcEEESt6vectorIS9_SaIS9_EEEESE_EEbT_T0_
FN:116,117,_ZNK9__gnu_cxx5__ops19_Iter_equal_to_iterclINS_17__normal_iteratorIPcSt6vectorIcSaIcEEEES8_EEbT_T0_
FN:122,123,_ZN9__gnu_cxx5__ops20__iter_equal_to_iterEv
FN:262,264,_ZN9__gnu_cxx5__ops16_Iter_equals_valIKNSt7__cxx1112basic_stringIcSt11char_traitsIcESaIcEEEEC2ERS8_
FN:269,270,_ZN9__gnu_cxx5__ops16_Iter_equals_valIKNSt7__cxx1112basic_stringIcSt11char_traitsIcESaIcEEEEclINS_17__normal_iteratorIPS8_St6vectorIS7_SaIS7_EEEEEEbT_
FN:276,277,_ZN9__gnu_cxx5__ops17__iter_equals_valIKNSt7__cxx1112basic_stringIcSt11char_traitsIcESaIcEEEEENS0_16_Iter_equals_valIT_EERSA_
FN:44,45,_ZNK9__gnu_cxx5__ops15_Iter_less_iterclINS_17__normal_iteratorIPNSt7__cxx1112basic_stringIcSt11char_traitsIcESaIcEEESt6vectorIS9_SaIS9_EEEESE_EEbT_T0_
FN:44,45,_ZNK9__gnu_cxx5__ops15_Iter_less_iterclINS_17__normal_iteratorIPcSt6vectorIcSaIcEEEES8_EEbT_T0_
FN:50,51,_ZN9__gnu_cxx5__ops16__iter_less_iterEv
FN:63,63,_ZN9__gnu_cxx5__ops14_Iter_less_valC2ENS0_15_Iter_less_iterE
FN:68,69,_ZNK9__gnu_cxx5__ops14_Iter_less_valclINS_17__normal_iteratorIPKcSt6vectorIcSaIcEEEES4_EEbT_RT0_
FN:68,69,_ZNK9__gnu_cxx5__ops14_Iter_less_valclINS_17__normal_iteratorIPNSt7__cxx1112basic_stringIcSt11char_traitsIcESaIcEEESt6vectorIS9_SaIS9_EEEES9_EEbT_RT0_
FN:68,69,_ZNK9__gnu_cxx5__ops14_Iter_less_valclINS_17__normal_iteratorIPcSt6vectorIcSaIcEEEEcEEbT_RT0_
FN:74,75,_ZN9__gnu_cxx5__ops15__iter_less_valEv
FN:97,98,_ZNK9__gnu_cxx5__ops14_Val_less_iterclINSt7__cxx1112basic_stringIcSt11char_traitsIcESaIcEEENS_17__normal_iteratorIPS8_St6vectorIS8_SaIS8_EEEEEEbRT_T0_
FN:97,98,_ZNK9__gnu_cxx5__ops14_Val_less_iterclIcNS_17__normal_iteratorIPcSt6vectorIcSaIcEEEEEEbRT_T0_
FNDA:0,_ZN9__gnu_cxx5__ops15__val_comp_iterENS0_15_Iter_less_iterE
FNDA:0,_ZNK9__gnu_cxx5__ops19_Iter_equal_to_iterclINS_17__normal_iteratorIPNSt7__cxx1112basic_stringIcSt11char_traitsIcESaIcEEESt6vectorIS9_SaIS9_EEEESE_EEbT_T0_
FNDA:0,_ZNK9__gnu_cxx5__ops19_Iter_equal_to_iterclINS_17__normal_iteratorIPcSt6vectorIcSaIcEEEES8_EEbT_T0_
FNDA:9,_ZN9__gnu_cxx5__ops20__iter_equal_to_iterEv
FNDA:0,_ZN9__gnu_cxx5__ops16_Iter_equals_valIKNSt7__cxx1112basic_stringIcSt11char_traitsIcESaIcEEEEC2ERS8_
FNDA:0,_ZN9__gnu_cxx5__ops16_Iter_equals_valIKNSt7__cxx1112basic_stringIcSt11char_traitsIcESaIcEEEEclINS_17__normal_iteratorIPS8_St6vectorIS7_SaIS7_EEEEEEbT_
FNDA:0,_ZN9__gnu_cxx5__ops17__iter_equals_valIKNSt7__cxx1112basic_stringIcSt11char_traitsIcESaIcEEEEENS0_16_Iter_equals_valIT_EERSA_
FNDA:0,_ZNK9__gnu_cxx5__ops15_Iter_less_iterclINS_17__normal_iteratorIPNSt7__cxx1112basic_stringIcSt11char_traitsIcESaIcEEESt6vectorIS9_SaIS9_EEEESE_EEbT_T0_
FNDA:0,_ZNK9__gnu_cxx5__ops15_Iter_less_iterclINS_17__normal_iteratorIPcSt6vectorIcSaIcEEEES8_EEbT_T0_
FNDA:9,_ZN9__gnu_cxx5__ops16__iter_less_iterEv
FNDA:0,_ZN9__gnu_cxx5__ops14_Iter_less_valC2ENS0_15_Iter_less_iterE
FNDA:0,_ZNK9__gnu_cxx5__ops14_Iter_less_valclINS_17__normal_iteratorIPKcSt6vectorIcSaIcEEEES4_EEbT_RT0_
FNDA:0,_ZNK9__gnu_cxx5__ops14_Iter_less_valclINS_17__normal_iteratorIPNSt7__cxx1112basic_stringIcSt11char_traitsIcESaIcEEESt6vectorIS9_SaIS9_EEEES9_EEbT_RT0_
FNDA:0,_ZNK9__gnu_cxx5__ops14_Iter_less_valclINS_17__normal_iteratorIPcSt6vectorIcSaIcEEEEcEEbT_RT0_
FNDA:1536,_ZN9__gnu_cxx5__ops15__iter_less_valEv
FNDA:0,_ZNK9__gnu_cxx5__ops14_Val_less_iterclINSt7__cxx1112basic_stringIcSt11char_traitsIcESaIcEEENS_17__normal_iteratorIPS8_St6vectorIS8_SaIS8_EEEEEEbRT_T0_
FNDA:0,_ZNK9__gnu_cxx5__ops14_Val_less_iterclIcNS_17__normal_iteratorIPcSt6vectorIcSaIcEEEEEEbRT_T0_
FNF:17
FNH:3
DA:44,0
DA:45,0
DA:50,9
DA:51,9
DA:63,0
DA:68,0
DA:69,0
DA:74,1536
DA:75,1536
DA:97,0
DA:98,0
DA:108,0
DA:109,0
DA:116,0
DA:117,0
DA:122,9
DA:123,9
DA:262,0
DA:263,0
DA:264,0
DA:269,0
DA:270,0
DA:276,0
DA:277,0
LF:24
LH:6
end_of_record
TN:
SF:/usr/include/c++/13/bits/ptr_traits.h
FN:212,216,_ZSt12__to_addressISt23_Sp_counted_ptr_inplaceINSt8__detail4_NFAINSt7__cxx1112regex_traitsIcEEEESaIvELN9__gnu_cxx12_Lock_policyE2EEEPT_SC_
FNDA:2,_ZSt12__to_addressISt23_Sp_counted_ptr_inplaceINSt8__detail4_NFAINSt7__cxx1112regex_traitsIcEEEESaIvELN9__gnu_cxx12_Lock_policyE2EEEPT_SC_
FNF:1
FNH:1
DA:212,2
DA:215,2
LF:2
LH:2
end_of_record
TN:
SF:/usr/include/c++/13/bits/regex.h
FN:112,115,_ZNSt7__cxx1112regex_traitsIcE10_RegexMaskC2Eth
FN:118,122,_ZNKSt7__cxx1112regex_traitsIcE10_RegexMaskanES2_
FN:125,129,_ZNKSt7__cxx1112regex_traitsIcE10_RegexMaskorES2_
FN:147,148,_ZNSt7__cxx1112regex_traitsIcE10_RegexMaskoRES2_
FN:155,160,_ZNKSt7__cxx1112regex_traitsIcE10_RegexMaskeqES2_
FN:164,165,_ZNKSt7__cxx1112regex_traitsIcE10_RegexMaskneES2_
FN:176,176,_ZNSt7__cxx1112regex_traitsIcEC2Ev
FN:1801,1801,_ZNSt7__cxx1113match_resultsIN9__gnu_cxx17__normal_iteratorIPKcNS_12basic_stringIcSt11char_traitsIcESaIcEEEEESaINS_9sub_matchISA_EEEEC2Ev
FN:1808,1810,_ZNSt7__cxx1113match_resultsIN9__gnu_cxx17__normal_iteratorIPKcNS_12basic_stringIcSt11char_traitsIcESaIcEEEEESaINS_9sub_matchISA_EEEEC2ERKSD_
FN:1837,1837,_ZNSt7__cxx1113match_resultsIN9__gnu_cxx17__normal_iteratorIPKcNS_12basic_stringIcSt11char_traitsIcESaIcEEEEESaINS_9sub_matchISA_EEEED2Ev
FN:1857,1857,_ZNKSt7__cxx1113match_resultsIN9__gnu_cxx17__normal_iteratorIPKcNS_12basic_stringIcSt11char_traitsIcESaIcEEEEESaINS_9sub_matchISA_EEEE5readyEv
FN:1874,1875,_ZNKSt7__cxx1113match_resultsIN9__gnu_cxx17__normal_iteratorIPKcNS_12basic_stringIcSt11char_traitsIcESaIcEEEEESaINS_9sub_matchISA_EEEE4sizeEv
FN:189,190,_ZNSt7__cxx1112regex_traitsIcE6lengthEPKc
FN:1949,1955,_ZNKSt7__cxx1113match_resultsIN9__gnu_cxx17__normal_iteratorIPKcNS_12basic_stringIcSt11char_traitsIcESaIcEEEEESaINS_9sub_matchISA_EEEEixEm
FN:200,201,_ZNKSt7__cxx1112regex_traitsIcE9translateEc
FN:2128,2129,_ZNSt7__cxx1113match_resultsIN9__gnu_cxx17__normal_iteratorIPKcNS_12basic_stringIcSt11char_traitsIcESaIcEEEEESaINS_9sub_matchISA_EEEE9_M_resizeEj
FN:213,218,_ZNKSt7__cxx1112regex_traitsIcE16translate_nocaseEc
FN:2133,2138,_ZNSt7__cxx1113match_resultsIN9__gnu_cxx17__normal_iteratorIPKcNS_12basic_stringIcSt11char_traitsIcESaIcEEEEESaINS_9sub_matchISA_EEEE25_M_establish_failed_matchESA_
FN:2141,2142,_ZNKSt7__cxx1113match_resultsIN9__gnu_cxx17__normal_iteratorIPKcNS_12basic_stringIcSt11char_traitsIcESaIcEEEEESaINS_9sub_matchISA_EEEE16_M_unmatched_subEv
FN:2153,2154,_ZNSt7__cxx1113match_resultsIN9__gnu_cxx17__normal_iteratorIPKcNS_12basic_stringIcSt11char_traitsIcESaIcEEEEESaINS_9sub_matchISA_EEEE9_M_prefixEv
FN:2161,2162,_ZNSt7__cxx1113match_resultsIN9__gnu_cxx17__normal_iteratorIPKcNS_12basic_stringIcSt11char_traitsIcESaIcEEEEESaINS_9sub_matchISA_EEEE9_M_suffixEv
FN:2261,2270,_ZSt11regex_matchIN9__gnu_cxx17__normal_iteratorIPKcNSt7__cxx1112basic_stringIcSt11char_traitsIcESaIcEEEEESaINS4_9sub_matchISA_EEEcNS4_12regex_traitsIcEEEbT_SG_RNS4_13match_resultsISG_T0_EERKNS4_11basic_regexIT1_T2_EENSt15regex_constants15match_flag_typeE
FN:2337,2343,_ZSt11regex_matchISt11char_traitsIcESaIcESaINSt7__cxx119sub_matchIN9__gnu_cxx17__normal_iteratorIPKcNS3_12basic_stringIcS1_S2_EEEEEEEcNS3_12regex_traitsIcEEEbRKNS9_IT2_T_T0_EERNS3_13match_resultsINSJ_14const_iteratorET1_EERKNS3_11basic_regexISG_T3_EENSt15regex_constants15match_flag_typeE
FN:242,248,_ZNKSt7__cxx1112regex_traitsIcE9transformIN9__gnu_cxx17__normal_iteratorIPcNS_12basic_stringIcSt11char_traitsIcESaIcEEEEEEESA_T_SC_
FN:242,248,_ZNKSt7__cxx1112regex_traitsIcE9transformIPcEENS_12basic_stringIcSt11char_traitsIcESaIcEEET_S9_
FN:266,279,_ZNKSt7__cxx1112regex_traitsIcE17transform_primaryIPKcEENS_12basic_stringIcSt11char_traitsIcESaIcEEET_SA_
FN:266,279,_ZNKSt7__cxx1112regex_traitsIcE17transform_primaryIPcEENS_12basic_stringIcSt11char_traitsIcESaIcEEET_S9_
FN:378,382,_ZNSt7__cxx1112regex_traitsIcE5imbueESt6locale
FN:389,390,_ZNKSt7__cxx1112regex_traitsIcE6getlocEv
FN:472,473,_ZNSt7__cxx1111basic_regexIcNS_12regex_traitsIcEEEC2EPKcNSt15regex_constants18syntax_option_typeE
FN:556,557,_ZNSt7__cxx1111basic_regexIcNS_12regex_traitsIcEEED2Ev
FN:757,758,_ZNKSt7__cxx1111basic_regexIcNS_12regex_traitsIcEEE5flagsEv
FN:806,812,_ZNSt7__cxx1111basic_regexIcNS_12regex_traitsIcEEE10_M_compileEPKcS5_NSt15regex_constants18syntax_option_typeE
FN:937,937,_ZNSt7__cxx119sub_matchIN9__gnu_cxx17__normal_iteratorIPKcNS_12basic_stringIcSt11char_traitsIcESaIcEEEEEEC2Ev
FN:963,968,_ZNKSt7__cxx119sub_matchIN9__gnu_cxx17__normal_iteratorIPKcNS_12basic_stringIcSt11char_traitsIcESaIcEEEEEE3strEv
FNDA:18,_ZNSt7__cxx1112regex_traitsIcE10_RegexMaskC2Eth
FNDA:0,_ZNKSt7__cxx1112regex_traitsIcE10_RegexMaskanES2_
FNDA:6,_ZNKSt7__cxx1112regex_traitsIcE10_RegexMaskorES2_
FNDA:6,_ZNSt7__cxx1112regex_traitsIcE10_RegexMaskoRES2_
FNDA:6,_ZNKSt7__cxx1112regex_traitsIcE10_RegexMaskeqES2_
FNDA:0,_ZNKSt7__cxx1112regex_traitsIcE10_RegexMaskneES2_
FNDA:2,_ZNSt7__cxx1112regex_traitsIcEC2Ev
FNDA:15,_ZNSt7__cxx1113match_resultsIN9__gnu_cxx17__normal_iteratorIPKcNS_12basic_stringIcSt11char_traitsIcESaIcEEEEESaINS_9sub_matchISA_EEEEC2Ev
FNDA:15,_ZNSt7__cxx1113match_resultsIN9__gnu_cxx17__normal_iteratorIPKcNS_12basic_stringIcSt11char_traitsIcESaIcEEEEESaINS_9sub_matchISA_EEEEC2ERKSD_
FNDA:15,_ZNSt7__cxx1113match_resultsIN9__gnu_cxx17__normal_iteratorIPKcNS_12basic_stringIcSt11char_traitsIcESaIcEEEEESaINS_9sub_matchISA_EEEED2Ev
FNDA:0,_ZNKSt7__cxx1113match_resultsIN9__gnu_cxx17__normal_iteratorIPKcNS_12basic_stringIcSt11char_traitsIcESaIcEEEEESaINS_9sub_matchISA_EEEE5readyEv
FNDA:15,_ZNKSt7__cxx1113match_resultsIN9__gnu_cxx17__normal_iteratorIPKcNS_12basic_stringIcSt11char_traitsIcESaIcEEEEESaINS_9sub_matchISA_EEEE4sizeEv
FNDA:2,_ZNSt7__cxx1112regex_traitsIcE6lengthEPKc
FNDA:15,_ZNKSt7__cxx1113match_resultsIN9__gnu_cxx17__normal_iteratorIPKcNS_12basic_stringIcSt11char_traitsIcESaIcEEEEESaINS_9sub_matchISA_EEEEixEm
FNDA:0,_ZNKSt7__cxx1112regex_traitsIcE9translateEc
FNDA:22,_ZNSt7__cxx1113match_resultsIN9__gnu_cxx17__normal_iteratorIPKcNS_12basic_stringIcSt11char_traitsIcESaIcEEEEESaINS_9sub_matchISA_EEEE9_M_resizeEj
FNDA:0,_ZNKSt7__cxx1112regex_traitsIcE16translate_nocaseEc
FNDA:7,_ZNSt7__cxx1113match_resultsIN9__gnu_cxx17__normal_iteratorIPKcNS_12basic_stringIcSt11char_traitsIcESaIcEEEEESaINS_9sub_matchISA_EEEE25_M_establish_failed_matchESA_
FNDA:0,_ZNKSt7__cxx1113match_resultsIN9__gnu_cxx17__normal_iteratorIPKcNS_12basic_stringIcSt11char_traitsIcESaIcEEEEESaINS_9sub_matchISA_EEEE16_M_unmatched_subEv
FNDA:15,_ZNSt7__cxx1113match_resultsIN9__gnu_cxx17__normal_iteratorIPKcNS_12basic_stringIcSt11char_traitsIcESaIcEEEEESaINS_9sub_matchISA_EEEE9_M_prefixEv
FNDA:15,_ZNSt7__cxx1113match_resultsIN9__gnu_cxx17__normal_iteratorIPKcNS_12basic_stringIcSt11char_traitsIcESaIcEEEEESaINS_9sub_matchISA_EEEE9_M_suffixEv
FNDA:22,_ZSt11regex_matchIN9__gnu_cxx17__normal_iteratorIPKcNSt7__cxx1112basic_stringIcSt11char_traitsIcESaIcEEEEESaINS4_9sub_matchISA_EEEcNS4_12regex_traitsIcEEEbT_SG_RNS4_13match_resultsISG_T0_EERKNS4_11basic_regexIT1_T2_EENSt15regex_constants15match_flag_typeE
FNDA:22,_ZSt11regex_matchISt11char_traitsIcESaIcESaINSt7__cxx119sub_matchIN9__gnu_cxx17__normal_iteratorIPKcNS3_12basic_stringIcS1_S2_EEEEEEEcNS3_12regex_traitsIcEEEbRKNS9_IT2_T_T0_EERNS3_13match_resultsINSJ_14const_iteratorET1_EERKNS3_11basic_regexISG_T3_EENSt15regex_constants15match_flag_typeE
FNDA:0,_ZNKSt7__cxx1112regex_traitsIcE9transformIN9__gnu_cxx17__normal_iteratorIPcNS_12basic_stringIcSt11char_traitsIcESaIcEEEEEEESA_T_SC_
FNDA:1492,_ZNKSt7__cxx1112regex_traitsIcE9transformIPcEENS_12basic_stringIcSt11char_traitsIcESaIcEEET_S9_
FNDA:1492,_ZNKSt7__cxx1112regex_traitsIcE17transform_primaryIPKcEENS_12basic_stringIcSt11char_traitsIcESaIcEEET_SA_
FNDA:0,_ZNKSt7__cxx1112regex_traitsIcE17transform_primaryIPcEENS_12basic_stringIcSt11char_traitsIcESaIcEEET_S9_
FNDA:2,_ZNSt7__cxx1112regex_traitsIcE5imbueESt6locale
FNDA:0,_ZNKSt7__cxx1112regex_traitsIcE6getlocEv
FNDA:2,_ZNSt7__cxx1111basic_regexIcNS_12regex_traitsIcEEEC2EPKcNSt15regex_constants18syntax_option_typeE
FNDA:2,_ZNSt7__cxx1111basic_regexIcNS_12regex_traitsIcEEED2Ev
FNDA:22,_ZNKSt7__cxx1111basic_regexIcNS_12regex_traitsIcEEE5flagsEv
FNDA:2,_ZNSt7__cxx1111basic_regexIcNS_12regex_traitsIcEEE10_M_compileEPKcS5_NSt15regex_constants18syntax_option_typeE
FNDA:22,_ZNSt7__cxx119sub_matchIN9__gnu_cxx17__normal_iteratorIPKcNS_12basic_stringIcSt11char_traitsIcESaIcEEEEEEC2Ev
FNDA:15,_ZNKSt7__cxx119sub_matchIN9__gnu_cxx17__normal_iteratorIPKcNS_12basic_stringIcSt11char_traitsIcESaIcEEEEEE3strEv
FNF:35
FNH:26
BRDA:159,0,0,6
BRDA:159,0,1,0
BRDA:159,0,2,0
BRDA:159,0,3,6
BRDA:245,0,0,1492
BRDA:245,e0,1,0
BRDA:246,0,0,1492
BRDA:246,e0,1,0
BRDA:247,0,0,1492
BRDA:247,e0,1,0
BRDA:275,0,0,1492
BRDA:275,e0,1,0
BRDA:276,0,0,1492
BRDA:276,e0,1,0
BRDA:277,0,0,1492
BRDA:277,e0,1,0
BRDA:278,0,0,1492
BRDA:278,e0,1,0
BRDA:473,0,0,2
BRDA:473,e0,1,0
BRDA:473,0,2,2
BRDA:473,e0,3,0
BRDA:809,0,0,2
BRDA:809,e0,1,0
BRDA:967,0,0,15
BRDA:967,0,1,0
BRDA:967,0,2,15
BRDA:967,e0,3,0
BRDA:967,0,4,15
BRDA:967,0,5,0
BRDA:967,0,6,0
BRDA:967,0,7,0
BRDA:1875,0,0,0
BRDA:1875,0,1,15
BRDA:1951,0,0,0
BRDA:1951,0,1,15
BRDA:1951,0,2,0
BRDA:1951,0,3,0
BRDA:1951,0,4,0
BRDA:1951,0,5,15
BRDA:1953,0,0,15
BRDA:1953,0,1,0
BRDA:2129,0,0,22
BRDA:2129,e0,1,0
BRDA:2137,0,0,7
BRDA:2137,e0,1,0
BRF:46
BRH:21
DA:112,18
DA:114,18
DA:115,18
DA:118,0
DA:120,0
DA:121,0
DA:125,6
DA:127,12
DA:128,6
DA:147,6
DA:148,6
DA:155,6
DA:157,6
DA:158,6
DA:159,6
DA:164,0
DA:165,0
DA:176,2
DA:189,2
DA:190,2
DA:200,0
DA:201,0
DA:213,0
DA:216,0
DA:217,0
DA:242,1492
DA:245,1492
DA:246,1492
DA:247,2984
DA:248,1492
DA:266,1492
DA:275,1492
DA:276,1492
DA:277,1492
DA:278,2984
DA:279,1492
DA:378,2
DA:380,2
DA:381,2
DA:389,0
DA:390,0
DA:472,2
DA:473,2
DA:556,2
DA:557,2
DA:757,22
DA:758,22
DA:806,2
DA:809,2
DA:810,2
DA:811,2
DA:812,2
DA:937,22
DA:963,15
DA:965,15
DA:966,15
DA:967,45
DA:1801,30
DA:1808,15
DA:1809,15
DA:1810,15
DA:1837,15
DA:1857,0
DA:1874,15
DA:1875,15
DA:1949,15
DA:1951,15
DA:1952,15
DA:1953,15
DA:1954,0
DA:2128,22
DA:2129,22
DA:2133,7
DA:2135,7
DA:2136,7
DA:2137,7
DA:2138,7
DA:2141,0
DA:2142,0
DA:2153,15
DA:2154,15
DA:2161,15
DA:2162,15
DA:2261,22
DA:2268,22
DA:2269,22
DA:2337,22
DA:2343,22
LF:88
LH:72
end_of_record
TN:
SF:/usr/include/c++/13/bits/regex.tcc
FN:122,273,_ZNKSt7__cxx1112regex_traitsIcE18lookup_collatenameIPKcEENS_12basic_stringIcSt11char_traitsIcESaIcEEET_SA_
FN:278,318,_ZNKSt7__cxx1112regex_traitsIcE16lookup_classnameIPKcEENS1_10_RegexMaskET_S6_b
FN:322,332,_ZNKSt7__cxx1112regex_traitsIcE7isctypeEcNS1_10_RegexMaskE
FN:336,347,_ZNKSt7__cxx1112regex_traitsIcE5valueEci
FN:48,115,_ZNSt8__detail17__regex_algo_implIN9__gnu_cxx17__normal_iteratorIPKcNSt7__cxx1112basic_stringIcSt11char_traitsIcESaIcEEEEESaINS5_9sub_matchISB_EEEcNS5_12regex_traitsIcEEEEbT_SH_RNS5_13match_resultsISH_T0_EERKNS5_11basic_regexIT1_T2_EENSt15regex_constants15match_flag_typeENS_20_RegexExecutorPolicyEb
FNDA:0,_ZNKSt7__cxx1112regex_traitsIcE18lookup_collatenameIPKcEENS_12basic_stringIcSt11char_traitsIcESaIcEEET_SA_
FNDA:6,_ZNKSt7__cxx1112regex_traitsIcE16lookup_classnameIPKcEENS1_10_RegexMaskET_S6_b
FNDA:1536,_ZNKSt7__cxx1112regex_traitsIcE7isctypeEcNS1_10_RegexMaskE
FNDA:4,_ZNKSt7__cxx1112regex_traitsIcE5valueEci
FNDA:22,_ZNSt8__detail17__regex_algo_implIN9__gnu_cxx17__normal_iteratorIPKcNSt7__cxx1112basic_stringIcSt11char_traitsIcESaIcEEEEESaINS5_9sub_matchISB_EEEcNS5_12regex_traitsIcEEEEbT_SH_RNS5_13match_resultsISH_T0_EERKNS5_11basic_regexIT1_T2_EENSt15regex_constants15match_flag_typeENS_20_RegexExecutorPolicyEb
FNF:5
FNH:4
BRDA:56,0,0,0
BRDA:56,0,1,22
BRDA:65,0,0,22
BRDA:65,0,1,0
BRDA:65,0,2,0
BRDA:65,0,3,22
BRDA:65,0,4,0
BRDA:65,0,5,22
BRDA:66,0,0,-
BRDA:66,0,1,-
BRDA:69,0,0,-
BRDA:69,e0,1,-
BRDA:70,0,0,-
BRDA:70,0,1,-
BRDA:71,0,0,-
BRDA:71,e0,1,-
BRDA:73,0,0,-
BRDA:73,e0,1,-
BRDA:78,0,0,22
BRDA:78,e0,1,0
BRDA:79,0,0,22
BRDA:79,0,1,0
BRDA:80,0,0,22
BRDA:80,e0,1,0
BRDA:82,0,0,-
BRDA:82,e0,1,-
BRDA:84,0,0,15
BRDA:84,0,1,7
BRDA:86,0,0,75
BRDA:86,0,1,15
BRDA:87,0,0,45
BRDA:87,0,1,30
BRDA:91,0,0,15
BRDA:91,0,1,0
BRDA:126,0,0,-
BRDA:126,e0,1,-
BRDA:261,0,0,-
BRDA:261,0,1,-
BRDA:262,0,0,-
BRDA:262,e0,1,-
BRDA:262,0,2,-
BRDA:262,e0,3,-
BRDA:264,0,0,-
BRDA:264,0,1,-
BRDA:265,0,0,-
BRDA:265,e0,1,-
BRDA:265,0,2,-
BRDA:265,0,3,-
BRDA:267,0,0,-
BRDA:267,e0,1,-
BRDA:267,0,2,-
BRDA:267,e0,3,-
BRDA:282,0,0,6
BRDA:282,e0,1,0
BRDA:305,0,0,6
BRDA:305,0,1,6
BRDA:306,0,0,6
BRDA:306,e0,1,0
BRDA:306,0,2,6
BRDA:306,e0,3,0
BRDA:306,0,4,6
BRDA:306,e0,5,0
BRDA:308,0,0,14
BRDA:308,0,1,0
BRDA:309,0,0,14
BRDA:309,e0,1,0
BRDA:309,0,2,6
BRDA:309,0,3,8
BRDA:312,0,0,0
BRDA:312,0,1,6
BRDA:312,0,2,0
BRDA:312,0,3,0
BRDA:313,0,0,0
BRDA:313,0,1,6
BRDA:330,0,0,1492
BRDA:330,0,1,44
BRDA:330,0,2,0
BRDA:330,0,3,1492
BRDA:331,0,0,0
BRDA:331,0,1,0
BRDA:339,0,0,4
BRDA:339,e0,1,0
BRDA:339,0,2,4
BRDA:339,e0,3,0
BRDA:341,0,0,0
BRDA:341,0,1,4
BRDA:342,0,0,-
BRDA:342,e0,1,-
BRDA:343,0,0,0
BRDA:343,0,1,4
BRDA:344,0,0,-
BRDA:344,e0,1,-
BRDA:345,0,0,4
BRDA:345,e0,1,0
BRDA:346,0,0,0
BRDA:346,0,1,4
BRF:96
BRH:35
DA:48,22
DA:56,22
DA:57,0
DA:59,22
DA:60,22
DA:61,22
DA:64,22
DA:65,22
DA:66,0
DA:69,0
DA:70,0
DA:71,0
DA:73,0
DA:74,0
DA:78,22
DA:79,22
DA:80,22
DA:82,0
DA:83,22
DA:84,22
DA:86,90
DA:87,75
DA:88,45
DA:89,15
DA:90,15
DA:91,15
DA:93,15
DA:94,15
DA:95,15
DA:96,15
DA:97,15
DA:98,15
DA:102,0
DA:103,0
DA:104,0
DA:105,0
DA:106,0
DA:107,0
DA:112,7
DA:114,22
DA:122,0
DA:126,0
DA:260,0
DA:261,0
DA:262,0
DA:264,0
DA:265,0
DA:266,0
DA:267,0
DA:272,0
DA:273,0
DA:278,6
DA:282,6
DA:304,6
DA:305,12
DA:306,6
DA:308,14
DA:309,14
DA:311,6
DA:312,6
DA:313,6
DA:314,0
DA:315,6
DA:317,0
DA:318,6
DA:322,1536
DA:326,1536
DA:328,1536
DA:330,1536
DA:331,1536
DA:336,4
DA:339,4
DA:341,4
DA:342,0
DA:343,4
DA:344,0
DA:345,4
DA:346,8
DA:347,4
LF:79
LH:50
end_of_record
TN:
SF:/usr/include/c++/13/bits/regex_automaton.h
FN:104,109,_ZNKSt8__detail11_State_base10_M_has_altEv
FN:133,137,_ZNSt8__detail6_StateIcEC2ENS_7_OpcodeE
FN:139,144,_ZNSt8__detail6_StateIcEC2ERKS1_
FN:146,151,_ZNSt8__detail6_StateIcEC2EOS1_
FN:156,160,_ZNSt8__detail6_StateIcED2Ev
FN:165,166,_ZNKSt8__detail6_StateIcE9_M_opcodeEv
FN:169,170,_ZNKSt8__detail6_StateIcE10_M_matchesEc
FN:173,174,_ZNSt8__detail6_StateIcE14_M_get_matcherEv
FN:177,181,_ZNKSt8__detail6_StateIcE14_M_get_matcherEv
FN:189,192,_ZNSt8__detail9_NFA_baseC2ENSt15regex_constants18syntax_option_typeE
FN:197,197,_ZNSt8__detail9_NFA_baseD2Ev
FN:201,202,_ZNKSt8__detail9_NFA_base10_M_optionsEv
FN:205,206,_ZNKSt8__detail9_NFA_base8_M_startEv
FN:209,210,_ZNKSt8__detail9_NFA_base12_M_sub_countEv
FN:227,229,_ZNSt8__detail4_NFAINSt7__cxx1112regex_traitsIcEEEC2ERKSt6localeNSt15regex_constants18syntax_option_typeE
FN:236,240,_ZNSt8__detail4_NFAINSt7__cxx1112regex_traitsIcEEE16_M_insert_acceptEv
FN:243,252,_ZNSt8__detail4_NFAINSt7__cxx1112regex_traitsIcEEE13_M_insert_altEllb
FN:255,264,_ZNSt8__detail4_NFAINSt7__cxx1112regex_traitsIcEEE16_M_insert_repeatEllb
FN:267,272,_ZNSt8__detail4_NFAINSt7__cxx1112regex_traitsIcEEE17_M_insert_matcherESt8functionIFbcEE
FN:275,282,_ZNSt8__detail4_NFAINSt7__cxx1112regex_traitsIcEEE23_M_insert_subexpr_beginEv
FN:285,291,_ZNSt8__detail4_NFAINSt7__cxx1112regex_traitsIcEEE21_M_insert_subexpr_endEv
FN:297,298,_ZNSt8__detail4_NFAINSt7__cxx1112regex_traitsIcEEE20_M_insert_line_beginEv
FN:301,302,_ZNSt8__detail4_NFAINSt7__cxx1112regex_traitsIcEEE18_M_insert_line_endEv
FN:305,310,_ZNSt8__detail4_NFAINSt7__cxx1112regex_traitsIcEEE20_M_insert_word_boundEb
FN:313,319,_ZNSt8__detail4_NFAINSt7__cxx1112regex_traitsIcEEE19_M_insert_lookaheadElb
FN:322,323,_ZNSt8__detail4_NFAINSt7__cxx1112regex_traitsIcEEE15_M_insert_dummyEv
FN:326,336,_ZNSt8__detail4_NFAINSt7__cxx1112regex_traitsIcEEE15_M_insert_stateENS_6_StateIcEE
FN:360,362,_ZNSt8__detail9_StateSeqINSt7__cxx1112regex_traitsIcEEEC2ERNS_4_NFAIS3_EEl
FN:364,366,_ZNSt8__detail9_StateSeqINSt7__cxx1112regex_traitsIcEEEC2ERNS_4_NFAIS3_EEll
FN:370,374,_ZNSt8__detail9_StateSeqINSt7__cxx1112regex_traitsIcEEE9_M_appendEl
FN:378,382,_ZNSt8__detail9_StateSeqINSt7__cxx1112regex_traitsIcEEE9_M_appendERKS4_
FN:98,100,_ZNSt8__detail11_State_baseC2ENS_7_OpcodeE
FNDA:58,_ZNKSt8__detail11_State_base10_M_has_altEv
FNDA:43,_ZNSt8__detail6_StateIcEC2ENS_7_OpcodeE
FNDA:5,_ZNSt8__detail6_StateIcEC2ERKS1_
FNDA:148,_ZNSt8__detail6_StateIcEC2EOS1_
FNDA:196,_ZNSt8__detail6_StateIcED2Ev
FNDA:805,_ZNKSt8__detail6_StateIcE9_M_opcodeEv
FNDA:194,_ZNKSt8__detail6_StateIcE10_M_matchesEc
FNDA:211,_ZNSt8__detail6_StateIcE14_M_get_matcherEv
FNDA:199,_ZNKSt8__detail6_StateIcE14_M_get_matcherEv
FNDA:2,_ZNSt8__detail9_NFA_baseC2ENSt15regex_constants18syntax_option_typeE
FNDA:2,_ZNSt8__detail9_NFA_baseD2Ev
FNDA:0,_ZNKSt8__detail9_NFA_base10_M_optionsEv
FNDA:24,_ZNKSt8__detail9_NFA_base8_M_startEv
FNDA:22,_ZNKSt8__detail9_NFA_base12_M_sub_countEv
FNDA:2,_ZNSt8__detail4_NFAINSt7__cxx1112regex_traitsIcEEEC2ERKSt6localeNSt15regex_constants18syntax_option_typeE
FNDA:2,_ZNSt8__detail4_NFAINSt7__cxx1112regex_traitsIcEEE16_M_insert_acceptEv
FNDA:0,_ZNSt8__detail4_NFAINSt7__cxx1112regex_traitsIcEEE13_M_insert_altEllb
FNDA:7,_ZNSt8__detail4_NFAINSt7__cxx1112regex_traitsIcEEE16_M_insert_repeatEllb
FNDA:18,_ZNSt8__detail4_NFAINSt7__cxx1112regex_traitsIcEEE17_M_insert_matcherESt8functionIFbcEE
FNDA:4,_ZNSt8__detail4_NFAINSt7__cxx1112regex_traitsIcEEE23_M_insert_subexpr_beginEv
FNDA:4,_ZNSt8__detail4_NFAINSt7__cxx1112regex_traitsIcEEE21_M_insert_subexpr_endEv
FNDA:0,_ZNSt8__detail4_NFAINSt7__cxx1112regex_traitsIcEEE20_M_insert_line_beginEv
FNDA:0,_ZNSt8__detail4_NFAINSt7__cxx1112regex_traitsIcEEE18_M_insert_line_endEv
FNDA:0,_ZNSt8__detail4_NFAINSt7__cxx1112regex_traitsIcEEE20_M_insert_word_boundEb
FNDA:0,_ZNSt8__detail4_NFAINSt7__cxx1112regex_traitsIcEEE19_M_insert_lookaheadElb
FNDA:8,_ZNSt8__detail4_NFAINSt7__cxx1112regex_traitsIcEEE15_M_insert_dummyEv
FNDA:48,_ZNSt8__detail4_NFAINSt7__cxx1112regex_traitsIcEEE15_M_insert_stateENS_6_StateIcEE
FNDA:32,_ZNSt8__detail9_StateSeqINSt7__cxx1112regex_traitsIcEEEC2ERNS_4_NFAIS3_EEl
FNDA:8,_ZNSt8__detail9_StateSeqINSt7__cxx1112regex_traitsIcEEEC2ERNS_4_NFAIS3_EEll
FNDA:10,_ZNSt8__detail9_StateSeqINSt7__cxx1112regex_traitsIcEEE9_M_appendEl
FNDA:33,_ZNSt8__detail9_StateSeqINSt7__cxx1112regex_traitsIcEEE9_M_appendERKS4_
FNDA:43,_ZNSt8__detail11_State_baseC2ENS_7_OpcodeE
FNF:32
FNH:26
BRDA:107,0,0,51
BRDA:107,0,1,7
BRDA:108,0,0,58
BRDA:108,0,1,0
BRDA:108,0,2,0
BRDA:108,0,3,51
BRDA:135,0,0,18
BRDA:135,0,1,25
BRDA:141,0,0,5
BRDA:141,0,1,0
BRDA:142,0,0,5
BRDA:142,e0,1,0
BRDA:142,0,2,0
BRDA:142,0,3,0
BRDA:148,0,0,85
BRDA:148,0,1,63
BRDA:158,0,0,108
BRDA:158,0,1,88
BRDA:238,0,0,2
BRDA:238,e0,1,0
BRDA:251,0,0,-
BRDA:251,e0,1,-
BRDA:263,0,0,7
BRDA:263,e0,1,0
BRDA:271,0,0,18
BRDA:271,e0,1,0
BRDA:278,0,0,4
BRDA:278,e0,1,0
BRDA:281,0,0,4
BRDA:281,e0,1,0
BRDA:290,0,0,4
BRDA:290,e0,1,0
BRDA:298,0,0,-
BRDA:298,e0,1,-
BRDA:302,0,0,-
BRDA:302,e0,1,-
BRDA:309,0,0,-
BRDA:309,e0,1,-
BRDA:318,0,0,-
BRDA:318,e0,1,-
BRDA:323,0,0,8
BRDA:323,e0,1,0
BRDA:329,0,0,0
BRDA:329,0,1,48
BRF:44
BRH:20
DA:98,43
DA:99,43
DA:100,43
DA:104,58
DA:106,58
DA:107,58
DA:108,116
DA:133,43
DA:135,43
DA:136,18
DA:137,43
DA:139,5
DA:141,5
DA:142,10
DA:143,5
DA:144,5
DA:146,148
DA:148,148
DA:149,170
DA:150,85
DA:151,148
DA:156,196
DA:158,196
DA:159,108
DA:160,196
DA:165,805
DA:166,805
DA:169,194
DA:170,194
DA:173,211
DA:174,211
DA:177,199
DA:180,199
DA:189,2
DA:190,4
DA:191,2
DA:192,2
DA:197,2
DA:201,0
DA:202,0
DA:205,24
DA:206,24
DA:209,22
DA:210,22
DA:227,2
DA:228,2
DA:229,2
DA:236,2
DA:238,2
DA:239,2
DA:243,0
DA:246,0
DA:249,0
DA:250,0
DA:251,0
DA:252,0
DA:255,7
DA:257,7
DA:260,7
DA:261,7
DA:262,7
DA:263,14
DA:264,7
DA:267,18
DA:269,18
DA:270,18
DA:271,36
DA:272,18
DA:275,4
DA:277,4
DA:278,4
DA:279,4
DA:280,4
DA:281,8
DA:282,4
DA:285,4
DA:287,4
DA:288,4
DA:289,4
DA:290,8
DA:291,4
DA:297,0
DA:298,0
DA:301,0
DA:302,0
DA:305,0
DA:307,0
DA:308,0
DA:309,0
DA:310,0
DA:313,0
DA:315,0
DA:316,0
DA:317,0
DA:318,0
DA:319,0
DA:322,8
DA:323,8
DA:326,48
DA:328,48
DA:329,48
DA:330,0
DA:335,48
DA:360,32
DA:361,32
DA:362,32
DA:364,8
DA:365,8
DA:366,8
DA:370,10
DA:372,10
DA:373,10
DA:374,10
DA:378,33
DA:380,33
DA:381,33
DA:382,33
LF:117
LH:93
end_of_record
TN:
SF:/usr/include/c++/13/bits/regex_automaton.tcc
FN:149,174,_ZNSt8__detail4_NFAINSt7__cxx1112regex_traitsIcEEE17_M_insert_backrefEm
FN:178,190,_ZNSt8__detail4_NFAINSt7__cxx1112regex_traitsIcEEE18_M_eliminate_dummyEv
FN:195,228,_ZNSt8__detail9_StateSeqINSt7__cxx1112regex_traitsIcEEE8_M_cloneEv
FNDA:0,_ZNSt8__detail4_NFAINSt7__cxx1112regex_traitsIcEEE17_M_insert_backrefEm
FNDA:2,_ZNSt8__detail4_NFAINSt7__cxx1112regex_traitsIcEEE18_M_eliminate_dummyEv
FNDA:5,_ZNSt8__detail9_StateSeqINSt7__cxx1112regex_traitsIcEEE8_M_cloneEv
FNF:3
FNH:2
BRDA:151,0,0,-
BRDA:151,0,1,-
BRDA:161,0,0,-
BRDA:161,0,1,-
BRDA:165,0,0,-
BRDA:165,0,1,-
BRDA:166,0,0,-
BRDA:166,0,1,-
BRDA:173,0,0,-
BRDA:173,e0,1,-
BRDA:180,0,0,48
BRDA:180,0,1,2
BRDA:182,0,0,55
BRDA:182,0,1,4
BRDA:182,0,2,11
BRDA:182,0,3,44
BRDA:182,0,4,11
BRDA:182,0,5,48
BRDA:185,0,0,7
BRDA:185,0,1,41
BRDA:186,0,0,7
BRDA:186,0,1,0
BRDA:186,0,2,0
BRDA:186,0,3,7
BRDA:186,0,4,0
BRDA:186,0,5,7
BRDA:198,0,0,5
BRDA:198,e0,1,0
BRDA:199,0,0,5
BRDA:199,e0,1,0
BRDA:200,0,0,0
BRDA:200,0,1,5
BRDA:200,0,2,5
BRDA:200,0,3,5
BRDA:204,0,0,5
BRDA:204,e0,1,0
BRDA:206,0,0,5
BRDA:206,e0,1,0
BRDA:207,0,0,5
BRDA:207,e0,1,0
BRDA:208,0,0,0
BRDA:208,0,1,5
BRDA:210,0,0,-
BRDA:210,0,1,-
BRDA:210,0,2,-
BRDA:210,e0,3,-
BRDA:210,0,4,-
BRDA:210,0,5,-
BRDA:210,0,6,-
BRDA:210,0,7,-
BRDA:211,0,0,-
BRDA:211,e0,1,-
BRDA:212,0,0,5
BRDA:212,0,1,0
BRDA:215,0,0,-
BRDA:215,0,1,-
BRDA:215,0,2,-
BRDA:215,e0,3,-
BRDA:215,0,4,-
BRDA:215,0,5,-
BRDA:215,0,6,-
BRDA:215,0,7,-
BRDA:216,0,0,-
BRDA:216,e0,1,-
BRDA:218,0,0,5
BRDA:218,0,1,5
BRDA:222,0,0,0
BRDA:222,0,1,5
BRDA:223,0,0,-
BRDA:223,e0,1,-
BRDA:224,0,0,0
BRDA:224,0,1,5
BRDA:224,0,2,0
BRDA:224,0,3,0
BRDA:224,0,4,0
BRDA:224,0,5,5
BRDA:225,0,0,-
BRDA:225,e0,1,-
BRDA:227,0,0,5
BRDA:227,e0,1,0
BRDA:227,0,2,5
BRDA:227,e0,3,0
BRF:82
BRH:30
DA:149,0
DA:151,0
DA:152,0
DA:161,0
DA:162,0
DA:165,0
DA:166,0
DA:167,0
DA:170,0
DA:171,0
DA:172,0
DA:173,0
DA:174,0
DA:178,2
DA:180,50
DA:182,59
DA:184,11
DA:185,48
DA:186,7
DA:188,0
DA:190,2
DA:195,5
DA:197,5
DA:198,5
DA:199,5
DA:200,15
DA:202,5
DA:203,5
DA:204,5
DA:206,5
DA:207,5
DA:208,5
DA:209,0
DA:210,0
DA:211,0
DA:212,5
DA:213,5
DA:214,0
DA:215,0
DA:216,0
DA:218,10
DA:220,5
DA:221,5
DA:222,5
DA:223,0
DA:224,5
DA:225,0
DA:227,10
DA:228,5
LF:49
LH:27
end_of_record
TN:
SF:/usr/include/c++/13/bits/regex_compiler.h
FN:131,131,_ZNSt8__detail9_CompilerINSt7__cxx1112regex_traitsIcEEE13_BracketState3setEc
FN:134,134,_ZNKSt8__detail9_CompilerINSt7__cxx1112regex_traitsIcEEE13_BracketState3getEv
FN:137,137,_ZNSt8__detail9_CompilerINSt7__cxx1112regex_traitsIcEEE13_BracketState5resetENS5_5_TypeE
FN:144,144,_ZNKSt8__detail9_CompilerINSt7__cxx1112regex_traitsIcEEE13_BracketState10_M_is_charEv
FN:149,149,_ZNKSt8__detail9_CompilerINSt7__cxx1112regex_traitsIcEEE13_BracketState11_M_is_classEv
FN:171,176,_ZNSt8__detail9_CompilerINSt7__cxx1112regex_traitsIcEEE6_M_popEv
FN:179,196,_ZNSt8__detail9_CompilerINSt7__cxx1112regex_traitsIcEEE11_S_validateENSt15regex_constants18syntax_option_typeE
FN:217,219,_ZNSt8__detail20_RegexTranslatorBaseINSt7__cxx1112regex_traitsIcEELb0ELb1EEC2ERKS3_
FN:217,219,_ZNSt8__detail20_RegexTranslatorBaseINSt7__cxx1112regex_traitsIcEELb1ELb0EEC2ERKS3_
FN:217,219,_ZNSt8__detail20_RegexTranslatorBaseINSt7__cxx1112regex_traitsIcEELb1ELb1EEC2ERKS3_
FN:222,230,_ZNKSt8__detail20_RegexTranslatorBaseINSt7__cxx1112regex_traitsIcEELb0ELb1EE12_M_translateEc
FN:222,230,_ZNKSt8__detail20_RegexTranslatorBaseINSt7__cxx1112regex_traitsIcEELb1ELb0EE12_M_translateEc
FN:222,230,_ZNKSt8__detail20_RegexTranslatorBaseINSt7__cxx1112regex_traitsIcEELb1ELb1EE12_M_translateEc
FN:233,237,_ZNKSt8__detail20_RegexTranslatorBaseINSt7__cxx1112regex_traitsIcEELb0ELb1EE12_M_transformEc
FN:233,237,_ZNKSt8__detail20_RegexTranslatorBaseINSt7__cxx1112regex_traitsIcEELb1ELb1EE12_M_transformEc
FN:243,245,_ZNKSt8__detail20_RegexTranslatorBaseINSt7__cxx1112regex_traitsIcEELb0ELb1EE14_M_match_rangeERKNS1_12basic_stringIcSt11char_traitsIcESaIcEEESB_SB_
FN:248,256,_ZNKSt8__detail20_RegexTranslatorBaseINSt7__cxx1112regex_traitsIcEELb1ELb0EE17_M_in_range_icaseEccc
FN:248,256,_ZNKSt8__detail20_RegexTranslatorBaseINSt7__cxx1112regex_traitsIcEELb1ELb1EE17_M_in_range_icaseEccc
FN:282,283,_ZNKSt8__detail16_RegexTranslatorINSt7__cxx1112regex_traitsIcEELb1ELb0EE12_M_transformEc
FN:286,292,_ZNKSt8__detail16_RegexTranslatorINSt7__cxx1112regex_traitsIcEELb1ELb0EE14_M_match_rangeEccc
FN:308,315,_ZNKSt8__detail16_RegexTranslatorINSt7__cxx1112regex_traitsIcEELb1ELb1EE14_M_match_rangeERKNS1_12basic_stringIcSt11char_traitsIcESaIcEEESB_SB_
FN:326,327,_ZNSt8__detail16_RegexTranslatorINSt7__cxx1112regex_traitsIcEELb0ELb0EEC2ERKS3_
FN:330,331,_ZNKSt8__detail16_RegexTranslatorINSt7__cxx1112regex_traitsIcEELb0ELb0EE12_M_translateEc
FN:334,335,_ZNKSt8__detail16_RegexTranslatorINSt7__cxx1112regex_traitsIcEELb0ELb0EE12_M_transformEc
FN:338,339,_ZNKSt8__detail16_RegexTranslatorINSt7__cxx1112regex_traitsIcEELb0ELb0EE14_M_match_rangeEccc
FN:352,354,_ZNSt8__detail11_AnyMatcherINSt7__cxx1112regex_traitsIcEELb0ELb0ELb0EEC2ERKS3_
FN:352,354,_ZNSt8__detail11_AnyMatcherINSt7__cxx1112regex_traitsIcEELb0ELb0ELb1EEC2ERKS3_
FN:352,354,_ZNSt8__detail11_AnyMatcherINSt7__cxx1112regex_traitsIcEELb0ELb1ELb0EEC2ERKS3_
FN:352,354,_ZNSt8__detail11_AnyMatcherINSt7__cxx1112regex_traitsIcEELb0ELb1ELb1EEC2ERKS3_
FN:357,361,_ZNKSt8__detail11_AnyMatcherINSt7__cxx1112regex_traitsIcEELb0ELb0ELb0EEclEc
FN:357,361,_ZNKSt8__detail11_AnyMatcherINSt7__cxx1112regex_traitsIcEELb0ELb0ELb1EEclEc
FN:357,361,_ZNKSt8__detail11_AnyMatcherINSt7__cxx1112regex_traitsIcEELb0ELb1ELb0EEclEc
FN:357,361,_ZNKSt8__detail11_AnyMatcherINSt7__cxx1112regex_traitsIcEELb0ELb1ELb1EEclEc
FN:373,375,_ZNSt8__detail11_AnyMatcherINSt7__cxx1112regex_traitsIcEELb1ELb0ELb0EEC2ERKS3_
FN:373,375,_ZNSt8__detail11_AnyMatcherINSt7__cxx1112regex_traitsIcEELb1ELb0ELb1EEC2ERKS3_
FN:373,375,_ZNSt8__detail11_AnyMatcherINSt7__cxx1112regex_traitsIcEELb1ELb1ELb0EEC2ERKS3_
FN:373,375,_ZNSt8__detail11_AnyMatcherINSt7__cxx1112regex_traitsIcEELb1ELb1ELb1EEC2ERKS3_
FN:378,379,_ZNKSt8__detail11_AnyMatcherINSt7__cxx1112regex_traitsIcEELb1ELb0ELb0EEclEc
FN:378,379,_ZNKSt8__detail11_AnyMatcherINSt7__cxx1112regex_traitsIcEELb1ELb0ELb1EEclEc
FN:378,379,_ZNKSt8__detail11_AnyMatcherINSt7__cxx1112regex_traitsIcEELb1ELb1ELb0EEclEc
FN:378,379,_ZNKSt8__detail11_AnyMatcherINSt7__cxx1112regex_traitsIcEELb1ELb1ELb1EEclEc
FN:382,388,_ZNKSt8__detail11_AnyMatcherINSt7__cxx1112regex_traitsIcEELb1ELb0ELb0EE8_M_applyEcSt17integral_constantIbLb1EE
FN:382,388,_ZNKSt8__detail11_AnyMatcherINSt7__cxx1112regex_traitsIcEELb1ELb0ELb1EE8_M_applyEcSt17integral_constantIbLb1EE
FN:382,388,_ZNKSt8__detail11_AnyMatcherINSt7__cxx1112regex_traitsIcEELb1ELb1ELb0EE8_M_applyEcSt17integral_constantIbLb1EE
FN:382,388,_ZNKSt8__detail11_AnyMatcherINSt7__cxx1112regex_traitsIcEELb1ELb1ELb1EE8_M_applyEcSt17integral_constantIbLb1EE
FN:410,412,_ZNSt8__detail12_CharMatcherINSt7__cxx1112regex_traitsIcEELb0ELb0EEC2EcRKS3_
FN:410,412,_ZNSt8__detail12_CharMatcherINSt7__cxx1112regex_traitsIcEELb0ELb1EEC2EcRKS3_
FN:410,412,_ZNSt8__detail12_CharMatcherINSt7__cxx1112regex_traitsIcEELb1ELb0EEC2EcRKS3_
FN:410,412,_ZNSt8__detail12_CharMatcherINSt7__cxx1112regex_traitsIcEELb1ELb1EEC2EcRKS3_
FN:415,416,_ZNKSt8__detail12_CharMatcherINSt7__cxx1112regex_traitsIcEELb0ELb0EEclEc
FN:415,416,_ZNKSt8__detail12_CharMatcherINSt7__cxx1112regex_traitsIcEELb0ELb1EEclEc
FN:415,416,_ZNKSt8__detail12_CharMatcherINSt7__cxx1112regex_traitsIcEELb1ELb0EEclEc
FN:415,416,_ZNKSt8__detail12_CharMatcherINSt7__cxx1112regex_traitsIcEELb1ELb1EEclEc
FN:434,438,_ZNSt8__detail15_BracketMatcherINSt7__cxx1112regex_traitsIcEELb0ELb0EEC2EbRKS3_
FN:434,438,_ZNSt8__detail15_BracketMatcherINSt7__cxx1112regex_traitsIcEELb0ELb1EEC2EbRKS3_
FN:434,438,_ZNSt8__detail15_BracketMatcherINSt7__cxx1112regex_traitsIcEELb1ELb0EEC2EbRKS3_
FN:434,438,_ZNSt8__detail15_BracketMatcherINSt7__cxx1112regex_traitsIcEELb1ELb1EEC2EbRKS3_
FN:441,445,_ZNKSt8__detail15_BracketMatcherINSt7__cxx1112regex_traitsIcEELb0ELb0EEclEc
FN:441,445,_ZNKSt8__detail15_BracketMatcherINSt7__cxx1112regex_traitsIcEELb0ELb1EEclEc
FN:441,445,_ZNKSt8__detail15_BracketMatcherINSt7__cxx1112regex_traitsIcEELb1ELb0EEclEc
FN:441,445,_ZNKSt8__detail15_BracketMatcherINSt7__cxx1112regex_traitsIcEELb1ELb1EEclEc
FN:448,452,_ZNSt8__detail15_BracketMatcherINSt7__cxx1112regex_traitsIcEELb0ELb0EE11_M_add_charEc
FN:448,452,_ZNSt8__detail15_BracketMatcherINSt7__cxx1112regex_traitsIcEELb0ELb1EE11_M_add_charEc
FN:448,452,_ZNSt8__detail15_BracketMatcherINSt7__cxx1112regex_traitsIcEELb1ELb0EE11_M_add_charEc
FN:448,452,_ZNSt8__detail15_BracketMatcherINSt7__cxx1112regex_traitsIcEELb1ELb1EE11_M_add_charEc
FN:455,465,_ZNSt8__detail15_BracketMatcherINSt7__cxx1112regex_traitsIcEELb0ELb0EE22_M_add_collate_elementERKNS1_12basic_stringIcSt11char_traitsIcESaIcEEE
FN:455,465,_ZNSt8__detail15_BracketMatcherINSt7__cxx1112regex_traitsIcEELb0ELb1EE22_M_add_collate_elementERKNS1_12basic_stringIcSt11char_traitsIcESaIcEEE
FN:455,465,_ZNSt8__detail15_BracketMatcherINSt7__cxx1112regex_traitsIcEELb1ELb0EE22_M_add_collate_elementERKNS1_12basic_stringIcSt11char_traitsIcESaIcEEE
FN:455,465,_ZNSt8__detail15_BracketMatcherINSt7__cxx1112regex_traitsIcEELb1ELb1EE22_M_add_collate_elementERKNS1_12basic_stringIcSt11char_traitsIcESaIcEEE
FN:468,479,_ZNSt8__detail15_BracketMatcherINSt7__cxx1112regex_traitsIcEELb0ELb0EE24_M_add_equivalence_classERKNS1_12basic_stringIcSt11char_traitsIcESaIcEEE
FN:468,479,_ZNSt8__detail15_BracketMatcherINSt7__cxx1112regex_traitsIcEELb0ELb1EE24_M_add_equivalence_classERKNS1_12basic_stringIcSt11char_traitsIcESaIcEEE
FN:468,479,_ZNSt8__detail15_BracketMatcherINSt7__cxx1112regex_traitsIcEELb1ELb0EE24_M_add_equivalence_classERKNS1_12basic_stringIcSt11char_traitsIcESaIcEEE
FN:468,479,_ZNSt8__detail15_BracketMatcherINSt7__cxx1112regex_traitsIcEELb1ELb1EE24_M_add_equivalence_classERKNS1_12basic_stringIcSt11char_traitsIcESaIcEEE
FN:483,496,_ZNSt8__detail15_BracketMatcherINSt7__cxx1112regex_traitsIcEELb0ELb0EE22_M_add_character_classERKNS1_12basic_stringIcSt11char_traitsIcESaIcEEEb
FN:483,496,_ZNSt8__detail15_BracketMatcherINSt7__cxx1112regex_traitsIcEELb0ELb1EE22_M_add_character_classERKNS1_12basic_stringIcSt11char_traitsIcESaIcEEEb
FN:483,496,_ZNSt8__detail15_BracketMatcherINSt7__cxx1112regex_traitsIcEELb1ELb0EE22_M_add_character_classERKNS1_12basic_stringIcSt11char_traitsIcESaIcEEEb
FN:483,496,_ZNSt8__detail15_BracketMatcherINSt7__cxx1112regex_traitsIcEELb1ELb1EE22_M_add_character_classERKNS1_12basic_stringIcSt11char_traitsIcESaIcEEEb
FN:499,507,_ZNSt8__detail15_BracketMatcherINSt7__cxx1112regex_traitsIcEELb0ELb0EE13_M_make_rangeEcc
FN:499,507,_ZNSt8__detail15_BracketMatcherINSt7__cxx1112regex_traitsIcEELb0ELb1EE13_M_make_rangeEcc
FN:499,507,_ZNSt8__detail15_BracketMatcherINSt7__cxx1112regex_traitsIcEELb1ELb0EE13_M_make_rangeEcc
FN:499,507,_ZNSt8__detail15_BracketMatcherINSt7__cxx1112regex_traitsIcEELb1ELb1EE13_M_make_rangeEcc
FN:510,517,_ZNSt8__detail15_BracketMatcherINSt7__cxx1112regex_traitsIcEELb0ELb0EE8_M_readyEv
FN:510,517,_ZNSt8__detail15_BracketMatcherINSt7__cxx1112regex_traitsIcEELb0ELb1EE8_M_readyEv
FN:510,517,_ZNSt8__detail15_BracketMatcherINSt7__cxx1112regex_traitsIcEELb1ELb0EE8_M_readyEv
FN:510,517,_ZNSt8__detail15_BracketMatcherINSt7__cxx1112regex_traitsIcEELb1ELb1EE8_M_readyEv
FN:537,538,_ZNKSt8__detail15_BracketMatcherINSt7__cxx1112regex_traitsIcEELb0ELb0EE8_M_applyEcSt17integral_constantIbLb1EE
FN:537,538,_ZNKSt8__detail15_BracketMatcherINSt7__cxx1112regex_traitsIcEELb0ELb1EE8_M_applyEcSt17integral_constantIbLb1EE
FN:537,538,_ZNKSt8__detail15_BracketMatcherINSt7__cxx1112regex_traitsIcEELb1ELb0EE8_M_applyEcSt17integral_constantIbLb1EE
FN:537,538,_ZNKSt8__detail15_BracketMatcherINSt7__cxx1112regex_traitsIcEELb1ELb1EE8_M_applyEcSt17integral_constantIbLb1EE
FN:541,545,_ZNSt8__detail15_BracketMatcherINSt7__cxx1112regex_traitsIcEELb0ELb0EE13_M_make_cacheESt17integral_constantIbLb1EE
FN:541,545,_ZNSt8__detail15_BracketMatcherINSt7__cxx1112regex_traitsIcEELb0ELb1EE13_M_make_cacheESt17integral_constantIbLb1EE
FN:541,545,_ZNSt8__detail15_BracketMatcherINSt7__cxx1112regex_traitsIcEELb1ELb0EE13_M_make_cacheESt17integral_constantIbLb1EE
FN:541,545,_ZNSt8__detail15_BracketMatcherINSt7__cxx1112regex_traitsIcEELb1ELb1EE13_M_make_cacheESt17integral_constantIbLb1EE
FN:68,69,_ZNSt8__detail9_CompilerINSt7__cxx1112regex_traitsIcEEE10_M_get_nfaEv
FNDA:0,_ZNSt8__detail9_CompilerINSt7__cxx1112regex_traitsIcEEE13_BracketState3setEc
FNDA:0,_ZNKSt8__detail9_CompilerINSt7__cxx1112regex_traitsIcEEE13_BracketState3getEv
FNDA:0,_ZNSt8__detail9_CompilerINSt7__cxx1112regex_traitsIcEEE13_BracketState5resetENS5_5_TypeE
FNDA:0,_ZNKSt8__detail9_CompilerINSt7__cxx1112regex_traitsIcEEE13_BracketState10_M_is_charEv
FNDA:0,_ZNKSt8__detail9_CompilerINSt7__cxx1112regex_traitsIcEEE13_BracketState11_M_is_classEv
FNDA:50,_ZNSt8__detail9_CompilerINSt7__cxx1112regex_traitsIcEEE6_M_popEv
FNDA:2,_ZNSt8__detail9_CompilerINSt7__cxx1112regex_traitsIcEEE11_S_validateENSt15regex_constants18syntax_option_typeE
FNDA:0,_ZNSt8__detail20_RegexTranslatorBaseINSt7__cxx1112regex_traitsIcEELb0ELb1EEC2ERKS3_
FNDA:0,_ZNSt8__detail20_RegexTranslatorBaseINSt7__cxx1112regex_traitsIcEELb1ELb0EEC2ERKS3_
FNDA:0,_ZNSt8__detail20_RegexTranslatorBaseINSt7__cxx1112regex_traitsIcEELb1ELb1EEC2ERKS3_
FNDA:0,_ZNKSt8__detail20_RegexTranslatorBaseINSt7__cxx1112regex_traitsIcEELb0ELb1EE12_M_translateEc
FNDA:0,_ZNKSt8__detail20_RegexTranslatorBaseINSt7__cxx1112regex_traitsIcEELb1ELb0EE12_M_translateEc
FNDA:0,_ZNKSt8__detail20_RegexTranslatorBaseINSt7__cxx1112regex_traitsIcEELb1ELb1EE12_M_translateEc
FNDA:0,_ZNKSt8__detail20_RegexTranslatorBaseINSt7__cxx1112regex_traitsIcEELb0ELb1EE12_M_transformEc
FNDA:0,_ZNKSt8__detail20_RegexTranslatorBaseINSt7__cxx1112regex_traitsIcEELb1ELb1EE12_M_transformEc
FNDA:0,_ZNKSt8__detail20_RegexTranslatorBaseINSt7__cxx1112regex_traitsIcEELb0ELb1EE14_M_match_rangeERKNS1_12basic_stringIcSt11char_traitsIcESaIcEEESB_SB_
FNDA:0,_ZNKSt8__detail20_RegexTranslatorBaseINSt7__cxx1112regex_traitsIcEELb1ELb0EE17_M_in_range_icaseEccc
FNDA:0,_ZNKSt8__detail20_RegexTranslatorBaseINSt7__cxx1112regex_traitsIcEELb1ELb1EE17_M_in_range_icaseEccc
FNDA:0,_ZNKSt8__detail16_RegexTranslatorINSt7__cxx1112regex_traitsIcEELb1ELb0EE12_M_transformEc
FNDA:0,_ZNKSt8__detail16_RegexTranslatorINSt7__cxx1112regex_traitsIcEELb1ELb0EE14_M_match_rangeEccc
FNDA:0,_ZNKSt8__detail16_RegexTranslatorINSt7__cxx1112regex_traitsIcEELb1ELb1EE14_M_match_rangeERKNS1_12basic_stringIcSt11char_traitsIcESaIcEEESB_SB_
FNDA:18,_ZNSt8__detail16_RegexTranslatorINSt7__cxx1112regex_traitsIcEELb0ELb0EEC2ERKS3_
FNDA:1652,_ZNKSt8__detail16_RegexTranslatorINSt7__cxx1112regex_traitsIcEELb0ELb0EE12_M_translateEc
FNDA:1536,_ZNKSt8__detail16_RegexTranslatorINSt7__cxx1112regex_traitsIcEELb0ELb0EE12_M_transformEc
FNDA:0,_ZNKSt8__detail16_RegexTranslatorINSt7__cxx1112regex_traitsIcEELb0ELb0EE14_M_match_rangeEccc
FNDA:0,_ZNSt8__detail11_AnyMatcherINSt7__cxx1112regex_traitsIcEELb0ELb0ELb0EEC2ERKS3_
FNDA:0,_ZNSt8__detail11_AnyMatcherINSt7__cxx1112regex_traitsIcEELb0ELb0ELb1EEC2ERKS3_
FNDA:0,_ZNSt8__detail11_AnyMatcherINSt7__cxx1112regex_traitsIcEELb0ELb1ELb0EEC2ERKS3_
FNDA:0,_ZNSt8__detail11_AnyMatcherINSt7__cxx1112regex_traitsIcEELb0ELb1ELb1EEC2ERKS3_
FNDA:0,_ZNKSt8__detail11_AnyMatcherINSt7__cxx1112regex_traitsIcEELb0ELb0ELb0EEclEc
FNDA:0,_ZNKSt8__detail11_AnyMatcherINSt7__cxx1112regex_traitsIcEELb0ELb0ELb1EEclEc
FNDA:0,_ZNKSt8__detail11_AnyMatcherINSt7__cxx1112regex_traitsIcEELb0ELb1ELb0EEclEc
FNDA:0,_ZNKSt8__detail11_AnyMatcherINSt7__cxx1112regex_traitsIcEELb0ELb1ELb1EEclEc
FNDA:0,_ZNSt8__detail11_AnyMatcherINSt7__cxx1112regex_traitsIcEELb1ELb0ELb0EEC2ERKS3_
FNDA:0,_ZNSt8__detail11_AnyMatcherINSt7__cxx1112regex_traitsIcEELb1ELb0ELb1EEC2ERKS3_
FNDA:0,_ZNSt8__detail11_AnyMatcherINSt7__cxx1112regex_traitsIcEELb1ELb1ELb0EEC2ERKS3_
FNDA:0,_ZNSt8__detail11_AnyMatcherINSt7__cxx1112regex_traitsIcEELb1ELb1ELb1EEC2ERKS3_
FNDA:0,_ZNKSt8__detail11_AnyMatcherINSt7__cxx1112regex_traitsIcEELb1ELb0ELb0EEclEc
FNDA:0,_ZNKSt8__detail11_AnyMatcherINSt7__cxx1112regex_traitsIcEELb1ELb0ELb1EEclEc
FNDA:0,_ZNKSt8__detail11_AnyMatcherINSt7__cxx1112regex_traitsIcEELb1ELb1ELb0EEclEc
FNDA:0,_ZNKSt8__detail11_AnyMatcherINSt7__cxx1112regex_traitsIcEELb1ELb1ELb1EEclEc
FNDA:0,_ZNKSt8__detail11_AnyMatcherINSt7__cxx1112regex_traitsIcEELb1ELb0ELb0EE8_M_applyEcSt17integral_constantIbLb1EE
FNDA:0,_ZNKSt8__detail11_AnyMatcherINSt7__cxx1112regex_traitsIcEELb1ELb0ELb1EE8_M_applyEcSt17integral_constantIbLb1EE
FNDA:0,_ZNKSt8__detail11_AnyMatcherINSt7__cxx1112regex_traitsIcEELb1ELb1ELb0EE8_M_applyEcSt17integral_constantIbLb1EE
FNDA:0,_ZNKSt8__detail11_AnyMatcherINSt7__cxx1112regex_traitsIcEELb1ELb1ELb1EE8_M_applyEcSt17integral_constantIbLb1EE
FNDA:12,_ZNSt8__detail12_CharMatcherINSt7__cxx1112regex_traitsIcEELb0ELb0EEC2EcRKS3_
FNDA:0,_ZNSt8__detail12_CharMatcherINSt7__cxx1112regex_traitsIcEELb0ELb1EEC2EcRKS3_
FNDA:0,_ZNSt8__detail12_CharMatcherINSt7__cxx1112regex_traitsIcEELb1ELb0EEC2EcRKS3_
FNDA:0,_ZNSt8__detail12_CharMatcherINSt7__cxx1112regex_traitsIcEELb1ELb1EEC2EcRKS3_
FNDA:104,_ZNKSt8__detail12_CharMatcherINSt7__cxx1112regex_traitsIcEELb0ELb0EEclEc
FNDA:0,_ZNKSt8__detail12_CharMatcherINSt7__cxx1112regex_traitsIcEELb0ELb1EEclEc
FNDA:0,_ZNKSt8__detail12_CharMatcherINSt7__cxx1112regex_traitsIcEELb1ELb0EEclEc
FNDA:0,_ZNKSt8__detail12_CharMatcherINSt7__cxx1112regex_traitsIcEELb1ELb1EEclEc
FNDA:6,_ZNSt8__detail15_BracketMatcherINSt7__cxx1112regex_traitsIcEELb0ELb0EEC2EbRKS3_
FNDA:0,_ZNSt8__detail15_BracketMatcherINSt7__cxx1112regex_traitsIcEELb0ELb1EEC2EbRKS3_
FNDA:0,_ZNSt8__detail15_BracketMatcherINSt7__cxx1112regex_traitsIcEELb1ELb0EEC2EbRKS3_
FNDA:0,_ZNSt8__detail15_BracketMatcherINSt7__cxx1112regex_traitsIcEELb1ELb1EEC2EbRKS3_
FNDA:90,_ZNKSt8__detail15_BracketMatcherINSt7__cxx1112regex_traitsIcEELb0ELb0EEclEc
FNDA:0,_ZNKSt8__detail15_BracketMatcherINSt7__cxx1112regex_traitsIcEELb0ELb1EEclEc
FNDA:0,_ZNKSt8__detail15_BracketMatcherINSt7__cxx1112regex_traitsIcEELb1ELb0EEclEc
FNDA:0,_ZNKSt8__detail15_BracketMatcherINSt7__cxx1112regex_traitsIcEELb1ELb1EEclEc
FNDA:0,_ZNSt8__detail15_BracketMatcherINSt7__cxx1112regex_traitsIcEELb0ELb0EE11_M_add_charEc
FNDA:0,_ZNSt8__detail15_BracketMatcherINSt7__cxx1112regex_traitsIcEELb0ELb1EE11_M_add_charEc
FNDA:0,_ZNSt8__detail15_BracketMatcherINSt7__cxx1112regex_traitsIcEELb1ELb0EE11_M_add_charEc
FNDA:0,_ZNSt8__detail15_BracketMatcherINSt7__cxx1112regex_traitsIcEELb1ELb1EE11_M_add_charEc
FNDA:0,_ZNSt8__detail15_BracketMatcherINSt7__cxx1112regex_traitsIcEELb0ELb0EE22_M_add_collate_elementERKNS1_12basic_stringIcSt11char_traitsIcESaIcEEE
FNDA:0,_ZNSt8__detail15_BracketMatcherINSt7__cxx1112regex_traitsIcEELb0ELb1EE22_M_add_collate_elementERKNS1_12basic_stringIcSt11char_traitsIcESaIcEEE
FNDA:0,_ZNSt8__detail15_BracketMatcherINSt7__cxx1112regex_traitsIcEELb1ELb0EE22_M_add_collate_elementERKNS1_12basic_stringIcSt11char_traitsIcESaIcEEE
FNDA:0,_ZNSt8__detail15_BracketMatcherINSt7__cxx1112regex_traitsIcEELb1ELb1EE22_M_add_collate_elementERKNS1_12basic_stringIcSt11char_traitsIcESaIcEEE
FNDA:0,_ZNSt8__detail15_BracketMatcherINSt7__cxx1112regex_traitsIcEELb0ELb0EE24_M_add_equivalence_classERKNS1_12basic_stringIcSt11char_traitsIcESaIcEEE
FNDA:0,_ZNSt8__detail15_BracketMatcherINSt7__cxx1112regex_traitsIcEELb0ELb1EE24_M_add_equivalence_classERKNS1_12basic_stringIcSt11char_traitsIcESaIcEEE
FNDA:0,_ZNSt8__detail15_BracketMatcherINSt7__cxx1112regex_traitsIcEELb1ELb0EE24_M_add_equivalence_classERKNS1_12basic_stringIcSt11char_traitsIcESaIcEEE
FNDA:0,_ZNSt8__detail15_BracketMatcherINSt7__cxx1112regex_traitsIcEELb1ELb1EE24_M_add_equivalence_classERKNS1_12basic_stringIcSt11char_traitsIcESaIcEEE
FNDA:6,_ZNSt8__detail15_BracketMatcherINSt7__cxx1112regex_traitsIcEELb0ELb0EE22_M_add_character_classERKNS1_12basic_stringIcSt11char_traitsIcESaIcEEEb
FNDA:0,_ZNSt8__detail15_BracketMatcherINSt7__cxx1112regex_traitsIcEELb0ELb1EE22_M_add_character_classERKNS1_12basic_stringIcSt11char_traitsIcESaIcEEEb
FNDA:0,_ZNSt8__detail15_BracketMatcherINSt7__cxx1112regex_traitsIcEELb1ELb0EE22_M_add_character_classERKNS1_12basic_stringIcSt11char_traitsIcESaIcEEEb
FNDA:0,_ZNSt8__detail15_BracketMatcherINSt7__cxx1112regex_traitsIcEELb1ELb1EE22_M_add_character_classERKNS1_12basic_stringIcSt11char_traitsIcESaIcEEEb
FNDA:0,_ZNSt8__detail15_BracketMatcherINSt7__cxx1112regex_traitsIcEELb0ELb0EE13_M_make_rangeEcc
FNDA:0,_ZNSt8__detail15_BracketMatcherINSt7__cxx1112regex_traitsIcEELb0ELb1EE13_M_make_rangeEcc
FNDA:0,_ZNSt8__detail15_BracketMatcherINSt7__cxx1112regex_traitsIcEELb1ELb0EE13_M_make_rangeEcc
FNDA:0,_ZNSt8__detail15_BracketMatcherINSt7__cxx1112regex_traitsIcEELb1ELb1EE13_M_make_rangeEcc
FNDA:6,_ZNSt8__detail15_BracketMatcherINSt7__cxx1112regex_traitsIcEELb0ELb0EE8_M_readyEv
FNDA:0,_ZNSt8__detail15_BracketMatcherINSt7__cxx1112regex_traitsIcEELb0ELb1EE8_M_readyEv
FNDA:0,_ZNSt8__detail15_BracketMatcherINSt7__cxx1112regex_traitsIcEELb1ELb0EE8_M_readyEv
FNDA:0,_ZNSt8__detail15_BracketMatcherINSt7__cxx1112regex_traitsIcEELb1ELb1EE8_M_readyEv
FNDA:90,_ZNKSt8__detail15_BracketMatcherINSt7__cxx1112regex_traitsIcEELb0ELb0EE8_M_applyEcSt17integral_constantIbLb1EE
FNDA:0,_ZNKSt8__detail15_BracketMatcherINSt7__cxx1112regex_traitsIcEELb0ELb1EE8_M_applyEcSt17integral_constantIbLb1EE
FNDA:0,_ZNKSt8__detail15_BracketMatcherINSt7__cxx1112regex_traitsIcEELb1ELb0EE8_M_applyEcSt17integral_constantIbLb1EE
FNDA:0,_ZNKSt8__detail15_BracketMatcherINSt7__cxx1112regex_traitsIcEELb1ELb1EE8_M_applyEcSt17integral_constantIbLb1EE
FNDA:6,_ZNSt8__detail15_BracketMatcherINSt7__cxx1112regex_traitsIcEELb0ELb0EE13_M_make_cacheESt17integral_constantIbLb1EE
FNDA:0,_ZNSt8__detail15_BracketMatcherINSt7__cxx1112regex_traitsIcEELb0ELb1EE13_M_make_cacheESt17integral_constantIbLb1EE
FNDA:0,_ZNSt8__detail15_BracketMatcherINSt7__cxx1112regex_traitsIcEELb1ELb0EE13_M_make_cacheESt17integral_constantIbLb1EE
FNDA:0,_ZNSt8__detail15_BracketMatcherINSt7__cxx1112regex_traitsIcEELb1ELb1EE13_M_make_cacheESt17integral_constantIbLb1EE
FNDA:2,_ZNSt8__detail9_CompilerINSt7__cxx1112regex_traitsIcEEE10_M_get_nfaEv
FNF:94
FNH:14
BRDA:182,0,0,2
BRDA:182,0,1,0
BRDA:182,0,2,0
BRDA:235,0,0,-
BRDA:235,e0,1,-
BRDA:236,0,0,-
BRDA:236,e0,1,-
BRDA:245,0,0,-
BRDA:245,0,1,-
BRDA:245,0,2,-
BRDA:245,0,3,-
BRDA:251,0,0,-
BRDA:251,e0,1,-
BRDA:254,0,0,-
BRDA:254,0,1,-
BRDA:255,0,0,-
BRDA:255,0,1,-
BRDA:255,0,2,-
BRDA:255,0,3,-
BRDA:255,0,4,-
BRDA:255,0,5,-
BRDA:311,0,0,-
BRDA:311,0,1,-
BRDA:311,0,2,-
BRDA:311,0,3,-
BRDA:311,0,4,-
BRDA:311,0,5,-
BRDA:312,0,0,-
BRDA:312,0,1,-
BRDA:312,0,2,-
BRDA:312,0,3,-
BRDA:312,0,4,-
BRDA:312,0,5,-
BRDA:313,0,0,-
BRDA:313,0,1,-
BRDA:313,0,2,-
BRDA:313,0,3,-
BRDA:313,0,4,-
BRDA:313,0,5,-
BRDA:339,0,0,-
BRDA:339,0,1,-
BRDA:339,0,2,-
BRDA:339,0,3,-
BRDA:359,0,0,-
BRDA:359,0,1,-
BRDA:359,0,2,-
BRDA:359,0,3,-
BRDA:359,0,4,-
BRDA:359,e0,5,-
BRDA:359,0,6,-
BRDA:359,0,7,-
BRDA:387,0,0,-
BRDA:387,0,1,-
BRDA:387,0,2,-
BRDA:387,0,3,-
BRDA:436,0,0,-
BRDA:436,e0,1,-
BRDA:450,0,0,-
BRDA:450,e0,1,-
BRDA:450,0,2,-
BRDA:450,e0,3,-
BRDA:459,0,0,-
BRDA:459,0,1,-
BRDA:462,0,0,-
BRDA:462,e0,1,-
BRDA:462,0,2,-
BRDA:462,e0,3,-
BRDA:462,0,4,-
BRDA:462,e0,5,-
BRDA:470,0,0,-
BRDA:470,e0,1,-
BRDA:472,0,0,-
BRDA:472,0,1,-
BRDA:475,0,0,-
BRDA:475,e0,1,-
BRDA:477,0,0,-
BRDA:477,e0,1,-
BRDA:485,0,0,6
BRDA:485,e0,1,0
BRDA:488,0,0,0
BRDA:488,0,1,6
BRDA:491,0,0,6
BRDA:491,0,1,0
BRDA:492,0,0,6
BRDA:492,e0,1,0
BRDA:494,0,0,-
BRDA:494,e0,1,-
BRDA:501,0,0,-
BRDA:501,0,1,-
BRDA:504,0,0,-
BRDA:504,e0,1,-
BRDA:504,0,2,-
BRDA:504,e0,3,-
BRDA:504,0,4,-
BRDA:504,e0,5,-
BRDA:504,0,6,-
BRDA:504,e0,7,-
BRDA:512,0,0,6
BRDA:512,e0,1,0
BRDA:513,0,0,6
BRDA:513,e0,1,0
BRDA:514,0,0,6
BRDA:514,e0,1,0
BRDA:515,0,0,6
BRDA:515,e0,1,0
BRDA:543,0,0,1536
BRDA:543,0,1,6
BRF:107
BRH:11
DA:68,2
DA:69,2
DA:131,0
DA:134,0
DA:137,0
DA:144,0
DA:149,0
DA:171,50
DA:173,50
DA:174,50
DA:175,50
DA:179,2
DA:182,2
DA:184,2
DA:190,2
DA:191,0
DA:192,0
DA:193,0
DA:194,0
DA:217,0
DA:218,0
DA:219,0
DA:222,0
DA:225,0
DA:227,0
DA:233,0
DA:235,0
DA:236,0
DA:237,0
DA:243,0
DA:245,0
DA:248,0
DA:251,0
DA:252,0
DA:253,0
DA:254,0
DA:255,0
DA:282,0
DA:283,0
DA:286,0
DA:291,0
DA:308,0
DA:311,0
DA:312,0
DA:313,0
DA:314,0
DA:326,18
DA:327,18
DA:330,1652
DA:331,1652
DA:334,1536
DA:335,1536
DA:338,0
DA:339,0
DA:352,0
DA:353,0
DA:354,0
DA:357,0
DA:359,0
DA:360,0
DA:373,0
DA:374,0
DA:375,0
DA:378,0
DA:379,0
DA:382,0
DA:384,0
DA:385,0
DA:386,0
DA:387,0
DA:410,12
DA:411,12
DA:412,12
DA:415,104
DA:416,104
DA:434,6
DA:436,6
DA:437,12
DA:438,6
DA:441,90
DA:444,90
DA:448,0
DA:450,0
DA:452,0
DA:455,0
DA:457,0
DA:458,0
DA:459,0
DA:460,0
DA:462,0
DA:464,0
DA:465,0
DA:468,0
DA:470,0
DA:471,0
DA:472,0
DA:473,0
DA:475,0
DA:476,0
DA:477,0
DA:479,0
DA:483,6
DA:485,6
DA:486,6
DA:488,6
DA:489,0
DA:491,6
DA:492,6
DA:494,0
DA:496,6
DA:499,0
DA:501,0
DA:502,0
DA:504,0
DA:505,0
DA:507,0
DA:510,6
DA:512,6
DA:513,6
DA:514,6
DA:515,6
DA:517,6
DA:537,90
DA:538,90
DA:541,6
DA:543,1542
DA:544,1536
DA:545,6
LF:128
LH:46
end_of_record
TN:
SF:/usr/include/c++/13/bits/regex_compiler.tcc
FN:112,124,_ZNSt8__detail9_CompilerINSt7__cxx1112regex_traitsIcEEE14_M_alternativeEv
FN:128,140,_ZNSt8__detail9_CompilerINSt7__cxx1112regex_traitsIcEEE7_M_termEv
FN:144,171,_ZNSt8__detail9_CompilerINSt7__cxx1112regex_traitsIcEEE12_M_assertionEv
FN:175,282,_ZNSt8__detail9_CompilerINSt7__cxx1112regex_traitsIcEEE13_M_quantifierEv
FN:179,179,_ZZNSt8__detail9_CompilerINSt7__cxx1112regex_traitsIcEEE13_M_quantifierEvENKUlvE_clEv
FN:300,339,_ZNSt8__detail9_CompilerINSt7__cxx1112regex_traitsIcEEE7_M_atomEv
FN:343,352,_ZNSt8__detail9_CompilerINSt7__cxx1112regex_traitsIcEEE21_M_bracket_expressionEv
FN:358,365,_ZNSt8__detail9_CompilerINSt7__cxx1112regex_traitsIcEEE26_M_insert_any_matcher_ecmaILb0ELb0EEEvv
FN:358,365,_ZNSt8__detail9_CompilerINSt7__cxx1112regex_traitsIcEEE26_M_insert_any_matcher_ecmaILb0ELb1EEEvv
FN:358,365,_ZNSt8__detail9_CompilerINSt7__cxx1112regex_traitsIcEEE26_M_insert_any_matcher_ecmaILb1ELb0EEEvv
FN:358,365,_ZNSt8__detail9_CompilerINSt7__cxx1112regex_traitsIcEEE26_M_insert_any_matcher_ecmaILb1ELb1EEEvv
FN:370,377,_ZNSt8__detail9_CompilerINSt7__cxx1112regex_traitsIcEEE27_M_insert_any_matcher_posixILb0ELb0EEEvv
FN:370,377,_ZNSt8__detail9_CompilerINSt7__cxx1112regex_traitsIcEEE27_M_insert_any_matcher_posixILb0ELb1EEEvv
FN:370,377,_ZNSt8__detail9_CompilerINSt7__cxx1112regex_traitsIcEEE27_M_insert_any_matcher_posixILb1ELb0EEEvv
FN:370,377,_ZNSt8__detail9_CompilerINSt7__cxx1112regex_traitsIcEEE27_M_insert_any_matcher_posixILb1ELb1EEEvv
FN:382,389,_ZNSt8__detail9_CompilerINSt7__cxx1112regex_traitsIcEEE22_M_insert_char_matcherILb0ELb0EEEvv
FN:382,389,_ZNSt8__detail9_CompilerINSt7__cxx1112regex_traitsIcEEE22_M_insert_char_matcherILb0ELb1EEEvv
FN:382,389,_ZNSt8__detail9_CompilerINSt7__cxx1112regex_traitsIcEEE22_M_insert_char_matcherILb1ELb0EEEvv
FN:382,389,_ZNSt8__detail9_CompilerINSt7__cxx1112regex_traitsIcEEE22_M_insert_char_matcherILb1ELb1EEEvv
FN:394,404,_ZNSt8__detail9_CompilerINSt7__cxx1112regex_traitsIcEEE33_M_insert_character_class_matcherILb0ELb0EEEvv
FN:394,404,_ZNSt8__detail9_CompilerINSt7__cxx1112regex_traitsIcEEE33_M_insert_character_class_matcherILb0ELb1EEEvv
FN:394,404,_ZNSt8__detail9_CompilerINSt7__cxx1112regex_traitsIcEEE33_M_insert_character_class_matcherILb1ELb0EEEvv
FN:394,404,_ZNSt8__detail9_CompilerINSt7__cxx1112regex_traitsIcEEE33_M_insert_character_class_matcherILb1ELb1EEEvv
FN:409,427,_ZNSt8__detail9_CompilerINSt7__cxx1112regex_traitsIcEEE25_M_insert_bracket_matcherILb0ELb0EEEvb
FN:409,427,_ZNSt8__detail9_CompilerINSt7__cxx1112regex_traitsIcEEE25_M_insert_bracket_matcherILb0ELb1EEEvb
FN:409,427,_ZNSt8__detail9_CompilerINSt7__cxx1112regex_traitsIcEEE25_M_insert_bracket_matcherILb1ELb0EEEvb
FN:409,427,_ZNSt8__detail9_CompilerINSt7__cxx1112regex_traitsIcEEE25_M_insert_bracket_matcherILb1ELb1EEEvb
FN:432,544,_ZNSt8__detail9_CompilerINSt7__cxx1112regex_traitsIcEEE18_M_expression_termILb0ELb0EEEbRNS4_13_BracketStateERNS_15_BracketMatcherIS3_XT_EXT0_EEE
FN:432,544,_ZNSt8__detail9_CompilerINSt7__cxx1112regex_traitsIcEEE18_M_expression_termILb0ELb1EEEbRNS4_13_BracketStateERNS_15_BracketMatcherIS3_XT_EXT0_EEE
FN:432,544,_ZNSt8__detail9_CompilerINSt7__cxx1112regex_traitsIcEEE18_M_expression_termILb1ELb0EEEbRNS4_13_BracketStateERNS_15_BracketMatcherIS3_XT_EXT0_EEE
FN:432,544,_ZNSt8__detail9_CompilerINSt7__cxx1112regex_traitsIcEEE18_M_expression_termILb1ELb1EEEbRNS4_13_BracketStateERNS_15_BracketMatcherIS3_XT_EXT0_EEE
FN:440,440,_ZZNSt8__detail9_CompilerINSt7__cxx1112regex_traitsIcEEE18_M_expression_termILb0ELb0EEEbRNS4_13_BracketStateERNS_15_BracketMatcherIS3_XT_EXT0_EEEENKUlcE_clEc
FN:440,440,_ZZNSt8__detail9_CompilerINSt7__cxx1112regex_traitsIcEEE18_M_expression_termILb0ELb1EEEbRNS4_13_BracketStateERNS_15_BracketMatcherIS3_XT_EXT0_EEEENKUlcE_clEc
FN:440,440,_ZZNSt8__detail9_CompilerINSt7__cxx1112regex_traitsIcEEE18_M_expression_termILb1ELb0EEEbRNS4_13_BracketStateERNS_15_BracketMatcherIS3_XT_EXT0_EEEENKUlcE_clEc
FN:440,440,_ZZNSt8__detail9_CompilerINSt7__cxx1112regex_traitsIcEEE18_M_expression_termILb1ELb1EEEbRNS4_13_BracketStateERNS_15_BracketMatcherIS3_XT_EXT0_EEEENKUlcE_clEc
FN:447,447,_ZZNSt8__detail9_CompilerINSt7__cxx1112regex_traitsIcEEE18_M_expression_termILb0ELb0EEEbRNS4_13_BracketStateERNS_15_BracketMatcherIS3_XT_EXT0_EEEENKUlvE_clEv
FN:447,447,_ZZNSt8__detail9_CompilerINSt7__cxx1112regex_traitsIcEEE18_M_expression_termILb0ELb1EEEbRNS4_13_BracketStateERNS_15_BracketMatcherIS3_XT_EXT0_EEEENKUlvE_clEv
FN:447,447,_ZZNSt8__detail9_CompilerINSt7__cxx1112regex_traitsIcEEE18_M_expression_termILb1ELb0EEEbRNS4_13_BracketStateERNS_15_BracketMatcherIS3_XT_EXT0_EEEENKUlvE_clEv
FN:447,447,_ZZNSt8__detail9_CompilerINSt7__cxx1112regex_traitsIcEEE18_M_expression_termILb1ELb1EEEbRNS4_13_BracketStateERNS_15_BracketMatcherIS3_XT_EXT0_EEEENKUlvE_clEv
FN:548,565,_ZNSt8__detail9_CompilerINSt7__cxx1112regex_traitsIcEEE11_M_try_charEv
FN:569,579,_ZNSt8__detail9_CompilerINSt7__cxx1112regex_traitsIcEEE14_M_match_tokenENS_12_ScannerBase7_TokenTE
FN:583,593,_ZNSt8__detail9_CompilerINSt7__cxx1112regex_traitsIcEEE16_M_cur_int_valueEi
FN:597,620,_ZNKSt8__detail15_BracketMatcherINSt7__cxx1112regex_traitsIcEELb0ELb0EE8_M_applyEcSt17integral_constantIbLb0EE
FN:597,620,_ZNKSt8__detail15_BracketMatcherINSt7__cxx1112regex_traitsIcEELb0ELb1EE8_M_applyEcSt17integral_constantIbLb0EE
FN:597,620,_ZNKSt8__detail15_BracketMatcherINSt7__cxx1112regex_traitsIcEELb1ELb0EE8_M_applyEcSt17integral_constantIbLb0EE
FN:597,620,_ZNKSt8__detail15_BracketMatcherINSt7__cxx1112regex_traitsIcEELb1ELb1EE8_M_applyEcSt17integral_constantIbLb0EE
FN:600,600,_ZZNKSt8__detail15_BracketMatcherINSt7__cxx1112regex_traitsIcEELb0ELb0EE8_M_applyEcSt17integral_constantIbLb0EEENKUlvE_clEv
FN:600,600,_ZZNKSt8__detail15_BracketMatcherINSt7__cxx1112regex_traitsIcEELb0ELb1EE8_M_applyEcSt17integral_constantIbLb0EEENKUlvE_clEv
FN:600,600,_ZZNKSt8__detail15_BracketMatcherINSt7__cxx1112regex_traitsIcEELb1ELb0EE8_M_applyEcSt17integral_constantIbLb0EEENKUlvE_clEv
FN:600,600,_ZZNKSt8__detail15_BracketMatcherINSt7__cxx1112regex_traitsIcEELb1ELb1EE8_M_applyEcSt17integral_constantIbLb0EEENKUlvE_clEv
FN:65,84,_ZNSt8__detail9_CompilerINSt7__cxx1112regex_traitsIcEEEC2EPKcS6_RKSt6localeNSt15regex_constants18syntax_option_typeE
FN:88,108,_ZNSt8__detail9_CompilerINSt7__cxx1112regex_traitsIcEEE14_M_disjunctionEv
FNDA:24,_ZNSt8__detail9_CompilerINSt7__cxx1112regex_traitsIcEEE14_M_alternativeEv
FNDA:24,_ZNSt8__detail9_CompilerINSt7__cxx1112regex_traitsIcEEE7_M_termEv
FNDA:24,_ZNSt8__detail9_CompilerINSt7__cxx1112regex_traitsIcEEE12_M_assertionEv
FNDA:26,_ZNSt8__detail9_CompilerINSt7__cxx1112regex_traitsIcEEE13_M_quantifierEv
FNDA:4,_ZZNSt8__detail9_CompilerINSt7__cxx1112regex_traitsIcEEE13_M_quantifierEvENKUlvE_clEv
FNDA:24,_ZNSt8__detail9_CompilerINSt7__cxx1112regex_traitsIcEEE7_M_atomEv
FNDA:4,_ZNSt8__detail9_CompilerINSt7__cxx1112regex_traitsIcEEE21_M_bracket_expressionEv
FNDA:0,_ZNSt8__detail9_CompilerINSt7__cxx1112regex_traitsIcEEE26_M_insert_any_matcher_ecmaILb0ELb0EEEvv
FNDA:0,_ZNSt8__detail9_CompilerINSt7__cxx1112regex_traitsIcEEE26_M_insert_any_matcher_ecmaILb0ELb1EEEvv
FNDA:0,_ZNSt8__detail9_CompilerINSt7__cxx1112regex_traitsIcEEE26_M_insert_any_matcher_ecmaILb1ELb0EEEvv
FNDA:0,_ZNSt8__detail9_CompilerINSt7__cxx1112regex_traitsIcEEE26_M_insert_any_matcher_ecmaILb1ELb1EEEvv
FNDA:0,_ZNSt8__detail9_CompilerINSt7__cxx1112regex_traitsIcEEE27_M_insert_any_matcher_posixILb0ELb0EEEvv
FNDA:0,_ZNSt8__detail9_CompilerINSt7__cxx1112regex_traitsIcEEE27_M_insert_any_matcher_posixILb0ELb1EEEvv
FNDA:0,_ZNSt8__detail9_CompilerINSt7__cxx1112regex_traitsIcEEE27_M_insert_any_matcher_posixILb1ELb0EEEvv
FNDA:0,_ZNSt8__detail9_CompilerINSt7__cxx1112regex_traitsIcEEE27_M_insert_any_matcher_posixILb1ELb1EEEvv
FNDA:12,_ZNSt8__detail9_CompilerINSt7__cxx1112regex_traitsIcEEE22_M_insert_char_matcherILb0ELb0EEEvv
FNDA:0,_ZNSt8__detail9_CompilerINSt7__cxx1112regex_traitsIcEEE22_M_insert_char_matcherILb0ELb1EEEvv
FNDA:0,_ZNSt8__detail9_CompilerINSt7__cxx1112regex_traitsIcEEE22_M_insert_char_matcherILb1ELb0EEEvv
FNDA:0,_ZNSt8__detail9_CompilerINSt7__cxx1112regex_traitsIcEEE22_M_insert_char_matcherILb1ELb1EEEvv
FNDA:6,_ZNSt8__detail9_CompilerINSt7__cxx1112regex_traitsIcEEE33_M_insert_character_class_matcherILb0ELb0EEEvv
FNDA:0,_ZNSt8__detail9_CompilerINSt7__cxx1112regex_traitsIcEEE33_M_insert_character_class_matcherILb0ELb1EEEvv
FNDA:0,_ZNSt8__detail9_CompilerINSt7__cxx1112regex_traitsIcEEE33_M_insert_character_class_matcherILb1ELb0EEEvv
FNDA:0,_ZNSt8__detail9_CompilerINSt7__cxx1112regex_traitsIcEEE33_M_insert_character_class_matcherILb1ELb1EEEvv
FNDA:0,_ZNSt8__detail9_CompilerINSt7__cxx1112regex_traitsIcEEE25_M_insert_bracket_matcherILb0ELb0EEEvb
FNDA:0,_ZNSt8__detail9_CompilerINSt7__cxx1112regex_traitsIcEEE25_M_insert_bracket_matcherILb0ELb1EEEvb
FNDA:0,_ZNSt8__detail9_CompilerINSt7__cxx1112regex_traitsIcEEE25_M_insert_bracket_matcherILb1ELb0EEEvb
FNDA:0,_ZNSt8__detail9_CompilerINSt7__cxx1112regex_traitsIcEEE25_M_insert_bracket_matcherILb1ELb1EEEvb
FNDA:0,_ZNSt8__detail9_CompilerINSt7__cxx1112regex_traitsIcEEE18_M_expression_termILb0ELb0EEEbRNS4_13_BracketStateERNS_15_BracketMatcherIS3_XT_EXT0_EEE
FNDA:0,_ZNSt8__detail9_CompilerINSt7__cxx1112regex_traitsIcEEE18_M_expression_termILb0ELb1EEEbRNS4_13_BracketStateERNS_15_BracketMatcherIS3_XT_EXT0_EEE
FNDA:0,_ZNSt8__detail9_CompilerINSt7__cxx1112regex_traitsIcEEE18_M_expression_termILb1ELb0EEEbRNS4_13_BracketStateERNS_15_BracketMatcherIS3_XT_EXT0_EEE
FNDA:0,_ZNSt8__detail9_CompilerINSt7__cxx1112regex_traitsIcEEE18_M_expression_termILb1ELb1EEEbRNS4_13_BracketStateERNS_15_BracketMatcherIS3_XT_EXT0_EEE
FNDA:0,_ZZNSt8__detail9_CompilerINSt7__cxx1112regex_traitsIcEEE18_M_expression_termILb0ELb0EEEbRNS4_13_BracketStateERNS_15_BracketMatcherIS3_XT_EXT0_EEEENKUlcE_clEc
FNDA:0,_ZZNSt8__detail9_CompilerINSt7__cxx1112regex_traitsIcEEE18_M_expression_termILb0ELb1EEEbRNS4_13_BracketStateERNS_15_BracketMatcherIS3_XT_EXT0_EEEENKUlcE_clEc
FNDA:0,_ZZNSt8__detail9_CompilerINSt7__cxx1112regex_traitsIcEEE18_M_expression_termILb1ELb0EEEbRNS4_13_BracketStateERNS_15_BracketMatcherIS3_XT_EXT0_EEEENKUlcE_clEc
FNDA:0,_ZZNSt8__detail9_CompilerINSt7__cxx1112regex_traitsIcEEE18_M_expression_termILb1ELb1EEEbRNS4_13_BracketStateERNS_15_BracketMatcherIS3_XT_EXT0_EEEENKUlcE_clEc
FNDA:0,_ZZNSt8__detail9_CompilerINSt7__cxx1112regex_traitsIcEEE18_M_expression_termILb0ELb0EEEbRNS4_13_BracketStateERNS_15_BracketMatcherIS3_XT_EXT0_EEEENKUlvE_clEv
FNDA:0,_ZZNSt8__detail9_CompilerINSt7__cxx1112regex_traitsIcEEE18_M_expression_termILb0ELb1EEEbRNS4_13_BracketStateERNS_15_BracketMatcherIS3_XT_EXT0_EEEENKUlvE_clEv
FNDA:0,_ZZNSt8__detail9_CompilerINSt7__cxx1112regex_traitsIcEEE18_M_expression_termILb1ELb0EEEbRNS4_13_BracketStateERNS_15_BracketMatcherIS3_XT_EXT0_EEEENKUlvE_clEv
FNDA:0,_ZZNSt8__detail9_CompilerINSt7__cxx1112regex_traitsIcEEE18_M_expression_termILb1ELb1EEEbRNS4_13_BracketStateERNS_15_BracketMatcherIS3_XT_EXT0_EEEENKUlvE_clEv
FNDA:24,_ZNSt8__detail9_CompilerINSt7__cxx1112regex_traitsIcEEE11_M_try_charEv
FNDA:350,_ZNSt8__detail9_CompilerINSt7__cxx1112regex_traitsIcEEE14_M_match_tokenENS_12_ScannerBase7_TokenTE
FNDA:4,_ZNSt8__detail9_CompilerINSt7__cxx1112regex_traitsIcEEE16_M_cur_int_valueEi
FNDA:1536,_ZNKSt8__detail15_BracketMatcherINSt7__cxx1112regex_traitsIcEELb0ELb0EE8_M_applyEcSt17integral_constantIbLb0EE
FNDA:0,_ZNKSt8__detail15_BracketMatcherINSt7__cxx1112regex_traitsIcEELb0ELb1EE8_M_applyEcSt17integral_constantIbLb0EE
FNDA:0,_ZNKSt8__detail15_BracketMatcherINSt7__cxx1112regex_traitsIcEELb1ELb0EE8_M_applyEcSt17integral_constantIbLb0EE
FNDA:0,_ZNKSt8__detail15_BracketMatcherINSt7__cxx1112regex_traitsIcEELb1ELb1EE8_M_applyEcSt17integral_constantIbLb0EE
FNDA:1536,_ZZNKSt8__detail15_BracketMatcherINSt7__cxx1112regex_traitsIcEELb0ELb0EE8_M_applyEcSt17integral_constantIbLb0EEENKUlvE_clEv
FNDA:0,_ZZNKSt8__detail15_BracketMatcherINSt7__cxx1112regex_traitsIcEELb0ELb1EE8_M_applyEcSt17integral_constantIbLb0EEENKUlvE_clEv
FNDA:0,_ZZNKSt8__detail15_BracketMatcherINSt7__cxx1112regex_traitsIcEELb1ELb0EE8_M_applyEcSt17integral_constantIbLb0EEENKUlvE_clEv
FNDA:0,_ZZNKSt8__detail15_BracketMatcherINSt7__cxx1112regex_traitsIcEELb1ELb1EE8_M_applyEcSt17integral_constantIbLb0EEENKUlvE_clEv
FNDA:2,_ZNSt8__detail9_CompilerINSt7__cxx1112regex_traitsIcEEEC2EPKcS6_RKSt6localeNSt15regex_constants18syntax_option_typeE
FNDA:4,_ZNSt8__detail9_CompilerINSt7__cxx1112regex_traitsIcEEE14_M_disjunctionEv
FNF:52
FNH:16
BRDA:69,0,0,2
BRDA:69,e0,1,0
BRDA:70,0,0,2
BRDA:70,e0,1,0
BRDA:72,0,0,2
BRDA:72,e0,1,0
BRDA:72,0,2,2
BRDA:72,e0,3,0
BRDA:75,0,0,2
BRDA:75,e0,1,0
BRDA:76,0,0,2
BRDA:76,e0,1,0
BRDA:77,0,0,2
BRDA:77,e0,1,0
BRDA:77,0,2,0
BRDA:77,0,3,2
BRDA:79,0,0,2
BRDA:79,e0,1,0
BRDA:80,0,0,0
BRDA:80,0,1,2
BRDA:80,0,2,0
BRDA:80,0,3,0
BRDA:80,0,4,0
BRDA:80,0,5,2
BRDA:81,0,0,2
BRDA:81,e0,1,0
BRDA:82,0,0,2
BRDA:82,e0,1,0
BRDA:92,0,0,0
BRDA:92,0,1,4
BRDA:94,0,0,-
BRDA:94,e0,1,-
BRDA:95,0,0,-
BRDA:95,e0,1,-
BRDA:96,0,0,-
BRDA:96,e0,1,-
BRDA:97,0,0,-
BRDA:97,e0,1,-
BRDA:103,0,0,-
BRDA:103,e0,1,-
BRDA:103,0,2,-
BRDA:103,e0,3,-
BRDA:115,0,0,20
BRDA:115,0,1,4
BRDA:117,0,0,20
BRDA:117,e0,1,0
BRDA:118,0,0,20
BRDA:118,e0,1,0
BRDA:119,0,0,20
BRDA:119,e0,1,0
BRDA:120,0,0,20
BRDA:120,e0,1,0
BRDA:123,0,0,4
BRDA:123,e0,1,0
BRDA:123,0,2,4
BRDA:123,e0,3,0
BRDA:131,0,0,0
BRDA:131,0,1,24
BRDA:133,0,0,20
BRDA:133,0,1,4
BRDA:135,0,0,6
BRDA:135,0,1,20
BRDA:147,0,0,0
BRDA:147,0,1,24
BRDA:148,0,0,-
BRDA:148,e0,1,-
BRDA:148,0,2,-
BRDA:148,e0,3,-
BRDA:149,0,0,0
BRDA:149,0,1,24
BRDA:150,0,0,-
BRDA:150,e0,1,-
BRDA:150,0,2,-
BRDA:150,e0,3,-
BRDA:151,0,0,0
BRDA:151,0,1,24
BRDA:153,0,0,-
BRDA:153,e0,1,-
BRDA:154,0,0,-
BRDA:154,e0,1,-
BRDA:154,0,2,-
BRDA:154,e0,3,-
BRDA:155,0,0,0
BRDA:155,0,1,24
BRDA:157,0,0,-
BRDA:157,e0,1,-
BRDA:158,0,0,-
BRDA:158,e0,1,-
BRDA:159,0,0,-
BRDA:159,e0,1,-
BRDA:159,0,2,-
BRDA:159,0,3,-
BRDA:161,0,0,-
BRDA:161,e0,1,-
BRDA:162,0,0,-
BRDA:162,e0,1,-
BRDA:163,0,0,-
BRDA:163,e0,1,-
BRDA:164,0,0,-
BRDA:164,e0,1,-
BRDA:181,0,0,0
BRDA:181,0,1,4
BRDA:183,0,0,4
BRDA:183,0,1,0
BRDA:183,0,2,0
BRDA:183,0,3,4
BRDA:185,0,0,26
BRDA:185,e0,1,0
BRDA:185,0,2,4
BRDA:185,0,3,22
BRDA:187,0,0,4
BRDA:187,e0,1,0
BRDA:188,0,0,4
BRDA:188,e0,1,0
BRDA:189,0,0,4
BRDA:189,e0,1,0
BRDA:193,0,0,4
BRDA:193,e0,1,0
BRDA:195,0,0,22
BRDA:195,e0,1,0
BRDA:195,0,2,0
BRDA:195,0,3,22
BRDA:197,0,0,-
BRDA:197,e0,1,-
BRDA:198,0,0,-
BRDA:198,e0,1,-
BRDA:199,0,0,-
BRDA:199,e0,1,-
BRDA:201,0,0,-
BRDA:201,e0,1,-
BRDA:203,0,0,22
BRDA:203,e0,1,0
BRDA:203,0,2,0
BRDA:203,0,3,22
BRDA:205,0,0,-
BRDA:205,e0,1,-
BRDA:206,0,0,-
BRDA:206,e0,1,-
BRDA:207,0,0,-
BRDA:207,e0,1,-
BRDA:208,0,0,-
BRDA:208,e0,1,-
BRDA:213,0,0,-
BRDA:213,e0,1,-
BRDA:215,0,0,22
BRDA:215,e0,1,0
BRDA:215,0,2,2
BRDA:215,0,3,20
BRDA:217,0,0,0
BRDA:217,0,1,2
BRDA:219,0,0,2
BRDA:219,e0,1,0
BRDA:219,0,2,0
BRDA:219,0,3,2
BRDA:221,0,0,2
BRDA:221,e0,1,0
BRDA:222,0,0,2
BRDA:222,e0,1,0
BRDA:223,0,0,2
BRDA:223,e0,1,0
BRDA:228,0,0,2
BRDA:228,e0,1,0
BRDA:228,0,2,2
BRDA:228,0,3,0
BRDA:230,0,0,2
BRDA:230,e0,1,0
BRDA:230,0,2,2
BRDA:230,0,3,0
BRDA:231,0,0,2
BRDA:231,e0,1,0
BRDA:235,0,0,2
BRDA:235,e0,1,0
BRDA:235,0,2,0
BRDA:235,0,3,2
BRDA:238,0,0,2
BRDA:238,0,1,0
BRDA:238,0,2,2
BRDA:238,e0,3,0
BRDA:238,0,4,0
BRDA:238,0,5,2
BRDA:240,0,0,2
BRDA:240,0,1,2
BRDA:241,0,0,2
BRDA:241,e0,1,0
BRDA:243,0,0,0
BRDA:243,0,1,2
BRDA:245,0,0,-
BRDA:245,e0,1,-
BRDA:246,0,0,-
BRDA:246,e0,1,-
BRDA:254,0,0,0
BRDA:254,0,1,2
BRDA:256,0,0,2
BRDA:256,e0,1,0
BRDA:260,0,0,2
BRDA:260,e0,1,0
BRDA:261,0,0,3
BRDA:261,0,1,2
BRDA:263,0,0,3
BRDA:263,e0,1,0
BRDA:264,0,0,3
BRDA:264,e0,1,0
BRDA:266,0,0,3
BRDA:266,e0,1,0
BRDA:270,0,0,3
BRDA:270,0,1,2
BRDA:277,0,0,2
BRDA:277,e0,1,0
BRDA:303,0,0,0
BRDA:303,0,1,24
BRDA:305,0,0,-
BRDA:305,0,1,-
BRDA:306,0,0,-
BRDA:306,0,1,-
BRDA:306,0,2,-
BRDA:306,0,3,-
BRDA:306,0,4,-
BRDA:306,0,5,-
BRDA:308,0,0,-
BRDA:308,0,1,-
BRDA:308,0,2,-
BRDA:308,0,3,-
BRDA:308,0,4,-
BRDA:308,0,5,-
BRDA:310,0,0,12
BRDA:310,0,1,12
BRDA:311,0,0,12
BRDA:311,0,1,0
BRDA:311,0,2,12
BRDA:311,0,3,0
BRDA:311,0,4,0
BRDA:311,0,5,0
BRDA:312,0,0,0
BRDA:312,0,1,12
BRDA:313,0,0,-
BRDA:313,e0,1,-
BRDA:314,0,0,-
BRDA:314,e0,1,-
BRDA:314,0,2,-
BRDA:314,e0,3,-
BRDA:315,0,0,6
BRDA:315,0,1,6
BRDA:316,0,0,6
BRDA:316,0,1,0
BRDA:316,0,2,6
BRDA:316,0,3,0
BRDA:316,0,4,0
BRDA:316,0,5,0
BRDA:317,0,0,0
BRDA:317,0,1,6
BRDA:319,0,0,-
BRDA:319,e0,1,-
BRDA:320,0,0,-
BRDA:320,e0,1,-
BRDA:321,0,0,-
BRDA:321,e0,1,-
BRDA:321,0,2,-
BRDA:321,0,3,-
BRDA:323,0,0,-
BRDA:323,e0,1,-
BRDA:324,0,0,-
BRDA:324,e0,1,-
BRDA:326,0,0,2
BRDA:326,0,1,4
BRDA:328,0,0,2
BRDA:328,e0,1,0
BRDA:329,0,0,2
BRDA:329,e0,1,0
BRDA:330,0,0,2
BRDA:330,e0,1,0
BRDA:330,0,2,0
BRDA:330,0,3,2
BRDA:332,0,0,2
BRDA:332,e0,1,0
BRDA:333,0,0,2
BRDA:333,e0,1,0
BRDA:334,0,0,2
BRDA:334,e0,1,0
BRDA:336,0,0,4
BRDA:336,0,1,0
BRDA:348,0,0,4
BRDA:348,0,1,0
BRDA:348,0,2,4
BRDA:348,0,3,0
BRDA:348,0,4,4
BRDA:348,0,5,0
BRDA:350,0,0,-
BRDA:350,0,1,-
BRDA:350,0,2,-
BRDA:350,0,3,-
BRDA:350,0,4,-
BRDA:350,0,5,-
BRDA:361,0,0,-
BRDA:361,e0,1,-
BRDA:361,0,2,-
BRDA:361,e0,3,-
BRDA:363,0,0,-
BRDA:363,e0,1,-
BRDA:373,0,0,-
BRDA:373,e0,1,-
BRDA:373,0,2,-
BRDA:373,e0,3,-
BRDA:375,0,0,-
BRDA:375,e0,1,-
BRDA:385,0,0,12
BRDA:385,e0,1,0
BRDA:385,0,2,12
BRDA:385,e0,3,0
BRDA:388,0,0,12
BRDA:388,e0,1,0
BRDA:388,0,2,12
BRDA:388,e0,3,0
BRDA:397,0,0,0
BRDA:397,0,1,6
BRDA:397,0,2,0
BRDA:397,0,3,0
BRDA:397,0,4,0
BRDA:397,0,5,6
BRDA:398,0,0,6
BRDA:398,e0,1,0
BRDA:399,0,0,6
BRDA:399,e0,1,0
BRDA:400,0,0,6
BRDA:400,e0,1,0
BRDA:401,0,0,6
BRDA:401,e0,1,0
BRDA:402,0,0,6
BRDA:402,e0,1,0
BRDA:402,0,2,6
BRDA:402,e0,3,0
BRDA:402,0,4,6
BRDA:402,e0,5,0
BRDA:412,0,0,-
BRDA:412,e0,1,-
BRDA:414,0,0,-
BRDA:414,e0,1,-
BRDA:414,0,2,-
BRDA:414,0,3,-
BRDA:415,0,0,-
BRDA:415,e0,1,-
BRDA:416,0,0,-
BRDA:416,e0,1,-
BRDA:416,0,2,-
BRDA:416,0,3,-
BRDA:419,0,0,-
BRDA:419,e0,1,-
BRDA:419,0,2,-
BRDA:419,0,3,-
BRDA:421,0,0,-
BRDA:421,0,1,-
BRDA:422,0,0,-
BRDA:422,e0,1,-
BRDA:423,0,0,-
BRDA:423,e0,1,-
BRDA:424,0,0,-
BRDA:424,e0,1,-
BRDA:424,0,2,-
BRDA:424,e0,3,-
BRDA:424,0,4,-
BRDA:424,e0,5,-
BRDA:436,0,0,-
BRDA:436,e0,1,-
BRDA:436,0,2,-
BRDA:436,0,3,-
BRDA:442,0,0,-
BRDA:442,0,1,-
BRDA:442,0,2,-
BRDA:442,0,3,-
BRDA:442,0,4,-
BRDA:442,0,5,-
BRDA:442,0,6,-
BRDA:442,0,7,-
BRDA:449,0,0,-
BRDA:449,0,1,-
BRDA:449,0,2,-
BRDA:449,0,3,-
BRDA:449,0,4,-
BRDA:449,0,5,-
BRDA:449,0,6,-
BRDA:449,0,7,-
BRDA:456,0,0,-
BRDA:456,e0,1,-
BRDA:456,0,2,-
BRDA:456,0,3,-
BRDA:458,0,0,-
BRDA:458,e0,1,-
BRDA:459,0,0,-
BRDA:459,0,1,-
BRDA:460,0,0,-
BRDA:460,e0,1,-
BRDA:460,0,2,-
BRDA:460,e0,3,-
BRDA:462,0,0,-
BRDA:462,e0,1,-
BRDA:464,0,0,-
BRDA:464,e0,1,-
BRDA:464,0,2,-
BRDA:464,0,3,-
BRDA:466,0,0,-
BRDA:466,e0,1,-
BRDA:467,0,0,-
BRDA:467,e0,1,-
BRDA:469,0,0,-
BRDA:469,e0,1,-
BRDA:469,0,2,-
BRDA:469,0,3,-
BRDA:471,0,0,-
BRDA:471,e0,1,-
BRDA:472,0,0,-
BRDA:472,e0,1,-
BRDA:474,0,0,-
BRDA:474,e0,1,-
BRDA:474,0,2,-
BRDA:474,0,3,-
BRDA:475,0,0,-
BRDA:475,e0,1,-
BRDA:475,0,2,-
BRDA:475,e0,3,-
BRDA:486,0,0,-
BRDA:486,e0,1,-
BRDA:486,0,2,-
BRDA:486,0,3,-
BRDA:488,0,0,-
BRDA:488,e0,1,-
BRDA:488,0,2,-
BRDA:488,0,3,-
BRDA:491,0,0,-
BRDA:491,e0,1,-
BRDA:494,0,0,-
BRDA:494,0,1,-
BRDA:501,0,0,-
BRDA:501,0,1,-
BRDA:503,0,0,-
BRDA:503,e0,1,-
BRDA:503,0,2,-
BRDA:503,0,3,-
BRDA:506,0,0,-
BRDA:506,e0,1,-
BRDA:506,0,2,-
BRDA:506,e0,3,-
BRDA:509,0,0,-
BRDA:509,e0,1,-
BRDA:509,0,2,-
BRDA:509,0,3,-
BRDA:512,0,0,-
BRDA:512,e0,1,-
BRDA:520,0,0,-
BRDA:520,0,1,-
BRDA:525,0,0,-
BRDA:525,e0,1,-
BRDA:532,0,0,-
BRDA:532,e0,1,-
BRDA:532,0,2,-
BRDA:532,0,3,-
BRDA:534,0,0,-
BRDA:534,e0,1,-
BRDA:535,0,0,-
BRDA:535,e0,1,-
BRDA:537,0,0,-
BRDA:537,e0,1,-
BRDA:552,0,0,0
BRDA:552,0,1,24
BRDA:557,0,0,0
BRDA:557,0,1,24
BRDA:562,0,0,12
BRDA:562,0,1,12
BRDA:572,0,0,38
BRDA:572,0,1,312
BRDA:587,0,0,4
BRDA:587,0,1,4
BRDA:589,0,0,4
BRDA:589,0,1,0
BRDA:589,0,2,4
BRDA:589,e0,3,0
BRDA:589,0,4,0
BRDA:589,0,5,4
BRDA:589,0,6,0
BRDA:589,0,7,4
BRDA:602,0,0,0
BRDA:602,e0,1,0
BRDA:602,0,2,0
BRDA:602,e0,3,0
BRDA:602,0,4,0
BRDA:602,e0,5,0
BRDA:602,0,6,1536
BRDA:602,e0,7,0
BRDA:603,0,0,0
BRDA:603,e0,1,0
BRDA:603,0,2,0
BRDA:603,0,3,0
BRDA:603,0,4,0
BRDA:603,e0,5,0
BRDA:603,0,6,0
BRDA:603,0,7,0
BRDA:603,0,8,0
BRDA:603,e0,9,0
BRDA:603,0,10,0
BRDA:603,0,11,0
BRDA:603,0,12,0
BRDA:603,0,13,1536
BRDA:605,0,0,0
BRDA:605,e0,1,0
BRDA:605,0,2,0
BRDA:605,e0,3,0
BRDA:606,0,0,0
BRDA:606,0,1,0
BRDA:606,0,2,0
BRDA:606,0,3,0
BRDA:606,0,4,0
BRDA:606,0,5,0
BRDA:606,0,6,0
BRDA:606,0,7,1536
BRDA:607,0,0,-
BRDA:607,e0,1,-
BRDA:607,0,2,-
BRDA:607,0,3,-
BRDA:607,0,4,-
BRDA:607,e0,5,-
BRDA:607,0,6,-
BRDA:607,0,7,-
BRDA:607,0,8,-
BRDA:607,0,9,-
BRDA:607,0,10,-
BRDA:607,0,11,-
BRDA:609,0,0,0
BRDA:609,e0,1,0
BRDA:609,0,2,0
BRDA:609,0,3,0
BRDA:609,0,4,0
BRDA:609,0,5,0
BRDA:609,0,6,0
BRDA:609,e0,7,0
BRDA:609,0,8,0
BRDA:609,0,9,0
BRDA:609,0,10,44
BRDA:609,0,11,1492
BRDA:611,0,0,0
BRDA:611,e0,1,0
BRDA:611,0,2,0
BRDA:611,e0,3,0
BRDA:611,0,4,0
BRDA:611,e0,5,0
BRDA:611,0,6,1492
BRDA:611,e0,7,0
BRDA:612,0,0,0
BRDA:612,e0,1,0
BRDA:612,0,2,0
BRDA:612,e0,3,0
BRDA:612,0,4,0
BRDA:612,e0,5,0
BRDA:612,0,6,1492
BRDA:612,e0,7,0
BRDA:613,0,0,0
BRDA:613,0,1,0
BRDA:613,0,2,0
BRDA:613,0,3,0
BRDA:613,0,4,0
BRDA:613,0,5,0
BRDA:613,0,6,0
BRDA:613,0,7,1492
BRDA:615,0,0,0
BRDA:615,0,1,0
BRDA:615,0,2,0
BRDA:615,0,3,0
BRDA:615,0,4,0
BRDA:615,0,5,0
BRDA:615,0,6,0
BRDA:615,0,7,1492
BRDA:616,0,0,-
BRDA:616,e0,1,-
BRDA:616,0,2,-
BRDA:616,0,3,-
BRDA:616,0,4,-
BRDA:616,e0,5,-
BRDA:616,0,6,-
BRDA:616,0,7,-
BRDA:616,0,8,-
BRDA:616,e0,9,-
BRDA:616,0,10,-
BRDA:616,0,11,-
BRDA:616,0,12,-
BRDA:616,e0,13,-
BRDA:616,0,14,-
BRDA:616,0,15,-
BRDA:619,0,0,1536
BRDA:619,e0,1,0
BRF:586
BRH:138
DA:65,2
DA:68,2
DA:69,2
DA:70,2
DA:71,2
DA:72,4
DA:74,2
DA:75,2
DA:76,2
DA:77,2
DA:78,0
DA:79,2
DA:80,2
DA:81,2
DA:82,2
DA:83,2
DA:84,2
DA:88,4
DA:91,4
DA:92,4
DA:94,0
DA:95,0
DA:96,0
DA:97,0
DA:98,0
DA:99,0
DA:103,0
DA:104,0
DA:108,4
DA:112,24
DA:115,24
DA:117,20
DA:118,20
DA:119,20
DA:120,20
DA:123,4
DA:124,24
DA:128,24
DA:131,24
DA:132,0
DA:133,24
DA:135,26
DA:137,20
DA:139,4
DA:144,24
DA:147,24
DA:148,0
DA:149,24
DA:150,0
DA:151,24
DA:153,0
DA:154,0
DA:155,24
DA:157,0
DA:158,0
DA:159,0
DA:160,0
DA:161,0
DA:162,0
DA:163,0
DA:164,0
DA:165,0
DA:166,0
DA:169,24
DA:170,0
DA:175,26
DA:178,26
DA:179,34
DA:181,4
DA:182,0
DA:183,4
DA:185,26
DA:187,4
DA:188,4
DA:189,4
DA:190,4
DA:192,4
DA:193,4
DA:195,22
DA:197,0
DA:198,0
DA:199,0
DA:201,0
DA:203,22
DA:205,0
DA:206,0
DA:207,0
DA:208,0
DA:209,0
DA:211,0
DA:212,0
DA:213,0
DA:215,22
DA:217,2
DA:218,0
DA:219,2
DA:220,0
DA:221,2
DA:222,2
DA:223,2
DA:224,2
DA:225,2
DA:228,2
DA:230,2
DA:231,2
DA:233,0
DA:235,2
DA:236,0
DA:238,2
DA:240,4
DA:241,2
DA:243,2
DA:245,0
DA:246,0
DA:247,0
DA:249,0
DA:250,0
DA:254,2
DA:255,0
DA:256,2
DA:260,2
DA:261,5
DA:263,3
DA:264,3
DA:266,3
DA:267,3
DA:269,2
DA:270,5
DA:272,3
DA:273,3
DA:274,3
DA:276,2
DA:277,2
DA:280,20
DA:281,6
DA:300,24
DA:303,24
DA:305,0
DA:306,0
DA:308,0
DA:310,24
DA:311,12
DA:312,12
DA:313,0
DA:314,0
DA:315,12
DA:316,6
DA:317,6
DA:319,0
DA:320,0
DA:321,0
DA:322,0
DA:323,0
DA:324,0
DA:326,6
DA:328,2
DA:329,2
DA:330,2
DA:331,0
DA:332,2
DA:333,2
DA:334,2
DA:336,4
DA:337,4
DA:338,20
DA:343,4
DA:347,4
DA:348,4
DA:349,4
DA:350,0
DA:351,0
DA:358,0
DA:361,0
DA:362,0
DA:363,0
DA:365,0
DA:370,0
DA:373,0
DA:374,0
DA:375,0
DA:377,0
DA:382,12
DA:385,12
DA:386,12
DA:387,0
DA:388,12
DA:389,12
DA:394,6
DA:397,6
DA:398,6
DA:399,6
DA:400,6
DA:401,6
DA:402,6
DA:403,6
DA:404,6
DA:409,0
DA:412,0
DA:413,0
DA:414,0
DA:415,0
DA:416,0
DA:418,0
DA:419,0
DA:421,0
DA:422,0
DA:423,0
DA:424,0
DA:425,0
DA:426,0
DA:427,0
DA:432,0
DA:436,0
DA:437,0
DA:440,0
DA:442,0
DA:443,0
DA:444,0
DA:447,0
DA:449,0
DA:450,0
DA:453,0
DA:456,0
DA:458,0
DA:459,0
DA:460,0
DA:462,0
DA:463,0
DA:464,0
DA:466,0
DA:467,0
DA:469,0
DA:471,0
DA:472,0
DA:474,0
DA:475,0
DA:486,0
DA:488,0
DA:491,0
DA:492,0
DA:494,0
DA:497,0
DA:501,0
DA:503,0
DA:506,0
DA:507,0
DA:509,0
DA:512,0
DA:513,0
DA:516,0
DA:520,0
DA:525,0
DA:528,0
DA:532,0
DA:534,0
DA:535,0
DA:536,0
DA:537,0
DA:540,0
DA:543,0
DA:548,24
DA:551,24
DA:552,24
DA:554,0
DA:555,0
DA:557,24
DA:559,0
DA:560,0
DA:562,24
DA:563,12
DA:564,24
DA:569,350
DA:572,350
DA:574,38
DA:575,38
DA:576,38
DA:578,312
DA:583,4
DA:586,4
DA:587,8
DA:588,8
DA:589,4
DA:590,0
DA:592,4
DA:597,1536
DA:600,3072
DA:602,1536
DA:603,3072
DA:604,0
DA:605,1536
DA:606,1536
DA:607,0
DA:608,0
DA:609,1536
DA:610,0
DA:611,2984
DA:612,1492
DA:613,4476
DA:614,0
DA:615,1492
DA:616,0
DA:617,0
DA:618,0
DA:619,3072
LF:304
LH:154
end_of_record
TN:
SF:/usr/include/c++/13/bits/regex_constants.h
FN:190,194,_ZNSt15regex_constantsanENS_18syntax_option_typeES0_
FN:197,201,_ZNSt15regex_constantsorENS_18syntax_option_typeES0_
FN:371,375,_ZNSt15regex_constantsanENS_15match_flag_typeES0_
FN:378,382,_ZNSt15regex_constantsorENS_15match_flag_typeES0_
FN:392,393,_ZNSt15regex_constantscoENS_15match_flag_typeE
FN:397,398,_ZNSt15regex_constantsaNERNS_15match_flag_typeES0_
FN:402,403,_ZNSt15regex_constantsoRERNS_15match_flag_typeES0_
FNDA:119,_ZNSt15regex_constantsanENS_18syntax_option_typeES0_
FNDA:18,_ZNSt15regex_constantsorENS_18syntax_option_typeES0_
FNDA:22,_ZNSt15regex_constantsanENS_15match_flag_typeES0_
FNDA:0,_ZNSt15regex_constantsorENS_15match_flag_typeES0_
FNDA:0,_ZNSt15regex_constantscoENS_15match_flag_typeE
FNDA:0,_ZNSt15regex_constantsaNERNS_15match_flag_typeES0_
FNDA:0,_ZNSt15regex_constantsoRERNS_15match_flag_typeES0_
FNF:7
FNH:3
DA:190,119
DA:193,119
DA:197,18
DA:200,18
DA:371,22
DA:374,22
DA:378,0
DA:381,0
DA:392,0
DA:393,0
DA:397,0
DA:398,0
DA:402,0
DA:403,0
LF:14
LH:6
end_of_record
TN:
SF:/usr/include/c++/13/bits/regex_error.h
FN:165,167,_ZNSt11regex_errorC2ENSt15regex_constants10error_typeEPKc
FN:171,173,_ZSt19__throw_regex_errorNSt15regex_constants10error_typeEPKc
FNDA:0,_ZNSt11regex_errorC2ENSt15regex_constants10error_typeEPKc
FNDA:0,_ZSt19__throw_regex_errorNSt15regex_constants10error_typeEPKc
FNF:2
FNH:0
BRDA:173,0,0,-
BRDA:173,e0,1,-
BRF:2
BRH:0
DA:165,0
DA:166,0
DA:167,0
DA:171,0
DA:173,0
LF:5
LH:0
end_of_record
TN:
SF:/usr/include/c++/13/bits/regex_executor.h
FN:149,150,_ZNSt8__detail9_ExecutorIN9__gnu_cxx17__normal_iteratorIPKcNSt7__cxx1112basic_stringIcSt11char_traitsIcESaIcEEEEESaINS5_9sub_matchISB_EEENS5_12regex_traitsIcEELb0EE7_M_mainENSH_11_Match_modeE
FN:149,150,_ZNSt8__detail9_ExecutorIN9__gnu_cxx17__normal_iteratorIPKcNSt7__cxx1112basic_stringIcSt11char_traitsIcESaIcEEEEESaINS5_9sub_matchISB_EEENS5_12regex_traitsIcEELb1EE7_M_mainENSH_11_Match_modeE
FN:159,164,_ZNKSt8__detail9_ExecutorIN9__gnu_cxx17__normal_iteratorIPKcNSt7__cxx1112basic_stringIcSt11char_traitsIcESaIcEEEEESaINS5_9sub_matchISB_EEENS5_12regex_traitsIcEELb0EE10_M_is_wordEc
FN:159,164,_ZNKSt8__detail9_ExecutorIN9__gnu_cxx17__normal_iteratorIPKcNSt7__cxx1112basic_stringIcSt11char_traitsIcESaIcEEEEESaINS5_9sub_matchISB_EEENS5_12regex_traitsIcEELb1EE10_M_is_wordEc
FN:167,191,_ZNKSt8__detail9_ExecutorIN9__gnu_cxx17__normal_iteratorIPKcNSt7__cxx1112basic_stringIcSt11char_traitsIcESaIcEEEEESaINS5_9sub_matchISB_EEENS5_12regex_traitsIcEELb0EE11_M_at_beginEv
FN:167,191,_ZNKSt8__detail9_ExecutorIN9__gnu_cxx17__normal_iteratorIPKcNSt7__cxx1112basic_stringIcSt11char_traitsIcESaIcEEEEESaINS5_9sub_matchISB_EEENS5_12regex_traitsIcEELb1EE11_M_at_beginEv
FN:194,202,_ZNKSt8__detail9_ExecutorIN9__gnu_cxx17__normal_iteratorIPKcNSt7__cxx1112basic_stringIcSt11char_traitsIcESaIcEEEEESaINS5_9sub_matchISB_EEENS5_12regex_traitsIcEELb0EE9_M_at_endEv
FN:194,202,_ZNKSt8__detail9_ExecutorIN9__gnu_cxx17__normal_iteratorIPKcNSt7__cxx1112basic_stringIcSt11char_traitsIcESaIcEEEEESaINS5_9sub_matchISB_EEENS5_12regex_traitsIcEELb1EE9_M_at_endEv
FN:211,225,_ZNKSt8__detail9_ExecutorIN9__gnu_cxx17__normal_iteratorIPKcNSt7__cxx1112basic_stringIcSt11char_traitsIcESaIcEEEEESaINS5_9sub_matchISB_EEENS5_12regex_traitsIcEELb0EE21_M_is_line_terminatorEc
FN:211,225,_ZNKSt8__detail9_ExecutorIN9__gnu_cxx17__normal_iteratorIPKcNSt7__cxx1112basic_stringIcSt11char_traitsIcESaIcEEEEESaINS5_9sub_matchISB_EEENS5_12regex_traitsIcEELb1EE21_M_is_line_terminatorEc
FN:228,233,_ZNKSt8__detail9_ExecutorIN9__gnu_cxx17__normal_iteratorIPKcNSt7__cxx1112basic_stringIcSt11char_traitsIcESaIcEEEEESaINS5_9sub_matchISB_EEENS5_12regex_traitsIcEELb0EE18_M_match_multilineEv
FN:228,233,_ZNKSt8__detail9_ExecutorIN9__gnu_cxx17__normal_iteratorIPKcNSt7__cxx1112basic_stringIcSt11char_traitsIcESaIcEEEEESaINS5_9sub_matchISB_EEENS5_12regex_traitsIcEELb1EE18_M_match_multilineEv
FN:243,245,_ZNSt8__detail9_ExecutorIN9__gnu_cxx17__normal_iteratorIPKcNSt7__cxx1112basic_stringIcSt11char_traitsIcESaIcEEEEESaINS5_9sub_matchISB_EEENS5_12regex_traitsIcEELb0EE11_State_infoISt17integral_constantIbLb0EESt6vectorISD_SE_EEC2Elm
FN:247,247,_ZNSt8__detail9_ExecutorIN9__gnu_cxx17__normal_iteratorIPKcNSt7__cxx1112basic_stringIcSt11char_traitsIcESaIcEEEEESaINS5_9sub_matchISB_EEENS5_12regex_traitsIcEELb0EE11_State_infoISt17integral_constantIbLb0EESt6vectorISD_SE_EED2Ev
FN:252,258,_ZNSt8__detail9_ExecutorIN9__gnu_cxx17__normal_iteratorIPKcNSt7__cxx1112basic_stringIcSt11char_traitsIcESaIcEEEEESaINS5_9sub_matchISB_EEENS5_12regex_traitsIcEELb0EE11_State_infoISt17integral_constantIbLb0EESt6vectorISD_SE_EE10_M_visitedEl
FN:260,261,_ZNSt8__detail9_ExecutorIN9__gnu_cxx17__normal_iteratorIPKcNSt7__cxx1112basic_stringIcSt11char_traitsIcESaIcEEEEESaINS5_9sub_matchISB_EEENS5_12regex_traitsIcEELb0EE11_State_infoISt17integral_constantIbLb0EESt6vectorISD_SE_EE8_M_queueElRKSM_
FN:278,279,_ZNSt8__detail9_ExecutorIN9__gnu_cxx17__normal_iteratorIPKcNSt7__cxx1112basic_stringIcSt11char_traitsIcESaIcEEEEESaINS5_9sub_matchISB_EEENS5_12regex_traitsIcEELb1EE11_State_infoISt17integral_constantIbLb1EESt6vectorISD_SE_EEC2Elm
FN:282,282,_ZNKSt8__detail9_ExecutorIN9__gnu_cxx17__normal_iteratorIPKcNSt7__cxx1112basic_stringIcSt11char_traitsIcESaIcEEEEESaINS5_9sub_matchISB_EEENS5_12regex_traitsIcEELb1EE11_State_infoISt17integral_constantIbLb1EESt6vectorISD_SE_EE10_M_visitedEl
FN:285,285,_ZNSt8__detail9_ExecutorIN9__gnu_cxx17__normal_iteratorIPKcNSt7__cxx1112basic_stringIcSt11char_traitsIcESaIcEEEEESaINS5_9sub_matchISB_EEENS5_12regex_traitsIcEELb1EE11_State_infoISt17integral_constantIbLb1EESt6vectorISD_SE_EE14_M_get_sol_posEv
FN:69,87,_ZNSt8__detail9_ExecutorIN9__gnu_cxx17__normal_iteratorIPKcNSt7__cxx1112basic_stringIcSt11char_traitsIcESaIcEEEEESaINS5_9sub_matchISB_EEENS5_12regex_traitsIcEELb0EEC2ESB_SB_RSt6vectorISD_SE_ERKNS5_11basic_regexIcSG_EENSt15regex_constants15match_flag_typeE
FN:69,87,_ZNSt8__detail9_ExecutorIN9__gnu_cxx17__normal_iteratorIPKcNSt7__cxx1112basic_stringIcSt11char_traitsIcESaIcEEEEESaINS5_9sub_matchISB_EEENS5_12regex_traitsIcEELb1EEC2ESB_SB_RSt6vectorISD_SE_ERKNS5_11basic_regexIcSG_EENSt15regex_constants15match_flag_typeE
FN:91,95,_ZNSt8__detail9_ExecutorIN9__gnu_cxx17__normal_iteratorIPKcNSt7__cxx1112basic_stringIcSt11char_traitsIcESaIcEEEEESaINS5_9sub_matchISB_EEENS5_12regex_traitsIcEELb0EE8_M_matchEv
FN:91,95,_ZNSt8__detail9_ExecutorIN9__gnu_cxx17__normal_iteratorIPKcNSt7__cxx1112basic_stringIcSt11char_traitsIcESaIcEEEEESaINS5_9sub_matchISB_EEENS5_12regex_traitsIcEELb1EE8_M_matchEv
FN:99,103,_ZNSt8__detail9_ExecutorIN9__gnu_cxx17__normal_iteratorIPKcNSt7__cxx1112basic_stringIcSt11char_traitsIcESaIcEEEEESaINS5_9sub_matchISB_EEENS5_12regex_traitsIcEELb0EE20_M_search_from_firstEv
FN:99,103,_ZNSt8__detail9_ExecutorIN9__gnu_cxx17__normal_iteratorIPKcNSt7__cxx1112basic_stringIcSt11char_traitsIcESaIcEEEEESaINS5_9sub_matchISB_EEENS5_12regex_traitsIcEELb1EE20_M_search_from_firstEv
FNDA:0,_ZNSt8__detail9_ExecutorIN9__gnu_cxx17__normal_iteratorIPKcNSt7__cxx1112basic_stringIcSt11char_traitsIcESaIcEEEEESaINS5_9sub_matchISB_EEENS5_12regex_traitsIcEELb0EE7_M_mainENSH_11_Match_modeE
FNDA:22,_ZNSt8__detail9_ExecutorIN9__gnu_cxx17__normal_iteratorIPKcNSt7__cxx1112basic_stringIcSt11char_traitsIcESaIcEEEEESaINS5_9sub_matchISB_EEENS5_12regex_traitsIcEELb1EE7_M_mainENSH_11_Match_modeE
FNDA:0,_ZNKSt8__detail9_ExecutorIN9__gnu_cxx17__normal_iteratorIPKcNSt7__cxx1112basic_stringIcSt11char_traitsIcESaIcEEEEESaINS5_9sub_matchISB_EEENS5_12regex_traitsIcEELb0EE10_M_is_wordEc
FNDA:0,_ZNKSt8__detail9_ExecutorIN9__gnu_cxx17__normal_iteratorIPKcNSt7__cxx1112basic_stringIcSt11char_traitsIcESaIcEEEEESaINS5_9sub_matchISB_EEENS5_12regex_traitsIcEELb1EE10_M_is_wordEc
FNDA:0,_ZNKSt8__detail9_ExecutorIN9__gnu_cxx17__normal_iteratorIPKcNSt7__cxx1112basic_stringIcSt11char_traitsIcESaIcEEEEESaINS5_9sub_matchISB_EEENS5_12regex_traitsIcEELb0EE11_M_at_beginEv
FNDA:0,_ZNKSt8__detail9_ExecutorIN9__gnu_cxx17__normal_iteratorIPKcNSt7__cxx1112basic_stringIcSt11char_traitsIcESaIcEEEEESaINS5_9sub_matchISB_EEENS5_12regex_traitsIcEELb1EE11_M_at_beginEv
FNDA:0,_ZNKSt8__detail9_ExecutorIN9__gnu_cxx17__normal_iteratorIPKcNSt7__cxx1112basic_stringIcSt11char_traitsIcESaIcEEEEESaINS5_9sub_matchISB_EEENS5_12regex_traitsIcEELb0EE9_M_at_endEv
FNDA:0,_ZNKSt8__detail9_ExecutorIN9__gnu_cxx17__normal_iteratorIPKcNSt7__cxx1112basic_stringIcSt11char_traitsIcESaIcEEEEESaINS5_9sub_matchISB_EEENS5_12regex_traitsIcEELb1EE9_M_at_endEv
FNDA:0,_ZNKSt8__detail9_ExecutorIN9__gnu_cxx17__normal_iteratorIPKcNSt7__cxx1112basic_stringIcSt11char_traitsIcESaIcEEEEESaINS5_9sub_matchISB_EEENS5_12regex_traitsIcEELb0EE21_M_is_line_terminatorEc
FNDA:0,_ZNKSt8__detail9_ExecutorIN9__gnu_cxx17__normal_iteratorIPKcNSt7__cxx1112basic_stringIcSt11char_traitsIcESaIcEEEEESaINS5_9sub_matchISB_EEENS5_12regex_traitsIcEELb1EE21_M_is_line_terminatorEc
FNDA:0,_ZNKSt8__detail9_ExecutorIN9__gnu_cxx17__normal_iteratorIPKcNSt7__cxx1112basic_stringIcSt11char_traitsIcESaIcEEEEESaINS5_9sub_matchISB_EEENS5_12regex_traitsIcEELb0EE18_M_match_multilineEv
FNDA:0,_ZNKSt8__detail9_ExecutorIN9__gnu_cxx17__normal_iteratorIPKcNSt7__cxx1112basic_stringIcSt11char_traitsIcESaIcEEEEESaINS5_9sub_matchISB_EEENS5_12regex_traitsIcEELb1EE18_M_match_multilineEv
FNDA:0,_ZNSt8__detail9_ExecutorIN9__gnu_cxx17__normal_iteratorIPKcNSt7__cxx1112basic_stringIcSt11char_traitsIcESaIcEEEEESaINS5_9sub_matchISB_EEENS5_12regex_traitsIcEELb0EE11_State_infoISt17integral_constantIbLb0EESt6vectorISD_SE_EEC2Elm
FNDA:0,_ZNSt8__detail9_ExecutorIN9__gnu_cxx17__normal_iteratorIPKcNSt7__cxx1112basic_stringIcSt11char_traitsIcESaIcEEEEESaINS5_9sub_matchISB_EEENS5_12regex_traitsIcEELb0EE11_State_infoISt17integral_constantIbLb0EESt6vectorISD_SE_EED2Ev
FNDA:0,_ZNSt8__detail9_ExecutorIN9__gnu_cxx17__normal_iteratorIPKcNSt7__cxx1112basic_stringIcSt11char_traitsIcESaIcEEEEESaINS5_9sub_matchISB_EEENS5_12regex_traitsIcEELb0EE11_State_infoISt17integral_constantIbLb0EESt6vectorISD_SE_EE10_M_visitedEl
FNDA:0,_ZNSt8__detail9_ExecutorIN9__gnu_cxx17__normal_iteratorIPKcNSt7__cxx1112basic_stringIcSt11char_traitsIcESaIcEEEEESaINS5_9sub_matchISB_EEENS5_12regex_traitsIcEELb0EE11_State_infoISt17integral_constantIbLb0EESt6vectorISD_SE_EE8_M_queueElRKSM_
FNDA:22,_ZNSt8__detail9_ExecutorIN9__gnu_cxx17__normal_iteratorIPKcNSt7__cxx1112basic_stringIcSt11char_traitsIcESaIcEEEEESaINS5_9sub_matchISB_EEENS5_12regex_traitsIcEELb1EE11_State_infoISt17integral_constantIbLb1EESt6vectorISD_SE_EEC2Elm
FNDA:351,_ZNKSt8__detail9_ExecutorIN9__gnu_cxx17__normal_iteratorIPKcNSt7__cxx1112basic_stringIcSt11char_traitsIcESaIcEEEEESaINS5_9sub_matchISB_EEENS5_12regex_traitsIcEELb1EE11_State_infoISt17integral_constantIbLb1EESt6vectorISD_SE_EE10_M_visitedEl
FNDA:22,_ZNSt8__detail9_ExecutorIN9__gnu_cxx17__normal_iteratorIPKcNSt7__cxx1112basic_stringIcSt11char_traitsIcESaIcEEEEESaINS5_9sub_matchISB_EEENS5_12regex_traitsIcEELb1EE11_State_infoISt17integral_constantIbLb1EESt6vectorISD_SE_EE14_M_get_sol_posEv
FNDA:0,_ZNSt8__detail9_ExecutorIN9__gnu_cxx17__normal_iteratorIPKcNSt7__cxx1112basic_stringIcSt11char_traitsIcESaIcEEEEESaINS5_9sub_matchISB_EEENS5_12regex_traitsIcEELb0EEC2ESB_SB_RSt6vectorISD_SE_ERKNS5_11basic_regexIcSG_EENSt15regex_constants15match_flag_typeE
FNDA:22,_ZNSt8__detail9_ExecutorIN9__gnu_cxx17__normal_iteratorIPKcNSt7__cxx1112basic_stringIcSt11char_traitsIcESaIcEEEEESaINS5_9sub_matchISB_EEENS5_12regex_traitsIcEELb1EEC2ESB_SB_RSt6vectorISD_SE_ERKNS5_11basic_regexIcSG_EENSt15regex_constants15match_flag_typeE
FNDA:0,_ZNSt8__detail9_ExecutorIN9__gnu_cxx17__normal_iteratorIPKcNSt7__cxx1112basic_stringIcSt11char_traitsIcESaIcEEEEESaINS5_9sub_matchISB_EEENS5_12regex_traitsIcEELb0EE8_M_matchEv
FNDA:22,_ZNSt8__detail9_ExecutorIN9__gnu_cxx17__normal_iteratorIPKcNSt7__cxx1112basic_stringIcSt11char_traitsIcESaIcEEEEESaINS5_9sub_matchISB_EEENS5_12regex_traitsIcEELb1EE8_M_matchEv
FNDA:0,_ZNSt8__detail9_ExecutorIN9__gnu_cxx17__normal_iteratorIPKcNSt7__cxx1112basic_stringIcSt11char_traitsIcESaIcEEEEESaINS5_9sub_matchISB_EEENS5_12regex_traitsIcEELb0EE20_M_search_from_firstEv
FNDA:0,_ZNSt8__detail9_ExecutorIN9__gnu_cxx17__normal_iteratorIPKcNSt7__cxx1112basic_stringIcSt11char_traitsIcESaIcEEEEESaINS5_9sub_matchISB_EEENS5_12regex_traitsIcEELb1EE20_M_search_from_firstEv
FNF:25
FNH:6
BRDA:80,0,0,22
BRDA:80,e0,1,0
BRDA:81,0,0,-
BRDA:81,e0,1,-
BRDA:85,0,0,0
BRDA:85,0,1,22
BRDA:169,0,0,-
BRDA:169,0,1,-
BRDA:172,0,0,-
BRDA:172,0,1,-
BRDA:175,0,0,-
BRDA:175,0,1,-
BRDA:179,0,0,-
BRDA:179,0,1,-
BRDA:180,0,0,-
BRDA:180,e0,1,-
BRDA:187,0,0,-
BRDA:187,0,1,-
BRDA:188,0,0,-
BRDA:188,e0,1,-
BRDA:196,0,0,-
BRDA:196,0,1,-
BRDA:198,0,0,-
BRDA:198,0,1,-
BRDA:214,0,0,-
BRDA:214,e0,1,-
BRDA:216,0,0,-
BRDA:216,0,1,-
BRDA:218,0,0,-
BRDA:218,0,1,-
BRDA:220,0,0,-
BRDA:220,0,1,-
BRDA:244,0,0,-
BRDA:244,e0,1,-
BRDA:244,0,2,-
BRDA:244,0,3,-
BRDA:247,0,0,-
BRDA:247,0,1,-
BRDA:254,0,0,-
BRDA:254,0,1,-
BRF:40
BRH:2
DA:69,22
DA:74,22
DA:75,22
DA:76,22
DA:77,22
DA:78,22
DA:79,22
DA:80,44
DA:81,22
DA:82,22
DA:85,22
DA:86,0
DA:87,22
DA:91,22
DA:93,22
DA:94,22
DA:99,0
DA:101,0
DA:102,0
DA:149,22
DA:150,22
DA:159,0
DA:162,0
DA:163,0
DA:167,0
DA:169,0
DA:172,0
DA:173,0
DA:175,0
DA:179,0
DA:180,0
DA:182,0
DA:185,0
DA:187,0
DA:188,0
DA:190,0
DA:194,0
DA:196,0
DA:197,0
DA:198,0
DA:199,0
DA:201,0
DA:211,0
DA:213,0
DA:214,0
DA:215,0
DA:216,0
DA:217,0
DA:218,0
DA:220,0
DA:221,0
DA:224,0
DA:228,0
DA:230,0
DA:232,0
DA:243,0
DA:244,0
DA:245,0
DA:247,0
DA:252,0
DA:254,0
DA:255,0
DA:256,0
DA:257,0
DA:260,0
DA:261,0
DA:278,22
DA:279,22
DA:282,351
DA:285,22
LF:70
LH:21
end_of_record
TN:
SF:/usr/include/c++/13/bits/regex_executor.tcc
FN:115,143,_ZNSt8__detail9_ExecutorIN9__gnu_cxx17__normal_iteratorIPKcNSt7__cxx1112basic_stringIcSt11char_traitsIcESaIcEEEEESaINS5_9sub_matchISB_EEENS5_12regex_traitsIcEELb0EE16_M_main_dispatchENSH_11_Match_modeESt17integral_constantIbLb0EE
FN:148,165,_ZNSt8__detail9_ExecutorIN9__gnu_cxx17__normal_iteratorIPKcNSt7__cxx1112basic_stringIcSt11char_traitsIcESaIcEEEEESaINS5_9sub_matchISB_EEENS5_12regex_traitsIcEELb0EE12_M_lookaheadEl
FN:148,165,_ZNSt8__detail9_ExecutorIN9__gnu_cxx17__normal_iteratorIPKcNSt7__cxx1112basic_stringIcSt11char_traitsIcESaIcEEEEESaINS5_9sub_matchISB_EEENS5_12regex_traitsIcEELb1EE12_M_lookaheadEl
FN:175,197,_ZNSt8__detail9_ExecutorIN9__gnu_cxx17__normal_iteratorIPKcNSt7__cxx1112basic_stringIcSt11char_traitsIcESaIcEEEEESaINS5_9sub_matchISB_EEENS5_12regex_traitsIcEELb0EE16_M_rep_once_moreENSH_11_Match_modeEl
FN:175,197,_ZNSt8__detail9_ExecutorIN9__gnu_cxx17__normal_iteratorIPKcNSt7__cxx1112basic_stringIcSt11char_traitsIcESaIcEEEEESaINS5_9sub_matchISB_EEENS5_12regex_traitsIcEELb1EE16_M_rep_once_moreENSH_11_Match_modeEl
FN:205,243,_ZNSt8__detail9_ExecutorIN9__gnu_cxx17__normal_iteratorIPKcNSt7__cxx1112basic_stringIcSt11char_traitsIcESaIcEEEEESaINS5_9sub_matchISB_EEENS5_12regex_traitsIcEELb0EE16_M_handle_repeatENSH_11_Match_modeEl
FN:205,243,_ZNSt8__detail9_ExecutorIN9__gnu_cxx17__normal_iteratorIPKcNSt7__cxx1112basic_stringIcSt11char_traitsIcESaIcEEEEESaINS5_9sub_matchISB_EEENS5_12regex_traitsIcEELb1EE16_M_handle_repeatENSH_11_Match_modeEl
FN:247,257,_ZNSt8__detail9_ExecutorIN9__gnu_cxx17__normal_iteratorIPKcNSt7__cxx1112basic_stringIcSt11char_traitsIcESaIcEEEEESaINS5_9sub_matchISB_EEENS5_12regex_traitsIcEELb0EE23_M_handle_subexpr_beginENSH_11_Match_modeEl
FN:247,257,_ZNSt8__detail9_ExecutorIN9__gnu_cxx17__normal_iteratorIPKcNSt7__cxx1112basic_stringIcSt11char_traitsIcESaIcEEEEESaINS5_9sub_matchISB_EEENS5_12regex_traitsIcEELb1EE23_M_handle_subexpr_beginENSH_11_Match_modeEl
FN:261,272,_ZNSt8__detail9_ExecutorIN9__gnu_cxx17__normal_iteratorIPKcNSt7__cxx1112basic_stringIcSt11char_traitsIcESaIcEEEEESaINS5_9sub_matchISB_EEENS5_12regex_traitsIcEELb0EE21_M_handle_subexpr_endENSH_11_Match_modeEl
FN:261,272,_ZNSt8__detail9_ExecutorIN9__gnu_cxx17__normal_iteratorIPKcNSt7__cxx1112basic_stringIcSt11char_traitsIcESaIcEEEEESaINS5_9sub_matchISB_EEENS5_12regex_traitsIcEELb1EE21_M_handle_subexpr_endENSH_11_Match_modeEl
FN:276,282,_ZNSt8__detail9_ExecutorIN9__gnu_cxx17__normal_iteratorIPKcNSt7__cxx1112basic_stringIcSt11char_traitsIcESaIcEEEEESaINS5_9sub_matchISB_EEENS5_12regex_traitsIcEELb0EE30_M_handle_line_begin_assertionENSH_11_Match_modeEl
FN:276,282,_ZNSt8__detail9_ExecutorIN9__gnu_cxx17__normal_iteratorIPKcNSt7__cxx1112basic_stringIcSt11char_traitsIcESaIcEEEEESaINS5_9sub_matchISB_EEENS5_12regex_traitsIcEELb1EE30_M_handle_line_begin_assertionENSH_11_Match_modeEl
FN:286,292,_ZNSt8__detail9_ExecutorIN9__gnu_cxx17__normal_iteratorIPKcNSt7__cxx1112basic_stringIcSt11char_traitsIcESaIcEEEEESaINS5_9sub_matchISB_EEENS5_12regex_traitsIcEELb0EE28_M_handle_line_end_assertionENSH_11_Match_modeEl
FN:286,292,_ZNSt8__detail9_ExecutorIN9__gnu_cxx17__normal_iteratorIPKcNSt7__cxx1112basic_stringIcSt11char_traitsIcESaIcEEEEESaINS5_9sub_matchISB_EEENS5_12regex_traitsIcEELb1EE28_M_handle_line_end_assertionENSH_11_Match_modeEl
FN:296,302,_ZNSt8__detail9_ExecutorIN9__gnu_cxx17__normal_iteratorIPKcNSt7__cxx1112basic_stringIcSt11char_traitsIcESaIcEEEEESaINS5_9sub_matchISB_EEENS5_12regex_traitsIcEELb0EE23_M_handle_word_boundaryENSH_11_Match_modeEl
FN:296,302,_ZNSt8__detail9_ExecutorIN9__gnu_cxx17__normal_iteratorIPKcNSt7__cxx1112basic_stringIcSt11char_traitsIcESaIcEEEEESaINS5_9sub_matchISB_EEENS5_12regex_traitsIcEELb1EE23_M_handle_word_boundaryENSH_11_Match_modeEl
FN:308,314,_ZNSt8__detail9_ExecutorIN9__gnu_cxx17__normal_iteratorIPKcNSt7__cxx1112basic_stringIcSt11char_traitsIcESaIcEEEEESaINS5_9sub_matchISB_EEENS5_12regex_traitsIcEELb0EE27_M_handle_subexpr_lookaheadENSH_11_Match_modeEl
FN:308,314,_ZNSt8__detail9_ExecutorIN9__gnu_cxx17__normal_iteratorIPKcNSt7__cxx1112basic_stringIcSt11char_traitsIcESaIcEEEEESaINS5_9sub_matchISB_EEENS5_12regex_traitsIcEELb1EE27_M_handle_subexpr_lookaheadENSH_11_Match_modeEl
FN:318,337,_ZNSt8__detail9_ExecutorIN9__gnu_cxx17__normal_iteratorIPKcNSt7__cxx1112basic_stringIcSt11char_traitsIcESaIcEEEEESaINS5_9sub_matchISB_EEENS5_12regex_traitsIcEELb0EE15_M_handle_matchENSH_11_Match_modeEl
FN:318,337,_ZNSt8__detail9_ExecutorIN9__gnu_cxx17__normal_iteratorIPKcNSt7__cxx1112basic_stringIcSt11char_traitsIcESaIcEEEEESaINS5_9sub_matchISB_EEENS5_12regex_traitsIcEELb1EE15_M_handle_matchENSH_11_Match_modeEl
FN:361,362,_ZNSt8__detail16_Backref_matcherIN9__gnu_cxx17__normal_iteratorIPKcNSt7__cxx1112basic_stringIcSt11char_traitsIcESaIcEEEEENS5_12regex_traitsIcEEEC2EbRKSD_
FN:365,381,_ZNSt8__detail16_Backref_matcherIN9__gnu_cxx17__normal_iteratorIPKcNSt7__cxx1112basic_stringIcSt11char_traitsIcESaIcEEEEENS5_12regex_traitsIcEEE8_M_applyESB_SB_SB_SB_
FN:376,376,_ZZNSt8__detail16_Backref_matcherIN9__gnu_cxx17__normal_iteratorIPKcNSt7__cxx1112basic_stringIcSt11char_traitsIcESaIcEEEEENS5_12regex_traitsIcEEE8_M_applyESB_SB_SB_SB_ENKUlccE_clEcc
FN:39,54,_ZNSt8__detail9_ExecutorIN9__gnu_cxx17__normal_iteratorIPKcNSt7__cxx1112basic_stringIcSt11char_traitsIcESaIcEEEEESaINS5_9sub_matchISB_EEENS5_12regex_traitsIcEELb0EE9_M_searchEv
FN:39,54,_ZNSt8__detail9_ExecutorIN9__gnu_cxx17__normal_iteratorIPKcNSt7__cxx1112basic_stringIcSt11char_traitsIcESaIcEEEEESaINS5_9sub_matchISB_EEENS5_12regex_traitsIcEELb1EE9_M_searchEv
FN:393,422,_ZNSt8__detail9_ExecutorIN9__gnu_cxx17__normal_iteratorIPKcNSt7__cxx1112basic_stringIcSt11char_traitsIcESaIcEEEEESaINS5_9sub_matchISB_EEENS5_12regex_traitsIcEELb0EE17_M_handle_backrefENSH_11_Match_modeEl
FN:393,422,_ZNSt8__detail9_ExecutorIN9__gnu_cxx17__normal_iteratorIPKcNSt7__cxx1112basic_stringIcSt11char_traitsIcESaIcEEEEESaINS5_9sub_matchISB_EEENS5_12regex_traitsIcEELb1EE17_M_handle_backrefENSH_11_Match_modeEl
FN:426,476,_ZNSt8__detail9_ExecutorIN9__gnu_cxx17__normal_iteratorIPKcNSt7__cxx1112basic_stringIcSt11char_traitsIcESaIcEEEEESaINS5_9sub_matchISB_EEENS5_12regex_traitsIcEELb0EE16_M_handle_acceptENSH_11_Match_modeEl
FN:426,476,_ZNSt8__detail9_ExecutorIN9__gnu_cxx17__normal_iteratorIPKcNSt7__cxx1112basic_stringIcSt11char_traitsIcESaIcEEEEESaINS5_9sub_matchISB_EEENS5_12regex_traitsIcEELb1EE16_M_handle_acceptENSH_11_Match_modeEl
FN:480,503,_ZNSt8__detail9_ExecutorIN9__gnu_cxx17__normal_iteratorIPKcNSt7__cxx1112basic_stringIcSt11char_traitsIcESaIcEEEEESaINS5_9sub_matchISB_EEENS5_12regex_traitsIcEELb0EE21_M_handle_alternativeENSH_11_Match_modeEl
FN:480,503,_ZNSt8__detail9_ExecutorIN9__gnu_cxx17__normal_iteratorIPKcNSt7__cxx1112basic_stringIcSt11char_traitsIcESaIcEEEEESaINS5_9sub_matchISB_EEENS5_12regex_traitsIcEELb1EE21_M_handle_alternativeENSH_11_Match_modeEl
FN:507,540,_ZNSt8__detail9_ExecutorIN9__gnu_cxx17__normal_iteratorIPKcNSt7__cxx1112basic_stringIcSt11char_traitsIcESaIcEEEEESaINS5_9sub_matchISB_EEENS5_12regex_traitsIcEELb0EE6_M_dfsENSH_11_Match_modeEl
FN:507,540,_ZNSt8__detail9_ExecutorIN9__gnu_cxx17__normal_iteratorIPKcNSt7__cxx1112basic_stringIcSt11char_traitsIcESaIcEEEEESaINS5_9sub_matchISB_EEENS5_12regex_traitsIcEELb1EE6_M_dfsENSH_11_Match_modeEl
FN:545,565,_ZNKSt8__detail9_ExecutorIN9__gnu_cxx17__normal_iteratorIPKcNSt7__cxx1112basic_stringIcSt11char_traitsIcESaIcEEEEESaINS5_9sub_matchISB_EEENS5_12regex_traitsIcEELb0EE16_M_word_boundaryEv
FN:545,565,_ZNKSt8__detail9_ExecutorIN9__gnu_cxx17__normal_iteratorIPKcNSt7__cxx1112basic_stringIcSt11char_traitsIcESaIcEEEEESaINS5_9sub_matchISB_EEENS5_12regex_traitsIcEELb1EE16_M_word_boundaryEv
FN:81,89,_ZNSt8__detail9_ExecutorIN9__gnu_cxx17__normal_iteratorIPKcNSt7__cxx1112basic_stringIcSt11char_traitsIcESaIcEEEEESaINS5_9sub_matchISB_EEENS5_12regex_traitsIcEELb1EE16_M_main_dispatchENSH_11_Match_modeESt17integral_constantIbLb1EE
FNDA:0,_ZNSt8__detail9_ExecutorIN9__gnu_cxx17__normal_iteratorIPKcNSt7__cxx1112basic_stringIcSt11char_traitsIcESaIcEEEEESaINS5_9sub_matchISB_EEENS5_12regex_traitsIcEELb0EE16_M_main_dispatchENSH_11_Match_modeESt17integral_constantIbLb0EE
FNDA:0,_ZNSt8__detail9_ExecutorIN9__gnu_cxx17__normal_iteratorIPKcNSt7__cxx1112basic_stringIcSt11char_traitsIcESaIcEEEEESaINS5_9sub_matchISB_EEENS5_12regex_traitsIcEELb0EE12_M_lookaheadEl
FNDA:0,_ZNSt8__detail9_ExecutorIN9__gnu_cxx17__normal_iteratorIPKcNSt7__cxx1112basic_stringIcSt11char_traitsIcESaIcEEEEESaINS5_9sub_matchISB_EEENS5_12regex_traitsIcEELb1EE12_M_lookaheadEl
FNDA:0,_ZNSt8__detail9_ExecutorIN9__gnu_cxx17__normal_iteratorIPKcNSt7__cxx1112basic_stringIcSt11char_traitsIcESaIcEEEEESaINS5_9sub_matchISB_EEENS5_12regex_traitsIcEELb0EE16_M_rep_once_moreENSH_11_Match_modeEl
FNDA:75,_ZNSt8__detail9_ExecutorIN9__gnu_cxx17__normal_iteratorIPKcNSt7__cxx1112basic_stringIcSt11char_traitsIcESaIcEEEEESaINS5_9sub_matchISB_EEENS5_12regex_traitsIcEELb1EE16_M_rep_once_moreENSH_11_Match_modeEl
FNDA:0,_ZNSt8__detail9_ExecutorIN9__gnu_cxx17__normal_iteratorIPKcNSt7__cxx1112basic_stringIcSt11char_traitsIcESaIcEEEEESaINS5_9sub_matchISB_EEENS5_12regex_traitsIcEELb0EE16_M_handle_repeatENSH_11_Match_modeEl
FNDA:75,_ZNSt8__detail9_ExecutorIN9__gnu_cxx17__normal_iteratorIPKcNSt7__cxx1112basic_stringIcSt11char_traitsIcESaIcEEEEESaINS5_9sub_matchISB_EEENS5_12regex_traitsIcEELb1EE16_M_handle_repeatENSH_11_Match_modeEl
FNDA:0,_ZNSt8__detail9_ExecutorIN9__gnu_cxx17__normal_iteratorIPKcNSt7__cxx1112basic_stringIcSt11char_traitsIcESaIcEEEEESaINS5_9sub_matchISB_EEENS5_12regex_traitsIcEELb0EE23_M_handle_subexpr_beginENSH_11_Match_modeEl
FNDA:37,_ZNSt8__detail9_ExecutorIN9__gnu_cxx17__normal_iteratorIPKcNSt7__cxx1112basic_stringIcSt11char_traitsIcESaIcEEEEESaINS5_9sub_matchISB_EEENS5_12regex_traitsIcEELb1EE23_M_handle_subexpr_beginENSH_11_Match_modeEl
FNDA:0,_ZNSt8__detail9_ExecutorIN9__gnu_cxx17__normal_iteratorIPKcNSt7__cxx1112basic_stringIcSt11char_traitsIcESaIcEEEEESaINS5_9sub_matchISB_EEENS5_12regex_traitsIcEELb0EE21_M_handle_subexpr_endENSH_11_Match_modeEl
FNDA:30,_ZNSt8__detail9_ExecutorIN9__gnu_cxx17__normal_iteratorIPKcNSt7__cxx1112basic_stringIcSt11char_traitsIcESaIcEEEEESaINS5_9sub_matchISB_EEENS5_12regex_traitsIcEELb1EE21_M_handle_subexpr_endENSH_11_Match_modeEl
FNDA:0,_ZNSt8__detail9_ExecutorIN9__gnu_cxx17__normal_iteratorIPKcNSt7__cxx1112basic_stringIcSt11char_traitsIcESaIcEEEEESaINS5_9sub_matchISB_EEENS5_12regex_traitsIcEELb0EE30_M_handle_line_begin_assertionENSH_11_Match_modeEl
FNDA:0,_ZNSt8__detail9_ExecutorIN9__gnu_cxx17__normal_iteratorIPKcNSt7__cxx1112basic_stringIcSt11char_traitsIcESaIcEEEEESaINS5_9sub_matchISB_EEENS5_12regex_traitsIcEELb1EE30_M_handle_line_begin_assertionENSH_11_Match_modeEl
FNDA:0,_ZNSt8__detail9_ExecutorIN9__gnu_cxx17__normal_iteratorIPKcNSt7__cxx1112basic_stringIcSt11char_traitsIcESaIcEEEEESaINS5_9sub_matchISB_EEENS5_12regex_traitsIcEELb0EE28_M_handle_line_end_assertionENSH_11_Match_modeEl
FNDA:0,_ZNSt8__detail9_ExecutorIN9__gnu_cxx17__normal_iteratorIPKcNSt7__cxx1112basic_stringIcSt11char_traitsIcESaIcEEEEESaINS5_9sub_matchISB_EEENS5_12regex_traitsIcEELb1EE28_M_handle_line_end_assertionENSH_11_Match_modeEl
FNDA:0,_ZNSt8__detail9_ExecutorIN9__gnu_cxx17__normal_iteratorIPKcNSt7__cxx1112basic_stringIcSt11char_traitsIcESaIcEEEEESaINS5_9sub_matchISB_EEENS5_12regex_traitsIcEELb0EE23_M_handle_word_boundaryENSH_11_Match_modeEl
FNDA:0,_ZNSt8__detail9_ExecutorIN9__gnu_cxx17__normal_iteratorIPKcNSt7__cxx1112basic_stringIcSt11char_traitsIcESaIcEEEEESaINS5_9sub_matchISB_EEENS5_12regex_traitsIcEELb1EE23_M_handle_word_boundaryENSH_11_Match_modeEl
FNDA:0,_ZNSt8__detail9_ExecutorIN9__gnu_cxx17__normal_iteratorIPKcNSt7__cxx1112basic_stringIcSt11char_traitsIcESaIcEEEEESaINS5_9sub_matchISB_EEENS5_12regex_traitsIcEELb0EE27_M_handle_subexpr_lookaheadENSH_11_Match_modeEl
FNDA:0,_ZNSt8__detail9_ExecutorIN9__gnu_cxx17__normal_iteratorIPKcNSt7__cxx1112basic_stringIcSt11char_traitsIcESaIcEEEEESaINS5_9sub_matchISB_EEENS5_12regex_traitsIcEELb1EE27_M_handle_subexpr_lookaheadENSH_11_Match_modeEl
FNDA:0,_ZNSt8__detail9_ExecutorIN9__gnu_cxx17__normal_iteratorIPKcNSt7__cxx1112basic_stringIcSt11char_traitsIcESaIcEEEEESaINS5_9sub_matchISB_EEENS5_12regex_traitsIcEELb0EE15_M_handle_matchENSH_11_Match_modeEl
FNDA:194,_ZNSt8__detail9_ExecutorIN9__gnu_cxx17__normal_iteratorIPKcNSt7__cxx1112basic_stringIcSt11char_traitsIcESaIcEEEEESaINS5_9sub_matchISB_EEENS5_12regex_traitsIcEELb1EE15_M_handle_matchENSH_11_Match_modeEl
FNDA:0,_ZNSt8__detail16_Backref_matcherIN9__gnu_cxx17__normal_iteratorIPKcNSt7__cxx1112basic_stringIcSt11char_traitsIcESaIcEEEEENS5_12regex_traitsIcEEEC2EbRKSD_
FNDA:0,_ZNSt8__detail16_Backref_matcherIN9__gnu_cxx17__normal_iteratorIPKcNSt7__cxx1112basic_stringIcSt11char_traitsIcESaIcEEEEENS5_12regex_traitsIcEEE8_M_applyESB_SB_SB_SB_
FNDA:0,_ZZNSt8__detail16_Backref_matcherIN9__gnu_cxx17__normal_iteratorIPKcNSt7__cxx1112basic_stringIcSt11char_traitsIcESaIcEEEEENS5_12regex_traitsIcEEE8_M_applyESB_SB_SB_SB_ENKUlccE_clEcc
FNDA:0,_ZNSt8__detail9_ExecutorIN9__gnu_cxx17__normal_iteratorIPKcNSt7__cxx1112basic_stringIcSt11char_traitsIcESaIcEEEEESaINS5_9sub_matchISB_EEENS5_12regex_traitsIcEELb0EE9_M_searchEv
FNDA:0,_ZNSt8__detail9_ExecutorIN9__gnu_cxx17__normal_iteratorIPKcNSt7__cxx1112basic_stringIcSt11char_traitsIcESaIcEEEEESaINS5_9sub_matchISB_EEENS5_12regex_traitsIcEELb1EE9_M_searchEv
FNDA:0,_ZNSt8__detail9_ExecutorIN9__gnu_cxx17__normal_iteratorIPKcNSt7__cxx1112basic_stringIcSt11char_traitsIcESaIcEEEEESaINS5_9sub_matchISB_EEENS5_12regex_traitsIcEELb0EE17_M_handle_backrefENSH_11_Match_modeEl
FNDA:0,_ZNSt8__detail9_ExecutorIN9__gnu_cxx17__normal_iteratorIPKcNSt7__cxx1112basic_stringIcSt11char_traitsIcESaIcEEEEESaINS5_9sub_matchISB_EEENS5_12regex_traitsIcEELb1EE17_M_handle_backrefENSH_11_Match_modeEl
FNDA:0,_ZNSt8__detail9_ExecutorIN9__gnu_cxx17__normal_iteratorIPKcNSt7__cxx1112basic_stringIcSt11char_traitsIcESaIcEEEEESaINS5_9sub_matchISB_EEENS5_12regex_traitsIcEELb0EE16_M_handle_acceptENSH_11_Match_modeEl
FNDA:15,_ZNSt8__detail9_ExecutorIN9__gnu_cxx17__normal_iteratorIPKcNSt7__cxx1112basic_stringIcSt11char_traitsIcESaIcEEEEESaINS5_9sub_matchISB_EEENS5_12regex_traitsIcEELb1EE16_M_handle_acceptENSH_11_Match_modeEl
FNDA:0,_ZNSt8__detail9_ExecutorIN9__gnu_cxx17__normal_iteratorIPKcNSt7__cxx1112basic_stringIcSt11char_traitsIcESaIcEEEEESaINS5_9sub_matchISB_EEENS5_12regex_traitsIcEELb0EE21_M_handle_alternativeENSH_11_Match_modeEl
FNDA:0,_ZNSt8__detail9_ExecutorIN9__gnu_cxx17__normal_iteratorIPKcNSt7__cxx1112basic_stringIcSt11char_traitsIcESaIcEEEEESaINS5_9sub_matchISB_EEENS5_12regex_traitsIcEELb1EE21_M_handle_alternativeENSH_11_Match_modeEl
FNDA:0,_ZNSt8__detail9_ExecutorIN9__gnu_cxx17__normal_iteratorIPKcNSt7__cxx1112basic_stringIcSt11char_traitsIcESaIcEEEEESaINS5_9sub_matchISB_EEENS5_12regex_traitsIcEELb0EE6_M_dfsENSH_11_Match_modeEl
FNDA:351,_ZNSt8__detail9_ExecutorIN9__gnu_cxx17__normal_iteratorIPKcNSt7__cxx1112basic_stringIcSt11char_traitsIcESaIcEEEEESaINS5_9sub_matchISB_EEENS5_12regex_traitsIcEELb1EE6_M_dfsENSH_11_Match_modeEl
FNDA:0,_ZNKSt8__detail9_ExecutorIN9__gnu_cxx17__normal_iteratorIPKcNSt7__cxx1112basic_stringIcSt11char_traitsIcESaIcEEEEESaINS5_9sub_matchISB_EEENS5_12regex_traitsIcEELb0EE16_M_word_boundaryEv
FNDA:0,_ZNKSt8__detail9_ExecutorIN9__gnu_cxx17__normal_iteratorIPKcNSt7__cxx1112basic_stringIcSt11char_traitsIcESaIcEEEEESaINS5_9sub_matchISB_EEENS5_12regex_traitsIcEELb1EE16_M_word_boundaryEv
FNDA:22,_ZNSt8__detail9_ExecutorIN9__gnu_cxx17__normal_iteratorIPKcNSt7__cxx1112basic_stringIcSt11char_traitsIcESaIcEEEEESaINS5_9sub_matchISB_EEENS5_12regex_traitsIcEELb1EE16_M_main_dispatchENSH_11_Match_modeESt17integral_constantIbLb1EE
FNF:37
FNH:8
BRDA:42,0,0,-
BRDA:42,0,1,-
BRDA:44,0,0,-
BRDA:44,0,1,-
BRDA:47,0,0,-
BRDA:47,0,1,-
BRDA:50,0,0,-
BRDA:50,0,1,-
BRDA:120,0,0,-
BRDA:120,0,1,-
BRDA:120,0,2,-
BRDA:120,0,3,-
BRDA:123,0,0,-
BRDA:123,0,1,-
BRDA:125,0,0,-
BRDA:125,e0,1,-
BRDA:128,0,0,-
BRDA:128,0,1,-
BRDA:131,0,0,-
BRDA:131,e0,1,-
BRDA:133,0,0,-
BRDA:133,0,1,-
BRDA:135,0,0,-
BRDA:135,0,1,-
BRDA:139,0,0,-
BRDA:139,0,1,-
BRDA:154,0,0,-
BRDA:154,e0,1,-
BRDA:155,0,0,-
BRDA:155,e0,1,-
BRDA:157,0,0,-
BRDA:157,e0,1,-
BRDA:157,0,2,-
BRDA:157,0,3,-
BRDA:159,0,0,-
BRDA:159,0,1,-
BRDA:160,0,0,-
BRDA:160,0,1,-
BRDA:161,0,0,-
BRDA:161,e0,1,-
BRDA:180,0,0,23
BRDA:180,0,1,52
BRDA:180,0,2,23
BRDA:180,0,3,0
BRDA:180,0,4,75
BRDA:180,0,5,0
BRDA:185,0,0,75
BRDA:185,e0,1,0
BRDA:190,0,0,-
BRDA:190,0,1,-
BRDA:211,0,0,75
BRDA:211,0,1,0
BRDA:215,0,0,41
BRDA:215,0,1,34
BRDA:224,0,0,-
BRDA:224,0,1,-
BRDA:232,0,0,-
BRDA:232,0,1,-
BRDA:238,0,0,-
BRDA:238,0,1,-
BRDA:255,0,0,37
BRDA:255,e0,1,0
BRDA:270,0,0,30
BRDA:270,e0,1,0
BRDA:271,0,0,30
BRDA:271,e0,1,0
BRDA:280,0,0,-
BRDA:280,0,1,-
BRDA:290,0,0,-
BRDA:290,0,1,-
BRDA:300,0,0,-
BRDA:300,0,1,-
BRDA:312,0,0,-
BRDA:312,0,1,-
BRDA:323,0,0,0
BRDA:323,0,1,194
BRDA:327,0,0,146
BRDA:327,0,1,48
BRDA:335,0,0,-
BRDA:335,0,1,-
BRDA:369,0,0,-
BRDA:369,0,1,-
BRDA:373,0,0,-
BRDA:373,e0,1,-
BRDA:396,0,0,-
BRDA:396,0,1,-
BRDA:396,0,2,-
BRDA:396,0,3,-
BRDA:400,0,0,-
BRDA:400,0,1,-
BRDA:404,0,0,-
BRDA:404,0,1,-
BRDA:404,0,2,-
BRDA:404,0,3,-
BRDA:404,0,4,-
BRDA:404,0,5,-
BRDA:409,0,0,-
BRDA:409,e0,1,-
BRDA:409,0,2,-
BRDA:409,0,3,-
BRDA:412,0,0,-
BRDA:412,0,1,-
BRDA:416,0,0,-
BRDA:416,e0,1,-
BRDA:420,0,0,-
BRDA:420,e0,1,-
BRDA:431,0,0,0
BRDA:431,0,1,15
BRDA:431,0,2,0
BRDA:431,0,3,0
BRDA:431,0,4,0
BRDA:431,0,5,15
BRDA:432,0,0,15
BRDA:432,0,1,0
BRDA:437,0,0,0
BRDA:437,0,1,15
BRDA:437,0,2,0
BRDA:437,0,3,0
BRDA:437,0,4,0
BRDA:437,0,5,15
BRDA:439,0,0,15
BRDA:439,0,1,0
BRDA:441,0,0,15
BRDA:441,0,1,0
BRDA:445,0,0,-
BRDA:445,0,1,-
BRDA:445,0,2,-
BRDA:445,0,3,-
BRDA:445,0,4,-
BRDA:445,0,5,-
BRDA:454,0,0,-
BRDA:454,0,1,-
BRDA:454,0,2,-
BRDA:454,0,3,-
BRDA:456,0,0,-
BRDA:456,0,1,-
BRDA:467,0,0,-
BRDA:467,0,1,-
BRDA:467,0,2,-
BRDA:467,0,3,-
BRDA:467,0,4,-
BRDA:467,0,5,-
BRDA:469,0,0,-
BRDA:469,0,1,-
BRDA:469,0,2,-
BRDA:469,0,3,-
BRDA:469,0,4,-
BRDA:469,0,5,-
BRDA:470,0,0,-
BRDA:470,0,1,-
BRDA:485,0,0,-
BRDA:485,0,1,-
BRDA:490,0,0,-
BRDA:490,0,1,-
BRDA:510,0,0,0
BRDA:510,0,1,351
BRDA:513,0,0,75
BRDA:513,0,1,37
BRDA:513,0,2,30
BRDA:513,0,3,0
BRDA:513,0,4,0
BRDA:513,0,5,0
BRDA:513,0,6,0
BRDA:513,0,7,194
BRDA:513,0,8,0
BRDA:513,0,9,15
BRDA:513,0,10,0
BRDA:513,0,11,0
BRDA:538,0,0,-
BRDA:538,0,1,-
BRDA:538,0,2,-
BRDA:538,0,3,-
BRDA:548,0,0,-
BRDA:548,0,1,-
BRDA:548,0,2,-
BRDA:548,0,3,-
BRDA:548,0,4,-
BRDA:548,0,5,-
BRDA:550,0,0,-
BRDA:550,0,1,-
BRDA:550,0,2,-
BRDA:550,0,3,-
BRDA:550,0,4,-
BRDA:550,0,5,-
BRDA:555,0,0,-
BRDA:555,0,1,-
BRDA:555,0,2,-
BRDA:555,0,3,-
BRDA:555,0,4,-
BRDA:555,0,5,-
BRDA:558,0,0,-
BRDA:558,e0,1,-
BRDA:558,0,2,-
BRDA:558,0,3,-
BRDA:562,0,0,-
BRDA:562,0,1,-
BRDA:562,0,2,-
BRDA:562,0,3,-
BRF:198
BRH:27
DA:39,0
DA:42,0
DA:43,0
DA:44,0
DA:45,0
DA:46,0
DA:47,0
DA:49,0
DA:50,0
DA:51,0
DA:53,0
DA:81,22
DA:84,22
DA:85,22
DA:86,22
DA:87,22
DA:88,22
DA:115,0
DA:118,0
DA:119,0
DA:120,0
DA:122,0
DA:123,0
DA:124,0
DA:125,0
DA:126,0
DA:127,0
DA:128,0
DA:130,0
DA:131,0
DA:133,0
DA:134,0
DA:135,0
DA:136,0
DA:137,0
DA:139,0
DA:140,0
DA:141,0
DA:142,0
DA:148,0
DA:154,0
DA:155,0
DA:156,0
DA:157,0
DA:159,0
DA:160,0
DA:161,0
DA:162,0
DA:164,0
DA:165,0
DA:175,75
DA:178,75
DA:179,75
DA:180,75
DA:182,75
DA:183,75
DA:184,75
DA:185,75
DA:186,75
DA:190,0
DA:192,0
DA:193,0
DA:194,0
DA:197,75
DA:205,75
DA:208,75
DA:211,75
DA:213,75
DA:215,75
DA:216,41
DA:223,0
DA:224,0
DA:225,0
DA:232,0
DA:234,0
DA:238,0
DA:239,0
DA:243,75
DA:247,37
DA:250,37
DA:252,37
DA:253,37
DA:254,37
DA:255,37
DA:256,37
DA:257,37
DA:261,30
DA:264,30
DA:266,30
DA:267,30
DA:268,30
DA:269,30
DA:270,30
DA:271,30
DA:272,30
DA:276,0
DA:279,0
DA:280,0
DA:281,0
DA:282,0
DA:286,0
DA:289,0
DA:290,0
DA:291,0
DA:292,0
DA:296,0
DA:299,0
DA:300,0
DA:301,0
DA:302,0
DA:308,0
DA:311,0
DA:312,0
DA:313,0
DA:314,0
DA:318,194
DA:321,194
DA:323,194
DA:324,0
DA:327,194
DA:329,146
DA:330,146
DA:331,146
DA:335,0
DA:336,0
DA:361,0
DA:362,0
DA:365,0
DA:369,0
DA:370,0
DA:371,0
DA:373,0
DA:374,0
DA:376,0
DA:378,0
DA:379,0
DA:380,0
DA:393,0
DA:396,0
DA:398,0
DA:399,0
DA:400,0
DA:401,0
DA:402,0
DA:403,0
DA:404,0
DA:405,0
DA:406,0
DA:407,0
DA:408,0
DA:409,0
DA:412,0
DA:414,0
DA:415,0
DA:416,0
DA:417,0
DA:420,0
DA:426,15
DA:431,15
DA:432,15
DA:433,15
DA:435,0
DA:436,15
DA:437,15
DA:438,0
DA:439,15
DA:441,15
DA:442,15
DA:445,0
DA:453,0
DA:454,0
DA:455,0
DA:456,0
DA:458,0
DA:459,0
DA:466,0
DA:467,0
DA:468,0
DA:469,0
DA:470,0
DA:472,0
DA:473,0
DA:476,15
DA:480,0
DA:483,0
DA:485,0
DA:488,0
DA:490,0
DA:491,0
DA:497,0
DA:498,0
DA:499,0
DA:500,0
DA:501,0
DA:503,0
DA:507,351
DA:510,351
DA:511,0
DA:513,351
DA:515,75
DA:516,75
DA:517,37
DA:518,37
DA:519,30
DA:520,30
DA:521,0
DA:522,0
DA:523,0
DA:524,0
DA:525,0
DA:526,0
DA:527,0
DA:528,0
DA:529,194
DA:530,194
DA:531,0
DA:532,0
DA:533,15
DA:534,15
DA:535,0
DA:536,0
DA:537,0
DA:538,0
DA:545,0
DA:548,0
DA:549,0
DA:550,0
DA:551,0
DA:553,0
DA:554,0
DA:555,0
DA:557,0
DA:558,0
DA:559,0
DA:561,0
DA:562,0
DA:564,0
LF:237
LH:70
end_of_record
TN:
SF:/usr/include/c++/13/bits/regex_scanner.h
FN:115,122,_ZNSt8__detail12_ScannerBase14_M_find_escapeEc
FN:125,126,_ZNKSt8__detail12_ScannerBase10_M_is_ecmaEv
FN:129,130,_ZNKSt8__detail12_ScannerBase11_M_is_basicEv
FN:145,146,_ZNKSt8__detail12_ScannerBase9_M_is_awkEv
FN:225,226,_ZNKSt8__detail8_ScannerIcE12_M_get_tokenEv
FN:229,230,_ZNKSt8__detail8_ScannerIcE12_M_get_valueB5cxx11Ev
FN:91,111,_ZNSt8__detail12_ScannerBaseC2ENSt15regex_constants18syntax_option_typeE
FNDA:6,_ZNSt8__detail12_ScannerBase14_M_find_escapeEc
FNDA:8,_ZNKSt8__detail12_ScannerBase10_M_is_ecmaEv
FNDA:8,_ZNKSt8__detail12_ScannerBase11_M_is_basicEv
FNDA:0,_ZNKSt8__detail12_ScannerBase9_M_is_awkEv
FNDA:350,_ZNKSt8__detail8_ScannerIcE12_M_get_tokenEv
FNDA:38,_ZNKSt8__detail8_ScannerIcE12_M_get_valueB5cxx11Ev
FNDA:2,_ZNSt8__detail12_ScannerBaseC2ENSt15regex_constants18syntax_option_typeE
FNF:7
FNH:6
BRDA:95,0,0,2
BRDA:95,0,1,0
BRDA:98,0,0,2
BRDA:98,0,1,0
BRDA:100,0,0,-
BRDA:100,0,1,-
BRDA:102,0,0,-
BRDA:102,0,1,-
BRDA:104,0,0,-
BRDA:104,0,1,-
BRDA:106,0,0,-
BRDA:106,0,1,-
BRDA:108,0,0,-
BRDA:108,0,1,-
BRDA:111,0,0,0
BRDA:111,0,1,2
BRDA:111,0,2,0
BRDA:111,0,3,0
BRDA:111,0,4,0
BRDA:111,0,5,2
BRDA:118,0,0,42
BRDA:118,0,1,6
BRDA:119,0,0,0
BRDA:119,0,1,42
BRF:24
BRH:7
DA:91,2
DA:92,2
DA:93,2
DA:94,4
DA:95,2
DA:97,2
DA:98,2
DA:99,0
DA:100,0
DA:101,0
DA:102,0
DA:103,0
DA:104,0
DA:105,0
DA:106,0
DA:107,0
DA:108,0
DA:110,2
DA:111,2
DA:115,6
DA:117,6
DA:118,48
DA:119,42
DA:120,0
DA:121,6
DA:125,8
DA:126,8
DA:129,8
DA:130,8
DA:145,0
DA:146,0
DA:225,350
DA:226,350
DA:229,38
DA:230,38
LF:35
LH:22
end_of_record
TN:
SF:/usr/include/c++/13/bits/regex_scanner.tcc
FN:207,262,_ZNSt8__detail8_ScannerIcE18_M_scan_in_bracketEv
FN:268,305,_ZNSt8__detail8_ScannerIcE16_M_scan_in_braceEv
FN:309,385,_ZNSt8__detail8_ScannerIcE18_M_eat_escape_ecmaEv
FN:391,427,_ZNSt8__detail8_ScannerIcE19_M_eat_escape_posixEv
FN:431,461,_ZNSt8__detail8_ScannerIcE17_M_eat_escape_awkEv
FN:468,481,_ZNSt8__detail8_ScannerIcE12_M_eat_classEc
FN:56,65,_ZNSt8__detail8_ScannerIcEC2EPKcS3_NSt15regex_constants18syntax_option_typeESt6locale
FN:69,88,_ZNSt8__detail8_ScannerIcE10_M_advanceEv
FN:95,200,_ZNSt8__detail8_ScannerIcE14_M_scan_normalEv
FNDA:0,_ZNSt8__detail8_ScannerIcE18_M_scan_in_bracketEv
FNDA:8,_ZNSt8__detail8_ScannerIcE16_M_scan_in_braceEv
FNDA:6,_ZNSt8__detail8_ScannerIcE18_M_eat_escape_ecmaEv
FNDA:0,_ZNSt8__detail8_ScannerIcE19_M_eat_escape_posixEv
FNDA:0,_ZNSt8__detail8_ScannerIcE17_M_eat_escape_awkEv
FNDA:0,_ZNSt8__detail8_ScannerIcE12_M_eat_classEc
FNDA:2,_ZNSt8__detail8_ScannerIcEC2EPKcS3_NSt15regex_constants18syntax_option_typeESt6locale
FNDA:40,_ZNSt8__detail8_ScannerIcE10_M_advanceEv
FNDA:28,_ZNSt8__detail8_ScannerIcE14_M_scan_normalEv
FNF:9
FNH:5
BRDA:63,0,0,2
BRDA:63,0,1,0
BRDA:65,0,0,2
BRDA:65,e0,1,0
BRDA:72,0,0,4
BRDA:72,0,1,36
BRDA:78,0,0,28
BRDA:78,0,1,8
BRDA:80,0,0,0
BRDA:80,0,1,8
BRDA:82,0,0,8
BRDA:82,0,1,0
BRDA:86,0,0,-
BRDA:86,0,1,-
BRDA:86,0,2,-
BRDA:86,0,3,-
BRDA:100,0,0,12
BRDA:100,0,1,16
BRDA:106,0,0,6
BRDA:106,0,1,10
BRDA:108,0,0,0
BRDA:108,0,1,6
BRDA:114,0,0,0
BRDA:114,0,1,6
BRDA:114,0,2,0
BRDA:114,0,3,0
BRDA:114,0,4,6
BRDA:114,0,5,0
BRDA:115,0,0,-
BRDA:115,0,1,-
BRDA:116,0,0,-
BRDA:116,0,1,-
BRDA:118,0,0,0
BRDA:118,0,1,6
BRDA:123,0,0,2
BRDA:123,0,1,8
BRDA:125,0,0,2
BRDA:125,0,1,0
BRDA:125,0,2,0
BRDA:125,0,3,2
BRDA:125,0,4,0
BRDA:125,0,5,2
BRDA:127,0,0,-
BRDA:127,0,1,-
BRDA:130,0,0,-
BRDA:130,0,1,-
BRDA:135,0,0,-
BRDA:135,0,1,-
BRDA:141,0,0,-
BRDA:141,0,1,-
BRDA:152,0,0,0
BRDA:152,0,1,2
BRDA:157,0,0,2
BRDA:157,0,1,6
BRDA:159,0,0,0
BRDA:159,0,1,6
BRDA:163,0,0,-
BRDA:163,0,1,-
BRDA:163,0,2,-
BRDA:163,0,3,-
BRDA:171,0,0,2
BRDA:171,0,1,4
BRDA:176,0,0,0
BRDA:176,0,1,4
BRDA:178,0,0,-
BRDA:178,0,1,-
BRDA:183,0,0,4
BRDA:183,0,1,0
BRDA:183,0,2,4
BRDA:183,0,3,0
BRDA:187,0,0,16
BRDA:187,0,1,0
BRDA:188,0,0,4
BRDA:188,0,1,12
BRDA:193,0,0,-
BRDA:193,0,1,-
BRDA:193,0,2,-
BRDA:193,0,3,-
BRDA:210,0,0,-
BRDA:210,0,1,-
BRDA:215,0,0,-
BRDA:215,0,1,-
BRDA:217,0,0,-
BRDA:217,0,1,-
BRDA:219,0,0,-
BRDA:219,0,1,-
BRDA:224,0,0,-
BRDA:224,0,1,-
BRDA:229,0,0,-
BRDA:229,0,1,-
BRDA:234,0,0,-
BRDA:234,0,1,-
BRDA:248,0,0,-
BRDA:248,0,1,-
BRDA:248,0,2,-
BRDA:248,0,3,-
BRDA:248,0,4,-
BRDA:248,0,5,-
BRDA:248,0,6,-
BRDA:248,0,7,-
BRDA:254,0,0,-
BRDA:254,0,1,-
BRDA:254,0,2,-
BRDA:254,0,3,-
BRDA:254,0,4,-
BRDA:254,0,5,-
BRDA:254,0,6,-
BRDA:254,0,7,-
BRDA:255,0,0,-
BRDA:255,0,1,-
BRDA:271,0,0,0
BRDA:271,0,1,8
BRDA:276,0,0,4
BRDA:276,0,1,4
BRDA:281,0,0,4
BRDA:281,0,1,0
BRDA:281,0,2,0
BRDA:281,0,3,4
BRDA:281,0,4,0
BRDA:281,0,5,4
BRDA:284,0,0,2
BRDA:284,0,1,2
BRDA:287,0,0,0
BRDA:287,0,1,2
BRDA:289,0,0,-
BRDA:289,0,1,-
BRDA:289,0,2,-
BRDA:289,0,3,-
BRDA:289,0,4,-
BRDA:289,0,5,-
BRDA:298,0,0,2
BRDA:298,0,1,0
BRDA:312,0,0,0
BRDA:312,0,1,6
BRDA:318,0,0,0
BRDA:318,0,1,6
BRDA:318,0,2,0
BRDA:318,0,3,0
BRDA:318,0,4,0
BRDA:318,0,5,0
BRDA:323,0,0,0
BRDA:323,0,1,6
BRDA:328,0,0,0
BRDA:328,0,1,6
BRDA:334,0,0,4
BRDA:334,0,1,2
BRDA:335,0,0,4
BRDA:335,0,1,0
BRDA:336,0,0,0
BRDA:336,0,1,4
BRDA:337,0,0,-
BRDA:337,0,1,-
BRDA:338,0,0,-
BRDA:338,0,1,-
BRDA:339,0,0,-
BRDA:339,0,1,-
BRDA:344,0,0,-
BRDA:344,0,1,-
BRDA:346,0,0,-
BRDA:346,0,1,-
BRDA:353,0,0,-
BRDA:353,0,1,-
BRDA:353,0,2,-
BRDA:353,0,3,-
BRDA:356,0,0,-
BRDA:356,0,1,-
BRDA:357,0,0,-
BRDA:357,0,1,-
BRDA:360,0,0,-
BRDA:360,0,1,-
BRDA:360,0,2,-
BRDA:360,0,3,-
BRDA:360,0,4,-
BRDA:360,0,5,-
BRDA:361,0,0,-
BRDA:361,0,1,-
BRDA:372,0,0,-
BRDA:372,0,1,-
BRDA:376,0,0,-
BRDA:376,0,1,-
BRDA:376,0,2,-
BRDA:376,0,3,-
BRDA:376,0,4,-
BRDA:376,0,5,-
BRDA:394,0,0,-
BRDA:394,0,1,-
BRDA:400,0,0,-
BRDA:400,0,1,-
BRDA:400,0,2,-
BRDA:400,0,3,-
BRDA:406,0,0,-
BRDA:406,0,1,-
BRDA:411,0,0,-
BRDA:411,0,1,-
BRDA:411,0,2,-
BRDA:411,0,3,-
BRDA:411,0,4,-
BRDA:411,0,5,-
BRDA:411,0,6,-
BRDA:411,0,7,-
BRDA:437,0,0,-
BRDA:437,0,1,-
BRDA:444,0,0,-
BRDA:444,0,1,-
BRDA:445,0,0,-
BRDA:445,0,1,-
BRDA:445,0,2,-
BRDA:445,0,3,-
BRDA:445,0,4,-
BRDA:445,0,5,-
BRDA:450,0,0,-
BRDA:450,0,1,-
BRDA:451,0,0,-
BRDA:451,0,1,-
BRDA:452,0,0,-
BRDA:452,0,1,-
BRDA:453,0,0,-
BRDA:453,0,1,-
BRDA:453,0,2,-
BRDA:453,0,3,-
BRDA:453,0,4,-
BRDA:453,0,5,-
BRDA:471,0,0,-
BRDA:471,0,1,-
BRDA:471,0,2,-
BRDA:471,0,3,-
BRDA:474,0,0,-
BRDA:474,0,1,-
BRDA:475,0,0,-
BRDA:475,0,1,-
BRDA:476,0,0,-
BRDA:476,0,1,-
BRDA:476,0,2,-
BRDA:476,0,3,-
BRDA:476,0,4,-
BRDA:476,0,5,-
BRDA:478,0,0,-
BRDA:478,0,1,-
BRF:238
BRH:51
DA:56,2
DA:60,2
DA:61,2
DA:62,0
DA:63,2
DA:64,4
DA:65,2
DA:69,40
DA:72,40
DA:74,4
DA:75,4
DA:78,36
DA:79,28
DA:80,8
DA:81,0
DA:82,8
DA:83,8
DA:86,0
DA:95,28
DA:98,28
DA:100,28
DA:102,12
DA:103,12
DA:104,12
DA:106,16
DA:108,6
DA:109,0
DA:113,6
DA:114,6
DA:115,0
DA:116,0
DA:118,6
DA:119,6
DA:121,0
DA:123,10
DA:125,2
DA:127,0
DA:128,0
DA:130,0
DA:132,0
DA:133,0
DA:135,0
DA:137,0
DA:138,0
DA:139,0
DA:141,0
DA:143,0
DA:144,0
DA:145,0
DA:148,0
DA:152,2
DA:153,0
DA:155,2
DA:157,8
DA:158,2
DA:159,6
DA:161,0
DA:162,0
DA:163,0
DA:165,0
DA:166,0
DA:169,0
DA:171,6
DA:173,2
DA:174,2
DA:176,4
DA:178,0
DA:179,0
DA:180,0
DA:181,0
DA:183,4
DA:185,4
DA:186,4
DA:187,16
DA:188,16
DA:190,4
DA:191,4
DA:193,0
DA:194,0
DA:197,0
DA:198,0
DA:207,0
DA:210,0
DA:211,0
DA:213,0
DA:215,0
DA:216,0
DA:217,0
DA:219,0
DA:220,0
DA:224,0
DA:226,0
DA:227,0
DA:229,0
DA:231,0
DA:232,0
DA:234,0
DA:236,0
DA:237,0
DA:241,0
DA:242,0
DA:248,0
DA:250,0
DA:251,0
DA:254,0
DA:255,0
DA:258,0
DA:259,0
DA:261,0
DA:262,0
DA:268,8
DA:271,8
DA:272,0
DA:274,8
DA:276,8
DA:278,4
DA:279,4
DA:280,4
DA:281,4
DA:282,0
DA:284,4
DA:285,2
DA:287,2
DA:289,0
DA:291,0
DA:292,0
DA:293,0
DA:296,0
DA:298,2
DA:300,2
DA:301,2
DA:304,0
DA:305,8
DA:309,6
DA:312,6
DA:313,0
DA:315,6
DA:316,6
DA:318,6
DA:320,0
DA:321,0
DA:323,6
DA:325,0
DA:326,0
DA:328,6
DA:330,0
DA:331,0
DA:334,6
DA:335,4
DA:336,4
DA:337,0
DA:338,0
DA:339,0
DA:341,6
DA:342,6
DA:344,0
DA:346,0
DA:347,0
DA:350,0
DA:351,0
DA:353,0
DA:355,0
DA:356,0
DA:357,0
DA:359,0
DA:360,0
DA:361,0
DA:367,0
DA:369,0
DA:370,0
DA:372,0
DA:374,0
DA:375,0
DA:376,0
DA:377,0
DA:378,0
DA:382,0
DA:383,0
DA:385,6
DA:391,0
DA:394,0
DA:395,0
DA:397,0
DA:398,0
DA:400,0
DA:402,0
DA:403,0
DA:406,0
DA:408,0
DA:409,0
DA:411,0
DA:413,0
DA:414,0
DA:420,0
DA:426,0
DA:431,0
DA:434,0
DA:435,0
DA:437,0
DA:439,0
DA:440,0
DA:443,0
DA:444,0
DA:445,0
DA:447,0
DA:448,0
DA:450,0
DA:451,0
DA:452,0
DA:453,0
DA:455,0
DA:456,0
DA:457,0
DA:460,0
DA:468,0
DA:471,0
DA:472,0
DA:473,0
DA:474,0
DA:475,0
DA:476,0
DA:478,0
DA:481,0
LF:223
LH:73
end_of_record
TN:
SF:/usr/include/c++/13/bits/shared_ptr.h
FN:1005,1011,_ZSt11make_sharedINSt8__detail4_NFAINSt7__cxx1112regex_traitsIcEEEEJRKSt6localeRNSt15regex_constants18syntax_option_typeEEESt10shared_ptrINSt9enable_ifIXntsrSt8is_arrayIT_E5valueESF_E4typeEEDpOT0_
FN:202,202,_ZNSt10shared_ptrIKNSt8__detail4_NFAINSt7__cxx1112regex_traitsIcEEEEEC2Ev
FN:204,204,_ZNSt10shared_ptrIN12media_player11controllers15QueueControllerEEC2ERKS3_
FN:204,204,_ZNSt10shared_ptrIN12media_player11controllers16SourceControllerEEC2ERKS3_
FN:204,204,_ZNSt10shared_ptrIN12media_player11controllers17LibraryControllerEEC2ERKS3_
FN:204,204,_ZNSt10shared_ptrIN12media_player11controllers18HardwareControllerEEC2ERKS3_
FN:204,204,_ZNSt10shared_ptrIN12media_player11controllers18PlaybackControllerEEC2ERKS3_
FN:204,204,_ZNSt10shared_ptrIN12media_player11controllers18PlaylistControllerEEC2ERKS3_
FN:204,204,_ZNSt10shared_ptrIN12media_player12repositories17LibraryRepositoryEEC2ERKS3_
FN:204,204,_ZNSt10shared_ptrIN12media_player12repositories18PlaylistRepositoryEEC2ERKS3_
FN:204,204,_ZNSt10shared_ptrIN12media_player6models10QueueModelEEC2ERKS3_
FN:204,204,_ZNSt10shared_ptrIN12media_player6models12HistoryModelEEC2ERKS3_
FN:204,204,_ZNSt10shared_ptrIN12media_player6models12LibraryModelEEC2ERKS3_
FN:204,204,_ZNSt10shared_ptrIN12media_player6models16SystemStateModelEEC2ERKS3_
FN:204,204,_ZNSt10shared_ptrIN12media_player6models18PlaybackStateModelEEC2ERKS3_
FN:204,204,_ZNSt10shared_ptrIN12media_player8services12IFileScannerEEC2ERKS3_
FN:204,204,_ZNSt10shared_ptrIN12media_player8services15IMetadataReaderEEC2ERKS3_
FN:204,204,_ZNSt10shared_ptrIN12media_player8services20ISerialCommunicationEEC2ERKS3_
FN:368,369,_ZNSt10shared_ptrIKNSt8__detail4_NFAINSt7__cxx1112regex_traitsIcEEEEEC2IS5_vEEOS_IT_E
FN:438,442,_ZNSt10shared_ptrIKNSt8__detail4_NFAINSt7__cxx1112regex_traitsIcEEEEEaSEOS7_
FN:463,465,_ZNSt10shared_ptrINSt8__detail4_NFAINSt7__cxx1112regex_traitsIcEEEEEC2ISaIvEJRKSt6localeRNSt15regex_constants18syntax_option_typeEEEESt20_Sp_alloc_shared_tagIT_EDpOT0_
FN:561,562,_ZSteqIKNSt8__detail4_NFAINSt7__cxx1112regex_traitsIcEEEEEbRKSt10shared_ptrIT_EDn
FNDA:2,_ZSt11make_sharedINSt8__detail4_NFAINSt7__cxx1112regex_traitsIcEEEEJRKSt6localeRNSt15regex_constants18syntax_option_typeEEESt10shared_ptrINSt9enable_ifIXntsrSt8is_arrayIT_E5valueESF_E4typeEEDpOT0_
FNDA:2,_ZNSt10shared_ptrIKNSt8__detail4_NFAINSt7__cxx1112regex_traitsIcEEEEEC2Ev
FNDA:0,_ZNSt10shared_ptrIN12media_player11controllers15QueueControllerEEC2ERKS3_
FNDA:1,_ZNSt10shared_ptrIN12media_player11controllers16SourceControllerEEC2ERKS3_
FNDA:1,_ZNSt10shared_ptrIN12media_player11controllers17LibraryControllerEEC2ERKS3_
FNDA:0,_ZNSt10shared_ptrIN12media_player11controllers18HardwareControllerEEC2ERKS3_
FNDA:0,_ZNSt10shared_ptrIN12media_player11controllers18PlaybackControllerEEC2ERKS3_
FNDA:1,_ZNSt10shared_ptrIN12media_player11controllers18PlaylistControllerEEC2ERKS3_
FNDA:0,_ZNSt10shared_ptrIN12media_player12repositories17LibraryRepositoryEEC2ERKS3_
FNDA:0,_ZNSt10shared_ptrIN12media_player12repositories18PlaylistRepositoryEEC2ERKS3_
FNDA:0,_ZNSt10shared_ptrIN12media_player6models10QueueModelEEC2ERKS3_
FNDA:0,_ZNSt10shared_ptrIN12media_player6models12HistoryModelEEC2ERKS3_
FNDA:0,_ZNSt10shared_ptrIN12media_player6models12LibraryModelEEC2ERKS3_
FNDA:0,_ZNSt10shared_ptrIN12media_player6models16SystemStateModelEEC2ERKS3_
FNDA:0,_ZNSt10shared_ptrIN12media_player6models18PlaybackStateModelEEC2ERKS3_
FNDA:19,_ZNSt10shared_ptrIN12media_player8services12IFileScannerEEC2ERKS3_
FNDA:4,_ZNSt10shared_ptrIN12media_player8services15IMetadataReaderEEC2ERKS3_
FNDA:28,_ZNSt10shared_ptrIN12media_player8services20ISerialCommunicationEEC2ERKS3_
FNDA:2,_ZNSt10shared_ptrIKNSt8__detail4_NFAINSt7__cxx1112regex_traitsIcEEEEEC2IS5_vEEOS_IT_E
FNDA:2,_ZNSt10shared_ptrIKNSt8__detail4_NFAINSt7__cxx1112regex_traitsIcEEEEEaSEOS7_
FNDA:2,_ZNSt10shared_ptrINSt8__detail4_NFAINSt7__cxx1112regex_traitsIcEEEEEC2ISaIvEJRKSt6localeRNSt15regex_constants18syntax_option_typeEEEESt20_Sp_alloc_shared_tagIT_EDpOT0_
FNDA:22,_ZSteqIKNSt8__detail4_NFAINSt7__cxx1112regex_traitsIcEEEEEbRKSt10shared_ptrIT_EDn
FNF:22
FNH:12
BRDA:1010,0,0,2
BRDA:1010,e0,1,0
BRF:2
BRH:1
DA:202,2
DA:204,54
DA:368,2
DA:369,2
DA:438,2
DA:440,2
DA:441,2
DA:463,2
DA:464,2
DA:465,2
DA:561,22
DA:562,22
DA:1005,2
DA:1010,4
LF:14
LH:14
end_of_record
TN:
SF:/usr/include/c++/13/bits/shared_ptr_base.h
FN:1068,1072,_ZNSt14__shared_countILN9__gnu_cxx12_Lock_policyE2EED2Ev
FN:1074,1079,_ZNSt14__shared_countILN9__gnu_cxx12_Lock_policyE2EEC2ERKS2_
FN:1097,1102,_ZNSt14__shared_countILN9__gnu_cxx12_Lock_policyE2EE7_M_swapERS2_
FN:1117,1118,_ZNKSt14__shared_countILN9__gnu_cxx12_Lock_policyE2EE7_M_lessERKS2_
FN:129,130,_ZNSt16_Sp_counted_baseILN9__gnu_cxx12_Lock_policyE2EEC2Ev
FN:133,134,_ZNSt16_Sp_counted_baseILN9__gnu_cxx12_Lock_policyE2EED0Ev
FN:133,134,_ZNSt16_Sp_counted_baseILN9__gnu_cxx12_Lock_policyE2EED2Ev
FN:1347,1351,_ZNKSt19__shared_ptr_accessIKNSt8__detail4_NFAINSt7__cxx1112regex_traitsIcEEEELN9__gnu_cxx12_Lock_policyE2ELb0ELb0EEdeEv
FN:1347,1351,_ZNKSt19__shared_ptr_accessINSt8__detail4_NFAINSt7__cxx1112regex_traitsIcEEEELN9__gnu_cxx12_Lock_policyE2ELb0ELb0EEdeEv
FN:1354,1358,_ZNKSt19__shared_ptr_accessIKNSt8__detail4_NFAINSt7__cxx1112regex_traitsIcEEEELN9__gnu_cxx12_Lock_policyE2ELb0ELb0EEptEv
FN:1354,1358,_ZNKSt19__shared_ptr_accessIN12media_player11controllers15QueueControllerELN9__gnu_cxx12_Lock_policyE2ELb0ELb0EEptEv
FN:1354,1358,_ZNKSt19__shared_ptr_accessIN12media_player11controllers16SourceControllerELN9__gnu_cxx12_Lock_policyE2ELb0ELb0EEptEv
FN:1354,1358,_ZNKSt19__shared_ptr_accessIN12media_player11controllers18HardwareControllerELN9__gnu_cxx12_Lock_policyE2ELb0ELb0EEptEv
FN:1354,1358,_ZNKSt19__shared_ptr_accessIN12media_player11controllers18PlaybackControllerELN9__gnu_cxx12_Lock_policyE2ELb0ELb0EEptEv
FN:1354,1358,_ZNKSt19__shared_ptr_accessIN12media_player12repositories17LibraryRepositoryELN9__gnu_cxx12_Lock_policyE2ELb0ELb0EEptEv
FN:1354,1358,_ZNKSt19__shared_ptr_accessIN12media_player12repositories18PlaylistRepositoryELN9__gnu_cxx12_Lock_policyE2ELb0ELb0EEptEv
FN:1354,1358,_ZNKSt19__shared_ptr_accessIN12media_player6models10QueueModelELN9__gnu_cxx12_Lock_policyE2ELb0ELb0EEptEv
FN:1354,1358,_ZNKSt19__shared_ptr_accessIN12media_player6models12HistoryModelELN9__gnu_cxx12_Lock_policyE2ELb0ELb0EEptEv
FN:1354,1358,_ZNKSt19__shared_ptr_accessIN12media_player6models12LibraryModelELN9__gnu_cxx12_Lock_policyE2ELb0ELb0EEptEv
FN:1354,1358,_ZNKSt19__shared_ptr_accessIN12media_player6models18PlaybackStateModelELN9__gnu_cxx12_Lock_policyE2ELb0ELb0EEptEv
FN:1354,1358,_ZNKSt19__shared_ptr_accessIN12media_player8services12IFileScannerELN9__gnu_cxx12_Lock_policyE2ELb0ELb0EEptEv
FN:1354,1358,_ZNKSt19__shared_ptr_accessIN12media_player8services15IMetadataReaderELN9__gnu_cxx12_Lock_policyE2ELb0ELb0EEptEv
FN:1354,1358,_ZNKSt19__shared_ptr_accessIN12media_player8services20ISerialCommunicationELN9__gnu_cxx12_Lock_policyE2ELb0ELb0EEptEv
FN:1354,1358,_ZNKSt19__shared_ptr_accessINSt8__detail4_NFAINSt7__cxx1112regex_traitsIcEEEELN9__gnu_cxx12_Lock_policyE2ELb0ELb0EEptEv
FN:1362,1363,_ZNKSt19__shared_ptr_accessIKNSt8__detail4_NFAINSt7__cxx1112regex_traitsIcEEEELN9__gnu_cxx12_Lock_policyE2ELb0ELb0EE6_M_getEv
FN:1362,1363,_ZNKSt19__shared_ptr_accessIN12media_player11controllers15QueueControllerELN9__gnu_cxx12_Lock_policyE2ELb0ELb0EE6_M_getEv
FN:1362,1363,_ZNKSt19__shared_ptr_accessIN12media_player11controllers16SourceControllerELN9__gnu_cxx12_Lock_policyE2ELb0ELb0EE6_M_getEv
FN:1362,1363,_ZNKSt19__shared_ptr_accessIN12media_player11controllers18HardwareControllerELN9__gnu_cxx12_Lock_policyE2ELb0ELb0EE6_M_getEv
FN:1362,1363,_ZNKSt19__shared_ptr_accessIN12media_player11controllers18PlaybackControllerELN9__gnu_cxx12_Lock_policyE2ELb0ELb0EE6_M_getEv
FN:1362,1363,_ZNKSt19__shared_ptr_accessIN12media_player12repositories17LibraryRepositoryELN9__gnu_cxx12_Lock_policyE2ELb0ELb0EE6_M_getEv
FN:1362,1363,_ZNKSt19__shared_ptr_accessIN12media_player12repositories18PlaylistRepositoryELN9__gnu_cxx12_Lock_policyE2ELb0ELb0EE6_M_getEv
FN:1362,1363,_ZNKSt19__shared_ptr_accessIN12media_player6models10QueueModelELN9__gnu_cxx12_Lock_policyE2ELb0ELb0EE6_M_getEv
FN:1362,1363,_ZNKSt19__shared_ptr_accessIN12media_player6models12HistoryModelELN9__gnu_cxx12_Lock_policyE2ELb0ELb0EE6_M_getEv
FN:1362,1363,_ZNKSt19__shared_ptr_accessIN12media_player6models12LibraryModelELN9__gnu_cxx12_Lock_policyE2ELb0ELb0EE6_M_getEv
FN:1362,1363,_ZNKSt19__shared_ptr_accessIN12media_player6models18PlaybackStateModelELN9__gnu_cxx12_Lock_policyE2ELb0ELb0EE6_M_getEv
FN:1362,1363,_ZNKSt19__shared_ptr_accessIN12media_player8services12IFileScannerELN9__gnu_cxx12_Lock_policyE2ELb0ELb0EE6_M_getEv
FN:1362,1363,_ZNKSt19__shared_ptr_accessIN12media_player8services15IMetadataReaderELN9__gnu_cxx12_Lock_policyE2ELb0ELb0EE6_M_getEv
FN:1362,1363,_ZNKSt19__shared_ptr_accessIN12media_player8services20ISerialCommunicationELN9__gnu_cxx12_Lock_policyE2ELb0ELb0EE6_M_getEv
FN:1362,1363,_ZNKSt19__shared_ptr_accessINSt8__detail4_NFAINSt7__cxx1112regex_traitsIcEEEELN9__gnu_cxx12_Lock_policyE2ELb0ELb0EE6_M_getEv
FN:143,144,_ZNSt16_Sp_counted_baseILN9__gnu_cxx12_Lock_policyE2EE10_M_destroyEv
FN:1462,1464,_ZNSt12__shared_ptrIKNSt8__detail4_NFAINSt7__cxx1112regex_traitsIcEEEELN9__gnu_cxx12_Lock_policyE2EEC2Ev
FN:151,152,_ZNSt16_Sp_counted_baseILN9__gnu_cxx12_Lock_policyE2EE15_M_add_ref_copyEv
FN:1522,1522,_ZNSt12__shared_ptrIN12media_player11controllers15QueueControllerELN9__gnu_cxx12_Lock_policyE2EEC2ERKS5_
FN:1522,1522,_ZNSt12__shared_ptrIN12media_player11controllers16SourceControllerELN9__gnu_cxx12_Lock_policyE2EEC2ERKS5_
FN:1522,1522,_ZNSt12__shared_ptrIN12media_player11controllers17LibraryControllerELN9__gnu_cxx12_Lock_policyE2EEC2ERKS5_
FN:1522,1522,_ZNSt12__shared_ptrIN12media_player11controllers18HardwareControllerELN9__gnu_cxx12_Lock_policyE2EEC2ERKS5_
FN:1522,1522,_ZNSt12__shared_ptrIN12media_player11controllers18PlaybackControllerELN9__gnu_cxx12_Lock_policyE2EEC2ERKS5_
FN:1522,1522,_ZNSt12__shared_ptrIN12media_player11controllers18PlaylistControllerELN9__gnu_cxx12_Lock_policyE2EEC2ERKS5_
FN:1522,1522,_ZNSt12__shared_ptrIN12media_player12repositories17LibraryRepositoryELN9__gnu_cxx12_Lock_policyE2EEC2ERKS5_
FN:1522,1522,_ZNSt12__shared_ptrIN12media_player12repositories18PlaylistRepositoryELN9__gnu_cxx12_Lock_policyE2EEC2ERKS5_
FN:1522,1522,_ZNSt12__shared_ptrIN12media_player6models10QueueModelELN9__gnu_cxx12_Lock_policyE2EEC2ERKS5_
FN:1522,1522,_ZNSt12__shared_ptrIN12media_player6models12HistoryModelELN9__gnu_cxx12_Lock_policyE2EEC2ERKS5_
FN:1522,1522,_ZNSt12__shared_ptrIN12media_player6models12LibraryModelELN9__gnu_cxx12_Lock_policyE2EEC2ERKS5_
FN:1522,1522,_ZNSt12__shared_ptrIN12media_player6models16SystemStateModelELN9__gnu_cxx12_Lock_policyE2EEC2ERKS5_
FN:1522,1522,_ZNSt12__shared_ptrIN12media_player6models18PlaybackStateModelELN9__gnu_cxx12_Lock_policyE2EEC2ERKS5_
FN:1522,1522,_ZNSt12__shared_ptrIN12media_player8services12IFileScannerELN9__gnu_cxx12_Lock_policyE2EEC2ERKS5_
FN:1522,1522,_ZNSt12__shared_ptrIN12media_player8services15IMetadataReaderELN9__gnu_cxx12_Lock_policyE2EEC2ERKS5_
FN:1522,1522,_ZNSt12__shared_ptrIN12media_player8services20ISerialCommunicationELN9__gnu_cxx12_Lock_policyE2EEC2ERKS5_
FN:1522,1522,_ZNSt12__shared_ptrINSt10filesystem7__cxx114_DirELN9__gnu_cxx12_Lock_policyE2EEC2ERKS5_
FN:1524,1524,_ZNSt12__shared_ptrIKNSt8__detail4_NFAINSt7__cxx1112regex_traitsIcEEEELN9__gnu_cxx12_Lock_policyE2EED2Ev
FN:1524,1524,_ZNSt12__shared_ptrIN12media_player11controllers15QueueControllerELN9__gnu_cxx12_Lock_policyE2EED2Ev
FN:1524,1524,_ZNSt12__shared_ptrIN12media_player11controllers16SourceControllerELN9__gnu_cxx12_Lock_policyE2EED2Ev
FN:1524,1524,_ZNSt12__shared_ptrIN12media_player11controllers17LibraryControllerELN9__gnu_cxx12_Lock_policyE2EED2Ev
FN:1524,1524,_ZNSt12__shared_ptrIN12media_player11controllers18HardwareControllerELN9__gnu_cxx12_Lock_policyE2EED2Ev
FN:1524,1524,_ZNSt12__shared_ptrIN12media_player11controllers18PlaybackControllerELN9__gnu_cxx12_Lock_policyE2EED2Ev
FN:1524,1524,_ZNSt12__shared_ptrIN12media_player11controllers18PlaylistControllerELN9__gnu_cxx12_Lock_policyE2EED2Ev
FN:1524,1524,_ZNSt12__shared_ptrIN12media_player12repositories17LibraryRepositoryELN9__gnu_cxx12_Lock_policyE2EED2Ev
FN:1524,1524,_ZNSt12__shared_ptrIN12media_player12repositories18PlaylistRepositoryELN9__gnu_cxx12_Lock_policyE2EED2Ev
FN:1524,1524,_ZNSt12__shared_ptrIN12media_player6models10QueueModelELN9__gnu_cxx12_Lock_policyE2EED2Ev
FN:1524,1524,_ZNSt12__shared_ptrIN12media_player6models12HistoryModelELN9__gnu_cxx12_Lock_policyE2EED2Ev
FN:1524,1524,_ZNSt12__shared_ptrIN12media_player6models12LibraryModelELN9__gnu_cxx12_Lock_policyE2EED2Ev
FN:1524,1524,_ZNSt12__shared_ptrIN12media_player6models16SystemStateModelELN9__gnu_cxx12_Lock_policyE2EED2Ev
FN:1524,1524,_ZNSt12__shared_ptrIN12media_player6models18PlaybackStateModelELN9__gnu_cxx12_Lock_policyE2EED2Ev
FN:1524,1524,_ZNSt12__shared_ptrIN12media_player8services12IFileScannerELN9__gnu_cxx12_Lock_policyE2EED2Ev
FN:1524,1524,_ZNSt12__shared_ptrIN12media_player8services15IMetadataReaderELN9__gnu_cxx12_Lock_policyE2EED2Ev
FN:1524,1524,_ZNSt12__shared_ptrIN12media_player8services20ISerialCommunicationELN9__gnu_cxx12_Lock_policyE2EED2Ev
FN:1524,1524,_ZNSt12__shared_ptrINSt10filesystem7__cxx114_DirELN9__gnu_cxx12_Lock_policyE2EED2Ev
FN:1524,1524,_ZNSt12__shared_ptrINSt8__detail4_NFAINSt7__cxx1112regex_traitsIcEEEELN9__gnu_cxx12_Lock_policyE2EED2Ev
FN:1531,1536,_ZNSt12__shared_ptrIKNSt8__detail4_NFAINSt7__cxx1112regex_traitsIcEEEELN9__gnu_cxx12_Lock_policyE2EEC2EOS9_
FN:1539,1544,_ZNSt12__shared_ptrIKNSt8__detail4_NFAINSt7__cxx1112regex_traitsIcEEEELN9__gnu_cxx12_Lock_policyE2EEC2IS5_vEEOS_IT_LS8_2EE
FN:1618,1622,_ZNSt12__shared_ptrIKNSt8__detail4_NFAINSt7__cxx1112regex_traitsIcEEEELN9__gnu_cxx12_Lock_policyE2EEaSEOS9_
FN:1665,1666,_ZNKSt12__shared_ptrIKNSt8__detail4_NFAINSt7__cxx1112regex_traitsIcEEEELN9__gnu_cxx12_Lock_policyE2EE3getEv
FN:1665,1666,_ZNKSt12__shared_ptrIN12media_player11controllers15QueueControllerELN9__gnu_cxx12_Lock_policyE2EE3getEv
FN:1665,1666,_ZNKSt12__shared_ptrIN12media_player11controllers16SourceControllerELN9__gnu_cxx12_Lock_policyE2EE3getEv
FN:1665,1666,_ZNKSt12__shared_ptrIN12media_player11controllers18HardwareControllerELN9__gnu_cxx12_Lock_policyE2EE3getEv
FN:1665,1666,_ZNKSt12__shared_ptrIN12media_player11controllers18PlaybackControllerELN9__gnu_cxx12_Lock_policyE2EE3getEv
FN:1665,1666,_ZNKSt12__shared_ptrIN12media_player12repositories17LibraryRepositoryELN9__gnu_cxx12_Lock_policyE2EE3getEv
FN:1665,1666,_ZNKSt12__shared_ptrIN12media_player12repositories18PlaylistRepositoryELN9__gnu_cxx12_Lock_policyE2EE3getEv
FN:1665,1666,_ZNKSt12__shared_ptrIN12media_player6models10QueueModelELN9__gnu_cxx12_Lock_policyE2EE3getEv
FN:1665,1666,_ZNKSt12__shared_ptrIN12media_player6models12HistoryModelELN9__gnu_cxx12_Lock_policyE2EE3getEv
FN:1665,1666,_ZNKSt12__shared_ptrIN12media_player6models12LibraryModelELN9__gnu_cxx12_Lock_policyE2EE3getEv
FN:1665,1666,_ZNKSt12__shared_ptrIN12media_player6models18PlaybackStateModelELN9__gnu_cxx12_Lock_policyE2EE3getEv
FN:1665,1666,_ZNKSt12__shared_ptrIN12media_player8services12IFileScannerELN9__gnu_cxx12_Lock_policyE2EE3getEv
FN:1665,1666,_ZNKSt12__shared_ptrIN12media_player8services15IMetadataReaderELN9__gnu_cxx12_Lock_policyE2EE3getEv
FN:1665,1666,_ZNKSt12__shared_ptrIN12media_player8services20ISerialCommunicationELN9__gnu_cxx12_Lock_policyE2EE3getEv
FN:1665,1666,_ZNKSt12__shared_ptrINSt8__detail4_NFAINSt7__cxx1112regex_traitsIcEEEELN9__gnu_cxx12_Lock_policyE2EE3getEv
FN:1669,1670,_ZNKSt12__shared_ptrIKNSt8__detail4_NFAINSt7__cxx1112regex_traitsIcEEEELN9__gnu_cxx12_Lock_policyE2EEcvbEv
FN:1669,1670,_ZNKSt12__shared_ptrIN12media_player11controllers15QueueControllerELN9__gnu_cxx12_Lock_policyE2EEcvbEv
FN:1669,1670,_ZNKSt12__shared_ptrIN12media_player11controllers16SourceControllerELN9__gnu_cxx12_Lock_policyE2EEcvbEv
FN:1669,1670,_ZNKSt12__shared_ptrIN12media_player11controllers18HardwareControllerELN9__gnu_cxx12_Lock_policyE2EEcvbEv
FN:1669,1670,_ZNKSt12__shared_ptrIN12media_player11controllers18PlaybackControllerELN9__gnu_cxx12_Lock_policyE2EEcvbEv
FN:1669,1670,_ZNKSt12__shared_ptrIN12media_player6models12HistoryModelELN9__gnu_cxx12_Lock_policyE2EEcvbEv
FN:1669,1670,_ZNKSt12__shared_ptrIN12media_player8services15IMetadataReaderELN9__gnu_cxx12_Lock_policyE2EEcvbEv
FN:1684,1688,_ZNSt12__shared_ptrIKNSt8__detail4_NFAINSt7__cxx1112regex_traitsIcEEEELN9__gnu_cxx12_Lock_policyE2EE4swapERS9_
FN:1699,1700,_ZNKSt12__shared_ptrINSt10filesystem7__cxx114_DirELN9__gnu_cxx12_Lock_policyE2EE12owner_beforeIS2_EEbRKS_IT_LS4_2EE
FN:1711,1713,_ZNSt12__shared_ptrINSt8__detail4_NFAINSt7__cxx1112regex_traitsIcEEEELN9__gnu_cxx12_Lock_policyE2EEC2ISaIvEJRKSt6localeRNSt15regex_constants18syntax_option_typeEEEESt20_Sp_alloc_shared_tagIT_EDpOT0_
FN:172,193,_ZNSt16_Sp_counted_baseILN9__gnu_cxx12_Lock_policyE2EE19_M_release_last_useEv
FN:1765,1766,_ZNSt12__shared_ptrINSt8__detail4_NFAINSt7__cxx1112regex_traitsIcEEEELN9__gnu_cxx12_Lock_policyE2EE31_M_enable_shared_from_this_withIS5_S5_EENSt9enable_ifIXntsrNS8_15__has_esft_baseIT0_vEE5valueEvE4typeEPT_
FN:198,199,_ZNSt16_Sp_counted_baseILN9__gnu_cxx12_Lock_policyE2EE24_M_release_last_use_coldEv
FN:317,363,_ZNSt16_Sp_counted_baseILN9__gnu_cxx12_Lock_policyE2EE10_M_releaseEv
FN:470,470,_ZNSt14_Sp_ebo_helperILi0ESaIvELb1EEC2ERKS0_
FN:474,474,_ZNSt14_Sp_ebo_helperILi0ESaIvELb1EE6_S_getERS1_
FN:564,568,_ZNSt19_Sp_make_shared_tag5_S_tiEv
FN:587,587,_ZNSt23_Sp_counted_ptr_inplaceINSt8__detail4_NFAINSt7__cxx1112regex_traitsIcEEEESaIvELN9__gnu_cxx12_Lock_policyE2EE5_ImplC2ES6_
FN:589,589,_ZNSt23_Sp_counted_ptr_inplaceINSt8__detail4_NFAINSt7__cxx1112regex_traitsIcEEEESaIvELN9__gnu_cxx12_Lock_policyE2EE5_Impl8_M_allocEv
FN:599,606,_ZNSt23_Sp_counted_ptr_inplaceINSt8__detail4_NFAINSt7__cxx1112regex_traitsIcEEEESaIvELN9__gnu_cxx12_Lock_policyE2EEC2IJRKSt6localeRNSt15regex_constants18syntax_option_typeEEEES6_DpOT_
FN:608,608,_ZNSt23_Sp_counted_ptr_inplaceINSt8__detail4_NFAINSt7__cxx1112regex_traitsIcEEEESaIvELN9__gnu_cxx12_Lock_policyE2EED0Ev
FN:608,608,_ZNSt23_Sp_counted_ptr_inplaceINSt8__detail4_NFAINSt7__cxx1112regex_traitsIcEEEESaIvELN9__gnu_cxx12_Lock_policyE2EED2Ev
FN:611,614,_ZNSt23_Sp_counted_ptr_inplaceINSt8__detail4_NFAINSt7__cxx1112regex_traitsIcEEEESaIvELN9__gnu_cxx12_Lock_policyE2EE10_M_disposeEv
FN:618,623,_ZNSt23_Sp_counted_ptr_inplaceINSt8__detail4_NFAINSt7__cxx1112regex_traitsIcEEEESaIvELN9__gnu_cxx12_Lock_policyE2EE10_M_destroyEv
FN:631,648,_ZNSt23_Sp_counted_ptr_inplaceINSt8__detail4_NFAINSt7__cxx1112regex_traitsIcEEEESaIvELN9__gnu_cxx12_Lock_policyE2EE14_M_get_deleterERKSt9type_info
FN:650,650,_ZNSt23_Sp_counted_ptr_inplaceINSt8__detail4_NFAINSt7__cxx1112regex_traitsIcEEEESaIvELN9__gnu_cxx12_Lock_policyE2EE6_M_ptrEv
FN:908,909,_ZNSt14__shared_countILN9__gnu_cxx12_Lock_policyE2EEC2Ev
FN:964,976,_ZNSt14__shared_countILN9__gnu_cxx12_Lock_policyE2EEC2INSt8__detail4_NFAINSt7__cxx1112regex_traitsIcEEEESaIvEJRKSt6localeRNSt15regex_constants18syntax_option_typeEEEERPT_St20_Sp_alloc_shared_tagIT0_EDpOT1_
FNDA:0,_ZNSt14__shared_countILN9__gnu_cxx12_Lock_policyE2EED2Ev
FNDA:0,_ZNSt14__shared_countILN9__gnu_cxx12_Lock_policyE2EEC2ERKS2_
FNDA:0,_ZNSt14__shared_countILN9__gnu_cxx12_Lock_policyE2EE7_M_swapERS2_
FNDA:331,_ZNKSt14__shared_countILN9__gnu_cxx12_Lock_policyE2EE7_M_lessERKS2_
FNDA:0,_ZNSt16_Sp_counted_baseILN9__gnu_cxx12_Lock_policyE2EEC2Ev
FNDA:0,_ZNSt16_Sp_counted_baseILN9__gnu_cxx12_Lock_policyE2EED0Ev
FNDA:0,_ZNSt16_Sp_counted_baseILN9__gnu_cxx12_Lock_policyE2EED2Ev
FNDA:22,_ZNKSt19__shared_ptr_accessIKNSt8__detail4_NFAINSt7__cxx1112regex_traitsIcEEEELN9__gnu_cxx12_Lock_policyE2ELb0ELb0EEdeEv
FNDA:38,_ZNKSt19__shared_ptr_accessINSt8__detail4_NFAINSt7__cxx1112regex_traitsIcEEEELN9__gnu_cxx12_Lock_policyE2ELb0ELb0EEdeEv
FNDA:22,_ZNKSt19__shared_ptr_accessIKNSt8__detail4_NFAINSt7__cxx1112regex_traitsIcEEEELN9__gnu_cxx12_Lock_policyE2ELb0ELb0EEptEv
FNDA:0,_ZNKSt19__shared_ptr_accessIN12media_player11controllers15QueueControllerELN9__gnu_cxx12_Lock_policyE2ELb0ELb0EEptEv
FNDA:0,_ZNKSt19__shared_ptr_accessIN12media_player11controllers16SourceControllerELN9__gnu_cxx12_Lock_policyE2ELb0ELb0EEptEv
FNDA:0,_ZNKSt19__shared_ptr_accessIN12media_player11controllers18HardwareControllerELN9__gnu_cxx12_Lock_policyE2ELb0ELb0EEptEv
FNDA:0,_ZNKSt19__shared_ptr_accessIN12media_player11controllers18PlaybackControllerELN9__gnu_cxx12_Lock_policyE2ELb0ELb0EEptEv
FNDA:4,_ZNKSt19__shared_ptr_accessIN12media_player12repositories17LibraryRepositoryELN9__gnu_cxx12_Lock_policyE2ELb0ELb0EEptEv
FNDA:0,_ZNKSt19__shared_ptr_accessIN12media_player12repositories18PlaylistRepositoryELN9__gnu_cxx12_Lock_policyE2ELb0ELb0EEptEv
FNDA:0,_ZNKSt19__shared_ptr_accessIN12media_player6models10QueueModelELN9__gnu_cxx12_Lock_policyE2ELb0ELb0EEptEv
FNDA:0,_ZNKSt19__shared_ptr_accessIN12media_player6models12HistoryModelELN9__gnu_cxx12_Lock_policyE2ELb0ELb0EEptEv
FNDA:0,_ZNKSt19__shared_ptr_accessIN12media_player6models12LibraryModelELN9__gnu_cxx12_Lock_policyE2ELb0ELb0EEptEv
FNDA:0,_ZNKSt19__shared_ptr_accessIN12media_player6models18PlaybackStateModelELN9__gnu_cxx12_Lock_policyE2ELb0ELb0EEptEv
FNDA:66,_ZNKSt19__shared_ptr_accessIN12media_player8services12IFileScannerELN9__gnu_cxx12_Lock_policyE2ELb0ELb0EEptEv
FNDA:4,_ZNKSt19__shared_ptr_accessIN12media_player8services15IMetadataReaderELN9__gnu_cxx12_Lock_policyE2ELb0ELb0EEptEv
FNDA:129,_ZNKSt19__shared_ptr_accessIN12media_player8services20ISerialCommunicationELN9__gnu_cxx12_Lock_policyE2ELb0ELb0EEptEv
FNDA:49,_ZNKSt19__shared_ptr_accessINSt8__detail4_NFAINSt7__cxx1112regex_traitsIcEEEELN9__gnu_cxx12_Lock_policyE2ELb0ELb0EEptEv
FNDA:44,_ZNKSt19__shared_ptr_accessIKNSt8__detail4_NFAINSt7__cxx1112regex_traitsIcEEEELN9__gnu_cxx12_Lock_policyE2ELb0ELb0EE6_M_getEv
FNDA:0,_ZNKSt19__shared_ptr_accessIN12media_player11controllers15QueueControllerELN9__gnu_cxx12_Lock_policyE2ELb0ELb0EE6_M_getEv
FNDA:0,_ZNKSt19__shared_ptr_accessIN12media_player11controllers16SourceControllerELN9__gnu_cxx12_Lock_policyE2ELb0ELb0EE6_M_getEv
FNDA:0,_ZNKSt19__shared_ptr_accessIN12media_player11controllers18HardwareControllerELN9__gnu_cxx12_Lock_policyE2ELb0ELb0EE6_M_getEv
FNDA:0,_ZNKSt19__shared_ptr_accessIN12media_player11controllers18PlaybackControllerELN9__gnu_cxx12_Lock_policyE2ELb0ELb0EE6_M_getEv
FNDA:4,_ZNKSt19__shared_ptr_accessIN12media_player12repositories17LibraryRepositoryELN9__gnu_cxx12_Lock_policyE2ELb0ELb0EE6_M_getEv
FNDA:0,_ZNKSt19__shared_ptr_accessIN12media_player12repositories18PlaylistRepositoryELN9__gnu_cxx12_Lock_policyE2ELb0ELb0EE6_M_getEv
FNDA:0,_ZNKSt19__shared_ptr_accessIN12media_player6models10QueueModelELN9__gnu_cxx12_Lock_policyE2ELb0ELb0EE6_M_getEv
FNDA:0,_ZNKSt19__shared_ptr_accessIN12media_player6models12HistoryModelELN9__gnu_cxx12_Lock_policyE2ELb0ELb0EE6_M_getEv
FNDA:0,_ZNKSt19__shared_ptr_accessIN12media_player6models12LibraryModelELN9__gnu_cxx12_Lock_policyE2ELb0ELb0EE6_M_getEv
FNDA:0,_ZNKSt19__shared_ptr_accessIN12media_player6models18PlaybackStateModelELN9__gnu_cxx12_Lock_policyE2ELb0ELb0EE6_M_getEv
FNDA:66,_ZNKSt19__shared_ptr_accessIN12media_player8services12IFileScannerELN9__gnu_cxx12_Lock_policyE2ELb0ELb0EE6_M_getEv
FNDA:4,_ZNKSt19__shared_ptr_accessIN12media_player8services15IMetadataReaderELN9__gnu_cxx12_Lock_policyE2ELb0ELb0EE6_M_getEv
FNDA:129,_ZNKSt19__shared_ptr_accessIN12media_player8services20ISerialCommunicationELN9__gnu_cxx12_Lock_policyE2ELb0ELb0EE6_M_getEv
FNDA:87,_ZNKSt19__shared_ptr_accessINSt8__detail4_NFAINSt7__cxx1112regex_traitsIcEEEELN9__gnu_cxx12_Lock_policyE2ELb0ELb0EE6_M_getEv
FNDA:0,_ZNSt16_Sp_counted_baseILN9__gnu_cxx12_Lock_policyE2EE10_M_destroyEv
FNDA:2,_ZNSt12__shared_ptrIKNSt8__detail4_NFAINSt7__cxx1112regex_traitsIcEEEELN9__gnu_cxx12_Lock_policyE2EEC2Ev
FNDA:0,_ZNSt16_Sp_counted_baseILN9__gnu_cxx12_Lock_policyE2EE15_M_add_ref_copyEv
FNDA:0,_ZNSt12__shared_ptrIN12media_player11controllers15QueueControllerELN9__gnu_cxx12_Lock_policyE2EEC2ERKS5_
FNDA:1,_ZNSt12__shared_ptrIN12media_player11controllers16SourceControllerELN9__gnu_cxx12_Lock_policyE2EEC2ERKS5_
FNDA:1,_ZNSt12__shared_ptrIN12media_player11controllers17LibraryControllerELN9__gnu_cxx12_Lock_policyE2EEC2ERKS5_
FNDA:0,_ZNSt12__shared_ptrIN12media_player11controllers18HardwareControllerELN9__gnu_cxx12_Lock_policyE2EEC2ERKS5_
FNDA:0,_ZNSt12__shared_ptrIN12media_player11controllers18PlaybackControllerELN9__gnu_cxx12_Lock_policyE2EEC2ERKS5_
FNDA:1,_ZNSt12__shared_ptrIN12media_player11controllers18PlaylistControllerELN9__gnu_cxx12_Lock_policyE2EEC2ERKS5_
FNDA:0,_ZNSt12__shared_ptrIN12media_player12repositories17LibraryRepositoryELN9__gnu_cxx12_Lock_policyE2EEC2ERKS5_
FNDA:0,_ZNSt12__shared_ptrIN12media_player12repositories18PlaylistRepositoryELN9__gnu_cxx12_Lock_policyE2EEC2ERKS5_
FNDA:0,_ZNSt12__shared_ptrIN12media_player6models10QueueModelELN9__gnu_cxx12_Lock_policyE2EEC2ERKS5_
FNDA:0,_ZNSt12__shared_ptrIN12media_player6models12HistoryModelELN9__gnu_cxx12_Lock_policyE2EEC2ERKS5_
FNDA:0,_ZNSt12__shared_ptrIN12media_player6models12LibraryModelELN9__gnu_cxx12_Lock_policyE2EEC2ERKS5_
FNDA:0,_ZNSt12__shared_ptrIN12media_player6models16SystemStateModelELN9__gnu_cxx12_Lock_policyE2EEC2ERKS5_
FNDA:0,_ZNSt12__shared_ptrIN12media_player6models18PlaybackStateModelELN9__gnu_cxx12_Lock_policyE2EEC2ERKS5_
FNDA:19,_ZNSt12__shared_ptrIN12media_player8services12IFileScannerELN9__gnu_cxx12_Lock_policyE2EEC2ERKS5_
FNDA:4,_ZNSt12__shared_ptrIN12media_player8services15IMetadataReaderELN9__gnu_cxx12_Lock_policyE2EEC2ERKS5_
FNDA:28,_ZNSt12__shared_ptrIN12media_player8services20ISerialCommunicationELN9__gnu_cxx12_Lock_policyE2EEC2ERKS5_
FNDA:140,_ZNSt12__shared_ptrINSt10filesystem7__cxx114_DirELN9__gnu_cxx12_Lock_policyE2EEC2ERKS5_
FNDA:6,_ZNSt12__shared_ptrIKNSt8__detail4_NFAINSt7__cxx1112regex_traitsIcEEEELN9__gnu_cxx12_Lock_policyE2EED2Ev
FNDA:0,_ZNSt12__shared_ptrIN12media_player11controllers15QueueControllerELN9__gnu_cxx12_Lock_policyE2EED2Ev
FNDA:0,_ZNSt12__shared_ptrIN12media_player11controllers16SourceControllerELN9__gnu_cxx12_Lock_policyE2EED2Ev
FNDA:0,_ZNSt12__shared_ptrIN12media_player11controllers17LibraryControllerELN9__gnu_cxx12_Lock_policyE2EED2Ev
FNDA:0,_ZNSt12__shared_ptrIN12media_player11controllers18HardwareControllerELN9__gnu_cxx12_Lock_policyE2EED2Ev
FNDA:0,_ZNSt12__shared_ptrIN12media_player11controllers18PlaybackControllerELN9__gnu_cxx12_Lock_policyE2EED2Ev
FNDA:0,_ZNSt12__shared_ptrIN12media_player11controllers18PlaylistControllerELN9__gnu_cxx12_Lock_policyE2EED2Ev
FNDA:0,_ZNSt12__shared_ptrIN12media_player12repositories17LibraryRepositoryELN9__gnu_cxx12_Lock_policyE2EED2Ev
FNDA:0,_ZNSt12__shared_ptrIN12media_player12repositories18PlaylistRepositoryELN9__gnu_cxx12_Lock_policyE2EED2Ev
FNDA:0,_ZNSt12__shared_ptrIN12media_player6models10QueueModelELN9__gnu_cxx12_Lock_policyE2EED2Ev
FNDA:0,_ZNSt12__shared_ptrIN12media_player6models12HistoryModelELN9__gnu_cxx12_Lock_policyE2EED2Ev
FNDA:0,_ZNSt12__shared_ptrIN12media_player6models12LibraryModelELN9__gnu_cxx12_Lock_policyE2EED2Ev
FNDA:0,_ZNSt12__shared_ptrIN12media_player6models16SystemStateModelELN9__gnu_cxx12_Lock_policyE2EED2Ev
FNDA:0,_ZNSt12__shared_ptrIN12media_player6models18PlaybackStateModelELN9__gnu_cxx12_Lock_policyE2EED2Ev
FNDA:0,_ZNSt12__shared_ptrIN12media_player8services12IFileScannerELN9__gnu_cxx12_Lock_policyE2EED2Ev
FNDA:0,_ZNSt12__shared_ptrIN12media_player8services15IMetadataReaderELN9__gnu_cxx12_Lock_policyE2EED2Ev
FNDA:0,_ZNSt12__shared_ptrIN12media_player8services20ISerialCommunicationELN9__gnu_cxx12_Lock_policyE2EED2Ev
FNDA:350,_ZNSt12__shared_ptrINSt10filesystem7__cxx114_DirELN9__gnu_cxx12_Lock_policyE2EED2Ev
FNDA:2,_ZNSt12__shared_ptrINSt8__detail4_NFAINSt7__cxx1112regex_traitsIcEEEELN9__gnu_cxx12_Lock_policyE2EED2Ev
FNDA:2,_ZNSt12__shared_ptrIKNSt8__detail4_NFAINSt7__cxx1112regex_traitsIcEEEELN9__gnu_cxx12_Lock_policyE2EEC2EOS9_
FNDA:2,_ZNSt12__shared_ptrIKNSt8__detail4_NFAINSt7__cxx1112regex_traitsIcEEEELN9__gnu_cxx12_Lock_policyE2EEC2IS5_vEEOS_IT_LS8_2EE
FNDA:2,_ZNSt12__shared_ptrIKNSt8__detail4_NFAINSt7__cxx1112regex_traitsIcEEEELN9__gnu_cxx12_Lock_policyE2EEaSEOS9_
FNDA:44,_ZNKSt12__shared_ptrIKNSt8__detail4_NFAINSt7__cxx1112regex_traitsIcEEEELN9__gnu_cxx12_Lock_policyE2EE3getEv
FNDA:0,_ZNKSt12__shared_ptrIN12media_player11controllers15QueueControllerELN9__gnu_cxx12_Lock_policyE2EE3getEv
FNDA:0,_ZNKSt12__shared_ptrIN12media_player11controllers16SourceControllerELN9__gnu_cxx12_Lock_policyE2EE3getEv
FNDA:0,_ZNKSt12__shared_ptrIN12media_player11controllers18HardwareControllerELN9__gnu_cxx12_Lock_policyE2EE3getEv
FNDA:0,_ZNKSt12__shared_ptrIN12media_player11controllers18PlaybackControllerELN9__gnu_cxx12_Lock_policyE2EE3getEv
FNDA:4,_ZNKSt12__shared_ptrIN12media_player12repositories17LibraryRepositoryELN9__gnu_cxx12_Lock_policyE2EE3getEv
FNDA:0,_ZNKSt12__shared_ptrIN12media_player12repositories18PlaylistRepositoryELN9__gnu_cxx12_Lock_policyE2EE3getEv
FNDA:0,_ZNKSt12__shared_ptrIN12media_player6models10QueueModelELN9__gnu_cxx12_Lock_policyE2EE3getEv
FNDA:0,_ZNKSt12__shared_ptrIN12media_player6models12HistoryModelELN9__gnu_cxx12_Lock_policyE2EE3getEv
FNDA:0,_ZNKSt12__shared_ptrIN12media_player6models12LibraryModelELN9__gnu_cxx12_Lock_policyE2EE3getEv
FNDA:0,_ZNKSt12__shared_ptrIN12media_player6models18PlaybackStateModelELN9__gnu_cxx12_Lock_policyE2EE3getEv
FNDA:66,_ZNKSt12__shared_ptrIN12media_player8services12IFileScannerELN9__gnu_cxx12_Lock_policyE2EE3getEv
FNDA:4,_ZNKSt12__shared_ptrIN12media_player8services15IMetadataReaderELN9__gnu_cxx12_Lock_policyE2EE3getEv
FNDA:129,_ZNKSt12__shared_ptrIN12media_player8services20ISerialCommunicationELN9__gnu_cxx12_Lock_policyE2EE3getEv
FNDA:87,_ZNKSt12__shared_ptrINSt8__detail4_NFAINSt7__cxx1112regex_traitsIcEEEELN9__gnu_cxx12_Lock_policyE2EE3getEv
FNDA:22,_ZNKSt12__shared_ptrIKNSt8__detail4_NFAINSt7__cxx1112regex_traitsIcEEEELN9__gnu_cxx12_Lock_policyE2EEcvbEv
FNDA:7,_ZNKSt12__shared_ptrIN12media_player11controllers15QueueControllerELN9__gnu_cxx12_Lock_policyE2EEcvbEv
FNDA:2,_ZNKSt12__shared_ptrIN12media_player11controllers16SourceControllerELN9__gnu_cxx12_Lock_policyE2EEcvbEv
FNDA:3,_ZNKSt12__shared_ptrIN12media_player11controllers18HardwareControllerELN9__gnu_cxx12_Lock_policyE2EEcvbEv
FNDA:8,_ZNKSt12__shared_ptrIN12media_player11controllers18PlaybackControllerELN9__gnu_cxx12_Lock_policyE2EEcvbEv
FNDA:88,_ZNKSt12__shared_ptrIN12media_player6models12HistoryModelELN9__gnu_cxx12_Lock_policyE2EEcvbEv
FNDA:3,_ZNKSt12__shared_ptrIN12media_player8services15IMetadataReaderELN9__gnu_cxx12_Lock_policyE2EEcvbEv
FNDA:2,_ZNSt12__shared_ptrIKNSt8__detail4_NFAINSt7__cxx1112regex_traitsIcEEEELN9__gnu_cxx12_Lock_policyE2EE4swapERS9_
FNDA:233,_ZNKSt12__shared_ptrINSt10filesystem7__cxx114_DirELN9__gnu_cxx12_Lock_policyE2EE12owner_beforeIS2_EEbRKS_IT_LS4_2EE
FNDA:2,_ZNSt12__shared_ptrINSt8__detail4_NFAINSt7__cxx1112regex_traitsIcEEEELN9__gnu_cxx12_Lock_policyE2EEC2ISaIvEJRKSt6localeRNSt15regex_constants18syntax_option_typeEEEESt20_Sp_alloc_shared_tagIT_EDpOT0_
FNDA:0,_ZNSt16_Sp_counted_baseILN9__gnu_cxx12_Lock_policyE2EE19_M_release_last_useEv
FNDA:2,_ZNSt12__shared_ptrINSt8__detail4_NFAINSt7__cxx1112regex_traitsIcEEEELN9__gnu_cxx12_Lock_policyE2EE31_M_enable_shared_from_this_withIS5_S5_EENSt9enable_ifIXntsrNS8_15__has_esft_baseIT0_vEE5valueEvE4typeEPT_
FNDA:0,_ZNSt16_Sp_counted_baseILN9__gnu_cxx12_Lock_policyE2EE24_M_release_last_use_coldEv
FNDA:0,_ZNSt16_Sp_counted_baseILN9__gnu_cxx12_Lock_policyE2EE10_M_releaseEv
FNDA:0,_ZNSt14_Sp_ebo_helperILi0ESaIvELb1EEC2ERKS0_
FNDA:0,_ZNSt14_Sp_ebo_helperILi0ESaIvELb1EE6_S_getERS1_
FNDA:0,_ZNSt19_Sp_make_shared_tag5_S_tiEv
FNDA:2,_ZNSt23_Sp_counted_ptr_inplaceINSt8__detail4_NFAINSt7__cxx1112regex_traitsIcEEEESaIvELN9__gnu_cxx12_Lock_policyE2EE5_ImplC2ES6_
FNDA:4,_ZNSt23_Sp_counted_ptr_inplaceINSt8__detail4_NFAINSt7__cxx1112regex_traitsIcEEEESaIvELN9__gnu_cxx12_Lock_policyE2EE5_Impl8_M_allocEv
FNDA:2,_ZNSt23_Sp_counted_ptr_inplaceINSt8__detail4_NFAINSt7__cxx1112regex_traitsIcEEEESaIvELN9__gnu_cxx12_Lock_policyE2EEC2IJRKSt6localeRNSt15regex_constants18syntax_option_typeEEEES6_DpOT_
FNDA:0,_ZNSt23_Sp_counted_ptr_inplaceINSt8__detail4_NFAINSt7__cxx1112regex_traitsIcEEEESaIvELN9__gnu_cxx12_Lock_policyE2EED0Ev
FNDA:2,_ZNSt23_Sp_counted_ptr_inplaceINSt8__detail4_NFAINSt7__cxx1112regex_traitsIcEEEESaIvELN9__gnu_cxx12_Lock_policyE2EED2Ev
FNDA:2,_ZNSt23_Sp_counted_ptr_inplaceINSt8__detail4_NFAINSt7__cxx1112regex_traitsIcEEEESaIvELN9__gnu_cxx12_Lock_policyE2EE10_M_disposeEv
FNDA:2,_ZNSt23_Sp_counted_ptr_inplaceINSt8__detail4_NFAINSt7__cxx1112regex_traitsIcEEEESaIvELN9__gnu_cxx12_Lock_policyE2EE10_M_destroyEv
FNDA:0,_ZNSt23_Sp_counted_ptr_inplaceINSt8__detail4_NFAINSt7__cxx1112regex_traitsIcEEEESaIvELN9__gnu_cxx12_Lock_policyE2EE14_M_get_deleterERKSt9type_info
FNDA:6,_ZNSt23_Sp_counted_ptr_inplaceINSt8__detail4_NFAINSt7__cxx1112regex_traitsIcEEEESaIvELN9__gnu_cxx12_Lock_policyE2EE6_M_ptrEv
FNDA:0,_ZNSt14__shared_countILN9__gnu_cxx12_Lock_policyE2EEC2Ev
FNDA:2,_ZNSt14__shared_countILN9__gnu_cxx12_Lock_policyE2EEC2INSt8__detail4_NFAINSt7__cxx1112regex_traitsIcEEEESaIvEJRKSt6localeRNSt15regex_constants18syntax_option_typeEEEERPT_St20_Sp_alloc_shared_tagIT0_EDpOT1_
FNF:124
FNH:54
BRDA:144,0,0,-
BRDA:144,0,1,-
BRDA:188,0,0,-
BRDA:188,0,1,-
BRDA:337,0,0,-
BRDA:337,0,1,-
BRDA:350,0,0,-
BRDA:350,0,1,-
BRDA:639,0,0,-
BRDA:639,0,1,-
BRDA:639,0,2,-
BRDA:639,0,3,-
BRDA:639,0,4,-
BRDA:639,0,5,-
BRDA:969,0,0,2
BRDA:969,e0,1,0
BRDA:971,0,0,2
BRDA:971,e0,1,0
BRDA:971,0,2,0
BRDA:971,0,3,0
BRDA:1070,0,0,-
BRDA:1070,0,1,-
BRDA:1077,0,0,-
BRDA:1077,0,1,-
BRDA:1349,0,0,0
BRDA:1349,0,1,60
BRDA:1349,0,2,0
BRDA:1349,0,3,0
BRDA:1349,0,4,0
BRDA:1349,0,5,60
BRF:30
BRH:4
DA:129,0
DA:130,0
DA:133,0
DA:134,0
DA:143,0
DA:144,0
DA:151,0
DA:152,0
DA:172,0
DA:175,0
DA:187,0
DA:188,0
DA:191,0
DA:193,0
DA:198,0
DA:199,0
DA:317,0
DA:321,0
DA:324,0
DA:328,0
DA:331,0
DA:332,0
DA:333,0
DA:334,0
DA:337,0
DA:343,0
DA:346,0
DA:347,0
DA:348,0
DA:350,0
DA:351,0
DA:353,0
DA:354,0
DA:470,0
DA:474,0
DA:564,0
DA:567,0
DA:587,2
DA:589,4
DA:599,2
DA:600,2
DA:604,2
DA:606,2
DA:608,2
DA:611,2
DA:613,2
DA:614,2
DA:618,2
DA:620,2
DA:621,2
DA:622,2
DA:623,2
DA:631,0
DA:633,0
DA:638,0
DA:639,0
DA:641,0
DA:646,0
DA:647,0
DA:650,6
DA:908,0
DA:909,0
DA:964,2
DA:968,2
DA:969,2
DA:970,2
DA:971,2
DA:973,2
DA:974,2
DA:975,2
DA:976,4
DA:1068,0
DA:1070,0
DA:1071,0
DA:1072,0
DA:1074,0
DA:1075,0
DA:1077,0
DA:1078,0
DA:1079,0
DA:1097,0
DA:1099,0
DA:1100,0
DA:1101,0
DA:1102,0
DA:1117,331
DA:1118,331
DA:1347,60
DA:1349,60
DA:1350,60
DA:1354,274
DA:1357,274
DA:1362,334
DA:1363,334
DA:1462,2
DA:1463,2
DA:1464,2
DA:1522,194
DA:1524,358
DA:1531,2
DA:1532,2
DA:1534,2
DA:1535,2
DA:1536,2
DA:1539,2
DA:1540,2
DA:1542,2
DA:1543,2
DA:1544,2
DA:1618,2
DA:1620,2
DA:1621,2
DA:1665,334
DA:1666,334
DA:1669,133
DA:1670,133
DA:1684,2
DA:1686,2
DA:1687,2
DA:1688,2
DA:1699,233
DA:1700,233
DA:1711,2
DA:1712,2
DA:1713,2
DA:1765,2
DA:1766,2
LF:127
LH:67
end_of_record
TN:
SF:/usr/include/c++/13/bits/std_function.h
FN:134,143,_ZNSt14_Function_base13_Base_managerINSt8__detail11_AnyMatcherINSt7__cxx1112regex_traitsIcEELb0ELb0ELb0EEEE14_M_get_pointerERKSt9_Any_data
FN:134,143,_ZNSt14_Function_base13_Base_managerINSt8__detail11_AnyMatcherINSt7__cxx1112regex_traitsIcEELb0ELb0ELb1EEEE14_M_get_pointerERKSt9_Any_data
FN:134,143,_ZNSt14_Function_base13_Base_managerINSt8__detail11_AnyMatcherINSt7__cxx1112regex_traitsIcEELb0ELb1ELb0EEEE14_M_get_pointerERKSt9_Any_data
FN:134,143,_ZNSt14_Function_base13_Base_managerINSt8__detail11_AnyMatcherINSt7__cxx1112regex_traitsIcEELb0ELb1ELb1EEEE14_M_get_pointerERKSt9_Any_data
FN:134,143,_ZNSt14_Function_base13_Base_managerINSt8__detail11_AnyMatcherINSt7__cxx1112regex_traitsIcEELb1ELb0ELb0EEEE14_M_get_pointerERKSt9_Any_data
FN:134,143,_ZNSt14_Function_base13_Base_managerINSt8__detail11_AnyMatcherINSt7__cxx1112regex_traitsIcEELb1ELb0ELb1EEEE14_M_get_pointerERKSt9_Any_data
FN:134,143,_ZNSt14_Function_base13_Base_managerINSt8__detail11_AnyMatcherINSt7__cxx1112regex_traitsIcEELb1ELb1ELb0EEEE14_M_get_pointerERKSt9_Any_data
FN:134,143,_ZNSt14_Function_base13_Base_managerINSt8__detail11_AnyMatcherINSt7__cxx1112regex_traitsIcEELb1ELb1ELb1EEEE14_M_get_pointerERKSt9_Any_data
FN:134,143,_ZNSt14_Function_base13_Base_managerINSt8__detail12_CharMatcherINSt7__cxx1112regex_traitsIcEELb0ELb0EEEE14_M_get_pointerERKSt9_Any_data
FN:134,143,_ZNSt14_Function_base13_Base_managerINSt8__detail12_CharMatcherINSt7__cxx1112regex_traitsIcEELb0ELb1EEEE14_M_get_pointerERKSt9_Any_data
FN:134,143,_ZNSt14_Function_base13_Base_managerINSt8__detail12_CharMatcherINSt7__cxx1112regex_traitsIcEELb1ELb0EEEE14_M_get_pointerERKSt9_Any_data
FN:134,143,_ZNSt14_Function_base13_Base_managerINSt8__detail12_CharMatcherINSt7__cxx1112regex_traitsIcEELb1ELb1EEEE14_M_get_pointerERKSt9_Any_data
FN:134,143,_ZNSt14_Function_base13_Base_managerINSt8__detail15_BracketMatcherINSt7__cxx1112regex_traitsIcEELb0ELb0EEEE14_M_get_pointerERKSt9_Any_data
FN:134,143,_ZNSt14_Function_base13_Base_managerINSt8__detail15_BracketMatcherINSt7__cxx1112regex_traitsIcEELb0ELb1EEEE14_M_get_pointerERKSt9_Any_data
FN:134,143,_ZNSt14_Function_base13_Base_managerINSt8__detail15_BracketMatcherINSt7__cxx1112regex_traitsIcEELb1ELb0EEEE14_M_get_pointerERKSt9_Any_data
FN:134,143,_ZNSt14_Function_base13_Base_managerINSt8__detail15_BracketMatcherINSt7__cxx1112regex_traitsIcEELb1ELb1EEEE14_M_get_pointerERKSt9_Any_data
FN:134,143,_ZNSt14_Function_base13_Base_managerIZN12media_player11controllers16SourceControllerC4ESt10shared_ptrINS1_8services12IFileScannerEES4_INS1_12repositories17LibraryRepositoryEES4_INS1_6models12LibraryModelEEEUlSt6vectorINSB_14MediaFileModelESaISF_EEE_E14_M_get_pointerERKSt9_Any_data
FN:134,143,_ZNSt14_Function_base13_Base_managerIZN12media_player11controllers16SourceControllerC4ESt10shared_ptrINS1_8services12IFileScannerEES4_INS1_12repositories17LibraryRepositoryEES4_INS1_6models12LibraryModelEEEUliRKNSt7__cxx1112basic_stringIcSt11char_traitsIcESaIcEEEE_E14_M_get_pointerERKSt9_Any_data
FN:134,143,_ZNSt14_Function_base13_Base_managerIZN12media_player11controllers18HardwareControllerC4ESt10shared_ptrINS1_8services20ISerialCommunicationEES4_INS1_6models18PlaybackStateModelEEEUlRKNSt7__cxx1112basic_stringIcSt11char_traitsIcESaIcEEEE0_E14_M_get_pointerERKSt9_Any_data
FN:134,143,_ZNSt14_Function_base13_Base_managerIZN12media_player11controllers18HardwareControllerC4ESt10shared_ptrINS1_8services20ISerialCommunicationEES4_INS1_6models18PlaybackStateModelEEEUlRKNSt7__cxx1112basic_stringIcSt11char_traitsIcESaIcEEEE_E14_M_get_pointerERKSt9_Any_data
FN:134,143,_ZNSt14_Function_base13_Base_managerIZN12media_player11controllers18PlaybackController14setAudioEngineESt10unique_ptrINS1_8services15IPlaybackEngineESt14default_deleteIS6_EEEUlNS5_13PlaybackStateEE_E14_M_get_pointerERKSt9_Any_data
FN:134,143,_ZNSt14_Function_base13_Base_managerIZN12media_player11controllers18PlaybackController14setAudioEngineESt10unique_ptrINS1_8services15IPlaybackEngineESt14default_deleteIS6_EEEUlRKNSt7__cxx1112basic_stringIcSt11char_traitsIcESaIcEEEE_E14_M_get_pointerERKSt9_Any_data
FN:134,143,_ZNSt14_Function_base13_Base_managerIZN12media_player11controllers18PlaybackController14setAudioEngineESt10unique_ptrINS1_8services15IPlaybackEngineESt14default_deleteIS6_EEEUliiE_E14_M_get_pointerERKSt9_Any_data
FN:134,143,_ZNSt14_Function_base13_Base_managerIZN12media_player11controllers18PlaybackController14setAudioEngineESt10unique_ptrINS1_8services15IPlaybackEngineESt14default_deleteIS6_EEEUlvE_E14_M_get_pointerERKSt9_Any_data
FN:134,143,_ZNSt14_Function_base13_Base_managerIZN12media_player11controllers18PlaybackControllerC4ESt10shared_ptrINS1_6models10QueueModelEES4_INS5_18PlaybackStateModelEES4_INS5_12HistoryModelEEEUlNS1_8services13PlaybackStateEE_E14_M_get_pointerERKSt9_Any_data
FN:134,143,_ZNSt14_Function_base13_Base_managerIZN12media_player11controllers18PlaybackControllerC4ESt10shared_ptrINS1_6models10QueueModelEES4_INS5_18PlaybackStateModelEES4_INS5_12HistoryModelEEEUlRKNSt7__cxx1112basic_stringIcSt11char_traitsIcESaIcEEEE_E14_M_get_pointerERKSt9_Any_data
FN:134,143,_ZNSt14_Function_base13_Base_managerIZN12media_player11controllers18PlaybackControllerC4ESt10shared_ptrINS1_6models10QueueModelEES4_INS5_18PlaybackStateModelEES4_INS5_12HistoryModelEEEUliiE_E14_M_get_pointerERKSt9_Any_data
FN:134,143,_ZNSt14_Function_base13_Base_managerIZN12media_player11controllers18PlaybackControllerC4ESt10shared_ptrINS1_6models10QueueModelEES4_INS5_18PlaybackStateModelEES4_INS5_12HistoryModelEEEUlvE_E14_M_get_pointerERKSt9_Any_data
FN:150,153,_ZNSt14_Function_base13_Base_managerINSt8__detail11_AnyMatcherINSt7__cxx1112regex_traitsIcEELb0ELb0ELb0EEEE9_M_createIRKS6_EEvRSt9_Any_dataOT_St17integral_constantIbLb1EE
FN:150,153,_ZNSt14_Function_base13_Base_managerINSt8__detail11_AnyMatcherINSt7__cxx1112regex_traitsIcEELb0ELb0ELb0EEEE9_M_createIS6_EEvRSt9_Any_dataOT_St17integral_constantIbLb1EE
FN:150,153,_ZNSt14_Function_base13_Base_managerINSt8__detail11_AnyMatcherINSt7__cxx1112regex_traitsIcEELb0ELb0ELb1EEEE9_M_createIRKS6_EEvRSt9_Any_dataOT_St17integral_constantIbLb1EE
FN:150,153,_ZNSt14_Function_base13_Base_managerINSt8__detail11_AnyMatcherINSt7__cxx1112regex_traitsIcEELb0ELb0ELb1EEEE9_M_createIS6_EEvRSt9_Any_dataOT_St17integral_constantIbLb1EE
FN:150,153,_ZNSt14_Function_base13_Base_managerINSt8__detail11_AnyMatcherINSt7__cxx1112regex_traitsIcEELb0ELb1ELb0EEEE9_M_createIRKS6_EEvRSt9_Any_dataOT_St17integral_constantIbLb1EE
FN:150,153,_ZNSt14_Function_base13_Base_managerINSt8__detail11_AnyMatcherINSt7__cxx1112regex_traitsIcEELb0ELb1ELb0EEEE9_M_createIS6_EEvRSt9_Any_dataOT_St17integral_constantIbLb1EE
FN:150,153,_ZNSt14_Function_base13_Base_managerINSt8__detail11_AnyMatcherINSt7__cxx1112regex_traitsIcEELb0ELb1ELb1EEEE9_M_createIRKS6_EEvRSt9_Any_dataOT_St17integral_constantIbLb1EE
FN:150,153,_ZNSt14_Function_base13_Base_managerINSt8__detail11_AnyMatcherINSt7__cxx1112regex_traitsIcEELb0ELb1ELb1EEEE9_M_createIS6_EEvRSt9_Any_dataOT_St17integral_constantIbLb1EE
FN:150,153,_ZNSt14_Function_base13_Base_managerINSt8__detail11_AnyMatcherINSt7__cxx1112regex_traitsIcEELb1ELb0ELb0EEEE9_M_createIRKS6_EEvRSt9_Any_dataOT_St17integral_constantIbLb1EE
FN:150,153,_ZNSt14_Function_base13_Base_managerINSt8__detail11_AnyMatcherINSt7__cxx1112regex_traitsIcEELb1ELb0ELb0EEEE9_M_createIS6_EEvRSt9_Any_dataOT_St17integral_constantIbLb1EE
FN:150,153,_ZNSt14_Function_base13_Base_managerINSt8__detail11_AnyMatcherINSt7__cxx1112regex_traitsIcEELb1ELb0ELb1EEEE9_M_createIRKS6_EEvRSt9_Any_dataOT_St17integral_constantIbLb1EE
FN:150,153,_ZNSt14_Function_base13_Base_managerINSt8__detail11_AnyMatcherINSt7__cxx1112regex_traitsIcEELb1ELb0ELb1EEEE9_M_createIS6_EEvRSt9_Any_dataOT_St17integral_constantIbLb1EE
FN:150,153,_ZNSt14_Function_base13_Base_managerINSt8__detail11_AnyMatcherINSt7__cxx1112regex_traitsIcEELb1ELb1ELb0EEEE9_M_createIRKS6_EEvRSt9_Any_dataOT_St17integral_constantIbLb1EE
FN:150,153,_ZNSt14_Function_base13_Base_managerINSt8__detail11_AnyMatcherINSt7__cxx1112regex_traitsIcEELb1ELb1ELb0EEEE9_M_createIS6_EEvRSt9_Any_dataOT_St17integral_constantIbLb1EE
FN:150,153,_ZNSt14_Function_base13_Base_managerINSt8__detail11_AnyMatcherINSt7__cxx1112regex_traitsIcEELb1ELb1ELb1EEEE9_M_createIRKS6_EEvRSt9_Any_dataOT_St17integral_constantIbLb1EE
FN:150,153,_ZNSt14_Function_base13_Base_managerINSt8__detail11_AnyMatcherINSt7__cxx1112regex_traitsIcEELb1ELb1ELb1EEEE9_M_createIS6_EEvRSt9_Any_dataOT_St17integral_constantIbLb1EE
FN:150,153,_ZNSt14_Function_base13_Base_managerINSt8__detail12_CharMatcherINSt7__cxx1112regex_traitsIcEELb0ELb0EEEE9_M_createIRKS6_EEvRSt9_Any_dataOT_St17integral_constantIbLb1EE
FN:150,153,_ZNSt14_Function_base13_Base_managerINSt8__detail12_CharMatcherINSt7__cxx1112regex_traitsIcEELb0ELb0EEEE9_M_createIS6_EEvRSt9_Any_dataOT_St17integral_constantIbLb1EE
FN:150,153,_ZNSt14_Function_base13_Base_managerINSt8__detail12_CharMatcherINSt7__cxx1112regex_traitsIcEELb0ELb1EEEE9_M_createIRKS6_EEvRSt9_Any_dataOT_St17integral_constantIbLb1EE
FN:150,153,_ZNSt14_Function_base13_Base_managerINSt8__detail12_CharMatcherINSt7__cxx1112regex_traitsIcEELb0ELb1EEEE9_M_createIS6_EEvRSt9_Any_dataOT_St17integral_constantIbLb1EE
FN:150,153,_ZNSt14_Function_base13_Base_managerINSt8__detail12_CharMatcherINSt7__cxx1112regex_traitsIcEELb1ELb0EEEE9_M_createIRKS6_EEvRSt9_Any_dataOT_St17integral_constantIbLb1EE
FN:150,153,_ZNSt14_Function_base13_Base_managerINSt8__detail12_CharMatcherINSt7__cxx1112regex_traitsIcEELb1ELb0EEEE9_M_createIS6_EEvRSt9_Any_dataOT_St17integral_constantIbLb1EE
FN:150,153,_ZNSt14_Function_base13_Base_managerINSt8__detail12_CharMatcherINSt7__cxx1112regex_traitsIcEELb1ELb1EEEE9_M_createIRKS6_EEvRSt9_Any_dataOT_St17integral_constantIbLb1EE
FN:150,153,_ZNSt14_Function_base13_Base_managerINSt8__detail12_CharMatcherINSt7__cxx1112regex_traitsIcEELb1ELb1EEEE9_M_createIS6_EEvRSt9_Any_dataOT_St17integral_constantIbLb1EE
FN:150,153,_ZNSt14_Function_base13_Base_managerIZN12media_player11controllers16SourceControllerC4ESt10shared_ptrINS1_8services12IFileScannerEES4_INS1_12repositories17LibraryRepositoryEES4_INS1_6models12LibraryModelEEEUlSt6vectorINSB_14MediaFileModelESaISF_EEE_E9_M_createIRKSI_EEvRSt9_Any_dataOT_St17integral_constantIbLb1EE
FN:150,153,_ZNSt14_Function_base13_Base_managerIZN12media_player11controllers16SourceControllerC4ESt10shared_ptrINS1_8services12IFileScannerEES4_INS1_12repositories17LibraryRepositoryEES4_INS1_6models12LibraryModelEEEUlSt6vectorINSB_14MediaFileModelESaISF_EEE_E9_M_createISI_EEvRSt9_Any_dataOT_St17integral_constantIbLb1EE
FN:150,153,_ZNSt14_Function_base13_Base_managerIZN12media_player11controllers16SourceControllerC4ESt10shared_ptrINS1_8services12IFileScannerEES4_INS1_12repositories17LibraryRepositoryEES4_INS1_6models12LibraryModelEEEUliRKNSt7__cxx1112basic_stringIcSt11char_traitsIcESaIcEEEE_E9_M_createIRKSM_EEvRSt9_Any_dataOT_St17integral_constantIbLb1EE
FN:150,153,_ZNSt14_Function_base13_Base_managerIZN12media_player11controllers16SourceControllerC4ESt10shared_ptrINS1_8services12IFileScannerEES4_INS1_12repositories17LibraryRepositoryEES4_INS1_6models12LibraryModelEEEUliRKNSt7__cxx1112basic_stringIcSt11char_traitsIcESaIcEEEE_E9_M_createISM_EEvRSt9_Any_dataOT_St17integral_constantIbLb1EE
FN:150,153,_ZNSt14_Function_base13_Base_managerIZN12media_player11controllers18HardwareControllerC4ESt10shared_ptrINS1_8services20ISerialCommunicationEES4_INS1_6models18PlaybackStateModelEEEUlRKNSt7__cxx1112basic_stringIcSt11char_traitsIcESaIcEEEE0_E9_M_createIRKSJ_EEvRSt9_Any_dataOT_St17integral_constantIbLb1EE
FN:150,153,_ZNSt14_Function_base13_Base_managerIZN12media_player11controllers18HardwareControllerC4ESt10shared_ptrINS1_8services20ISerialCommunicationEES4_INS1_6models18PlaybackStateModelEEEUlRKNSt7__cxx1112basic_stringIcSt11char_traitsIcESaIcEEEE0_E9_M_createISJ_EEvRSt9_Any_dataOT_St17integral_constantIbLb1EE
FN:150,153,_ZNSt14_Function_base13_Base_managerIZN12media_player11controllers18HardwareControllerC4ESt10shared_ptrINS1_8services20ISerialCommunicationEES4_INS1_6models18PlaybackStateModelEEEUlRKNSt7__cxx1112basic_stringIcSt11char_traitsIcESaIcEEEE_E9_M_createIRKSJ_EEvRSt9_Any_dataOT_St17integral_constantIbLb1EE
FN:150,153,_ZNSt14_Function_base13_Base_managerIZN12media_player11controllers18HardwareControllerC4ESt10shared_ptrINS1_8services20ISerialCommunicationEES4_INS1_6models18PlaybackStateModelEEEUlRKNSt7__cxx1112basic_stringIcSt11char_traitsIcESaIcEEEE_E9_M_createISJ_EEvRSt9_Any_dataOT_St17integral_constantIbLb1EE
FN:150,153,_ZNSt14_Function_base13_Base_managerIZN12media_player11controllers18PlaybackController14setAudioEngineESt10unique_ptrINS1_8services15IPlaybackEngineESt14default_deleteIS6_EEEUlNS5_13PlaybackStateEE_E9_M_createIRKSB_EEvRSt9_Any_dataOT_St17integral_constantIbLb1EE
FN:150,153,_ZNSt14_Function_base13_Base_managerIZN12media_player11controllers18PlaybackController14setAudioEngineESt10unique_ptrINS1_8services15IPlaybackEngineESt14default_deleteIS6_EEEUlNS5_13PlaybackStateEE_E9_M_createISB_EEvRSt9_Any_dataOT_St17integral_constantIbLb1EE
FN:150,153,_ZNSt14_Function_base13_Base_managerIZN12media_player11controllers18PlaybackController14setAudioEngineESt10unique_ptrINS1_8services15IPlaybackEngineESt14default_deleteIS6_EEEUlRKNSt7__cxx1112basic_stringIcSt11char_traitsIcESaIcEEEE_E9_M_createIRKSI_EEvRSt9_Any_dataOT_St17integral_constantIbLb1EE
FN:150,153,_ZNSt14_Function_base13_Base_managerIZN12media_player11controllers18PlaybackController14setAudioEngineESt10unique_ptrINS1_8services15IPlaybackEngineESt14default_deleteIS6_EEEUlRKNSt7__cxx1112basic_stringIcSt11char_traitsIcESaIcEEEE_E9_M_createISI_EEvRSt9_Any_dataOT_St17integral_constantIbLb1EE
FN:150,153,_ZNSt14_Function_base13_Base_managerIZN12media_player11controllers18PlaybackController14setAudioEngineESt10unique_ptrINS1_8services15IPlaybackEngineESt14default_deleteIS6_EEEUliiE_E9_M_createIRKSA_EEvRSt9_Any_dataOT_St17integral_constantIbLb1EE
FN:150,153,_ZNSt14_Function_base13_Base_managerIZN12media_player11controllers18PlaybackController14setAudioEngineESt10unique_ptrINS1_8services15IPlaybackEngineESt14default_deleteIS6_EEEUliiE_E9_M_createISA_EEvRSt9_Any_dataOT_St17integral_constantIbLb1EE
FN:150,153,_ZNSt14_Function_base13_Base_managerIZN12media_player11controllers18PlaybackController14setAudioEngineESt10unique_ptrINS1_8services15IPlaybackEngineESt14default_deleteIS6_EEEUlvE_E9_M_createIRKSA_EEvRSt9_Any_dataOT_St17integral_constantIbLb1EE
FN:150,153,_ZNSt14_Function_base13_Base_managerIZN12media_player11controllers18PlaybackController14setAudioEngineESt10unique_ptrINS1_8services15IPlaybackEngineESt14default_deleteIS6_EEEUlvE_E9_M_createISA_EEvRSt9_Any_dataOT_St17integral_constantIbLb1EE
FN:150,153,_ZNSt14_Function_base13_Base_managerIZN12media_player11controllers18PlaybackControllerC4ESt10shared_ptrINS1_6models10QueueModelEES4_INS5_18PlaybackStateModelEES4_INS5_12HistoryModelEEEUlNS1_8services13PlaybackStateEE_E9_M_createIRKSE_EEvRSt9_Any_dataOT_St17integral_constantIbLb1EE
FN:150,153,_ZNSt14_Function_base13_Base_managerIZN12media_player11controllers18PlaybackControllerC4ESt10shared_ptrINS1_6models10QueueModelEES4_INS5_18PlaybackStateModelEES4_INS5_12HistoryModelEEEUlNS1_8services13PlaybackStateEE_E9_M_createISE_EEvRSt9_Any_dataOT_St17integral_constantIbLb1EE
FN:150,153,_ZNSt14_Function_base13_Base_managerIZN12media_player11controllers18PlaybackControllerC4ESt10shared_ptrINS1_6models10QueueModelEES4_INS5_18PlaybackStateModelEES4_INS5_12HistoryModelEEEUlRKNSt7__cxx1112basic_stringIcSt11char_traitsIcESaIcEEEE_E9_M_createIRKSK_EEvRSt9_Any_dataOT_St17integral_constantIbLb1EE
FN:150,153,_ZNSt14_Function_base13_Base_managerIZN12media_player11controllers18PlaybackControllerC4ESt10shared_ptrINS1_6models10QueueModelEES4_INS5_18PlaybackStateModelEES4_INS5_12HistoryModelEEEUlRKNSt7__cxx1112basic_stringIcSt11char_traitsIcESaIcEEEE_E9_M_createISK_EEvRSt9_Any_dataOT_St17integral_constantIbLb1EE
FN:150,153,_ZNSt14_Function_base13_Base_managerIZN12media_player11controllers18PlaybackControllerC4ESt10shared_ptrINS1_6models10QueueModelEES4_INS5_18PlaybackStateModelEES4_INS5_12HistoryModelEEEUliiE_E9_M_createIRKSC_EEvRSt9_Any_dataOT_St17integral_constantIbLb1EE
FN:150,153,_ZNSt14_Function_base13_Base_managerIZN12media_player11controllers18PlaybackControllerC4ESt10shared_ptrINS1_6models10QueueModelEES4_INS5_18PlaybackStateModelEES4_INS5_12HistoryModelEEEUliiE_E9_M_createISC_EEvRSt9_Any_dataOT_St17integral_constantIbLb1EE
FN:150,153,_ZNSt14_Function_base13_Base_managerIZN12media_player11controllers18PlaybackControllerC4ESt10shared_ptrINS1_6models10QueueModelEES4_INS5_18PlaybackStateModelEES4_INS5_12HistoryModelEEEUlvE_E9_M_createIRKSC_EEvRSt9_Any_dataOT_St17integral_constantIbLb1EE
FN:150,153,_ZNSt14_Function_base13_Base_managerIZN12media_player11controllers18PlaybackControllerC4ESt10shared_ptrINS1_6models10QueueModelEES4_INS5_18PlaybackStateModelEES4_INS5_12HistoryModelEEEUlvE_E9_M_createISC_EEvRSt9_Any_dataOT_St17integral_constantIbLb1EE
FN:158,162,_ZNSt14_Function_base13_Base_managerINSt8__detail15_BracketMatcherINSt7__cxx1112regex_traitsIcEELb0ELb0EEEE9_M_createIRKS6_EEvRSt9_Any_dataOT_St17integral_constantIbLb0EE
FN:158,162,_ZNSt14_Function_base13_Base_managerINSt8__detail15_BracketMatcherINSt7__cxx1112regex_traitsIcEELb0ELb0EEEE9_M_createIS6_EEvRSt9_Any_dataOT_St17integral_constantIbLb0EE
FN:158,162,_ZNSt14_Function_base13_Base_managerINSt8__detail15_BracketMatcherINSt7__cxx1112regex_traitsIcEELb0ELb1EEEE9_M_createIRKS6_EEvRSt9_Any_dataOT_St17integral_constantIbLb0EE
FN:158,162,_ZNSt14_Function_base13_Base_managerINSt8__detail15_BracketMatcherINSt7__cxx1112regex_traitsIcEELb0ELb1EEEE9_M_createIS6_EEvRSt9_Any_dataOT_St17integral_constantIbLb0EE
FN:158,162,_ZNSt14_Function_base13_Base_managerINSt8__detail15_BracketMatcherINSt7__cxx1112regex_traitsIcEELb1ELb0EEEE9_M_createIRKS6_EEvRSt9_Any_dataOT_St17integral_constantIbLb0EE
FN:158,162,_ZNSt14_Function_base13_Base_managerINSt8__detail15_BracketMatcherINSt7__cxx1112regex_traitsIcEELb1ELb0EEEE9_M_createIS6_EEvRSt9_Any_dataOT_St17integral_constantIbLb0EE
FN:158,162,_ZNSt14_Function_base13_Base_managerINSt8__detail15_BracketMatcherINSt7__cxx1112regex_traitsIcEELb1ELb1EEEE9_M_createIRKS6_EEvRSt9_Any_dataOT_St17integral_constantIbLb0EE
FN:158,162,_ZNSt14_Function_base13_Base_managerINSt8__detail15_BracketMatcherINSt7__cxx1112regex_traitsIcEELb1ELb1EEEE9_M_createIS6_EEvRSt9_Any_dataOT_St17integral_constantIbLb0EE
FN:166,169,_ZNSt14_Function_base13_Base_managerINSt8__detail11_AnyMatcherINSt7__cxx1112regex_traitsIcEELb0ELb0ELb0EEEE10_M_destroyERSt9_Any_dataSt17integral_constantIbLb1EE
FN:166,169,_ZNSt14_Function_base13_Base_managerINSt8__detail11_AnyMatcherINSt7__cxx1112regex_traitsIcEELb0ELb0ELb1EEEE10_M_destroyERSt9_Any_dataSt17integral_constantIbLb1EE
FN:166,169,_ZNSt14_Function_base13_Base_managerINSt8__detail11_AnyMatcherINSt7__cxx1112regex_traitsIcEELb0ELb1ELb0EEEE10_M_destroyERSt9_Any_dataSt17integral_constantIbLb1EE
FN:166,169,_ZNSt14_Function_base13_Base_managerINSt8__detail11_AnyMatcherINSt7__cxx1112regex_traitsIcEELb0ELb1ELb1EEEE10_M_destroyERSt9_Any_dataSt17integral_constantIbLb1EE
FN:166,169,_ZNSt14_Function_base13_Base_managerINSt8__detail11_AnyMatcherINSt7__cxx1112regex_traitsIcEELb1ELb0ELb0EEEE10_M_destroyERSt9_Any_dataSt17integral_constantIbLb1EE
FN:166,169,_ZNSt14_Function_base13_Base_managerINSt8__detail11_AnyMatcherINSt7__cxx1112regex_traitsIcEELb1ELb0ELb1EEEE10_M_destroyERSt9_Any_dataSt17integral_constantIbLb1EE
FN:166,169,_ZNSt14_Function_base13_Base_managerINSt8__detail11_AnyMatcherINSt7__cxx1112regex_traitsIcEELb1ELb1ELb0EEEE10_M_destroyERSt9_Any_dataSt17integral_constantIbLb1EE
FN:166,169,_ZNSt14_Function_base13_Base_managerINSt8__detail11_AnyMatcherINSt7__cxx1112regex_traitsIcEELb1ELb1ELb1EEEE10_M_destroyERSt9_Any_dataSt17integral_constantIbLb1EE
FN:166,169,_ZNSt14_Function_base13_Base_managerINSt8__detail12_CharMatcherINSt7__cxx1112regex_traitsIcEELb0ELb0EEEE10_M_destroyERSt9_Any_dataSt17integral_constantIbLb1EE
FN:166,169,_ZNSt14_Function_base13_Base_managerINSt8__detail12_CharMatcherINSt7__cxx1112regex_traitsIcEELb0ELb1EEEE10_M_destroyERSt9_Any_dataSt17integral_constantIbLb1EE
FN:166,169,_ZNSt14_Function_base13_Base_managerINSt8__detail12_CharMatcherINSt7__cxx1112regex_traitsIcEELb1ELb0EEEE10_M_destroyERSt9_Any_dataSt17integral_constantIbLb1EE
FN:166,169,_ZNSt14_Function_base13_Base_managerINSt8__detail12_CharMatcherINSt7__cxx1112regex_traitsIcEELb1ELb1EEEE10_M_destroyERSt9_Any_dataSt17integral_constantIbLb1EE
FN:166,169,_ZNSt14_Function_base13_Base_managerIZN12media_player11controllers16SourceControllerC4ESt10shared_ptrINS1_8services12IFileScannerEES4_INS1_12repositories17LibraryRepositoryEES4_INS1_6models12LibraryModelEEEUlSt6vectorINSB_14MediaFileModelESaISF_EEE_E10_M_destroyERSt9_Any_dataSt17integral_constantIbLb1EE
FN:166,169,_ZNSt14_Function_base13_Base_managerIZN12media_player11controllers16SourceControllerC4ESt10shared_ptrINS1_8services12IFileScannerEES4_INS1_12repositories17LibraryRepositoryEES4_INS1_6models12LibraryModelEEEUliRKNSt7__cxx1112basic_stringIcSt11char_traitsIcESaIcEEEE_E10_M_destroyERSt9_Any_dataSt17integral_constantIbLb1EE
FN:166,169,_ZNSt14_Function_base13_Base_managerIZN12media_player11controllers18HardwareControllerC4ESt10shared_ptrINS1_8services20ISerialCommunicationEES4_INS1_6models18PlaybackStateModelEEEUlRKNSt7__cxx1112basic_stringIcSt11char_traitsIcESaIcEEEE0_E10_M_destroyERSt9_Any_dataSt17integral_constantIbLb1EE
FN:166,169,_ZNSt14_Function_base13_Base_managerIZN12media_player11controllers18HardwareControllerC4ESt10shared_ptrINS1_8services20ISerialCommunicationEES4_INS1_6models18PlaybackStateModelEEEUlRKNSt7__cxx1112basic_stringIcSt11char_traitsIcESaIcEEEE_E10_M_destroyERSt9_Any_dataSt17integral_constantIbLb1EE
FN:166,169,_ZNSt14_Function_base13_Base_managerIZN12media_player11controllers18PlaybackController14setAudioEngineESt10unique_ptrINS1_8services15IPlaybackEngineESt14default_deleteIS6_EEEUlNS5_13PlaybackStateEE_E10_M_destroyERSt9_Any_dataSt17integral_constantIbLb1EE
FN:166,169,_ZNSt14_Function_base13_Base_managerIZN12media_player11controllers18PlaybackController14setAudioEngineESt10unique_ptrINS1_8services15IPlaybackEngineESt14default_deleteIS6_EEEUlRKNSt7__cxx1112basic_stringIcSt11char_traitsIcESaIcEEEE_E10_M_destroyERSt9_Any_dataSt17integral_constantIbLb1EE
FN:166,169,_ZNSt14_Function_base13_Base_managerIZN12media_player11controllers18PlaybackController14setAudioEngineESt10unique_ptrINS1_8services15IPlaybackEngineESt14default_deleteIS6_EEEUliiE_E10_M_destroyERSt9_Any_dataSt17integral_constantIbLb1EE
FN:166,169,_ZNSt14_Function_base13_Base_managerIZN12media_player11controllers18PlaybackController14setAudioEngineESt10unique_ptrINS1_8services15IPlaybackEngineESt14default_deleteIS6_EEEUlvE_E10_M_destroyERSt9_Any_dataSt17integral_constantIbLb1EE
FN:166,169,_ZNSt14_Function_base13_Base_managerIZN12media_player11controllers18PlaybackControllerC4ESt10shared_ptrINS1_6models10QueueModelEES4_INS5_18PlaybackStateModelEES4_INS5_12HistoryModelEEEUlNS1_8services13PlaybackStateEE_E10_M_destroyERSt9_Any_dataSt17integral_constantIbLb1EE
FN:166,169,_ZNSt14_Function_base13_Base_managerIZN12media_player11controllers18PlaybackControllerC4ESt10shared_ptrINS1_6models10QueueModelEES4_INS5_18PlaybackStateModelEES4_INS5_12HistoryModelEEEUlRKNSt7__cxx1112basic_stringIcSt11char_traitsIcESaIcEEEE_E10_M_destroyERSt9_Any_dataSt17integral_constantIbLb1EE
FN:166,169,_ZNSt14_Function_base13_Base_managerIZN12media_player11controllers18PlaybackControllerC4ESt10shared_ptrINS1_6models10QueueModelEES4_INS5_18PlaybackStateModelEES4_INS5_12HistoryModelEEEUliiE_E10_M_destroyERSt9_Any_dataSt17integral_constantIbLb1EE
FN:166,169,_ZNSt14_Function_base13_Base_managerIZN12media_player11controllers18PlaybackControllerC4ESt10shared_ptrINS1_6models10QueueModelEES4_INS5_18PlaybackStateModelEES4_INS5_12HistoryModelEEEUlvE_E10_M_destroyERSt9_Any_dataSt17integral_constantIbLb1EE
FN:173,176,_ZNSt14_Function_base13_Base_managerINSt8__detail15_BracketMatcherINSt7__cxx1112regex_traitsIcEELb0ELb0EEEE10_M_destroyERSt9_Any_dataSt17integral_constantIbLb0EE
FN:173,176,_ZNSt14_Function_base13_Base_managerINSt8__detail15_BracketMatcherINSt7__cxx1112regex_traitsIcEELb0ELb1EEEE10_M_destroyERSt9_Any_dataSt17integral_constantIbLb0EE
FN:173,176,_ZNSt14_Function_base13_Base_managerINSt8__detail15_BracketMatcherINSt7__cxx1112regex_traitsIcEELb1ELb0EEEE10_M_destroyERSt9_Any_dataSt17integral_constantIbLb0EE
FN:173,176,_ZNSt14_Function_base13_Base_managerINSt8__detail15_BracketMatcherINSt7__cxx1112regex_traitsIcEELb1ELb1EEEE10_M_destroyERSt9_Any_dataSt17integral_constantIbLb0EE
FN:180,207,_ZNSt14_Function_base13_Base_managerINSt8__detail11_AnyMatcherINSt7__cxx1112regex_traitsIcEELb0ELb0ELb0EEEE10_M_managerERSt9_Any_dataRKS8_St18_Manager_operation
FN:180,207,_ZNSt14_Function_base13_Base_managerINSt8__detail11_AnyMatcherINSt7__cxx1112regex_traitsIcEELb0ELb0ELb1EEEE10_M_managerERSt9_Any_dataRKS8_St18_Manager_operation
FN:180,207,_ZNSt14_Function_base13_Base_managerINSt8__detail11_AnyMatcherINSt7__cxx1112regex_traitsIcEELb0ELb1ELb0EEEE10_M_managerERSt9_Any_dataRKS8_St18_Manager_operation
FN:180,207,_ZNSt14_Function_base13_Base_managerINSt8__detail11_AnyMatcherINSt7__cxx1112regex_traitsIcEELb0ELb1ELb1EEEE10_M_managerERSt9_Any_dataRKS8_St18_Manager_operation
FN:180,207,_ZNSt14_Function_base13_Base_managerINSt8__detail11_AnyMatcherINSt7__cxx1112regex_traitsIcEELb1ELb0ELb0EEEE10_M_managerERSt9_Any_dataRKS8_St18_Manager_operation
FN:180,207,_ZNSt14_Function_base13_Base_managerINSt8__detail11_AnyMatcherINSt7__cxx1112regex_traitsIcEELb1ELb0ELb1EEEE10_M_managerERSt9_Any_dataRKS8_St18_Manager_operation
FN:180,207,_ZNSt14_Function_base13_Base_managerINSt8__detail11_AnyMatcherINSt7__cxx1112regex_traitsIcEELb1ELb1ELb0EEEE10_M_managerERSt9_Any_dataRKS8_St18_Manager_operation
FN:180,207,_ZNSt14_Function_base13_Base_managerINSt8__detail11_AnyMatcherINSt7__cxx1112regex_traitsIcEELb1ELb1ELb1EEEE10_M_managerERSt9_Any_dataRKS8_St18_Manager_operation
FN:180,207,_ZNSt14_Function_base13_Base_managerINSt8__detail12_CharMatcherINSt7__cxx1112regex_traitsIcEELb0ELb0EEEE10_M_managerERSt9_Any_dataRKS8_St18_Manager_operation
FN:180,207,_ZNSt14_Function_base13_Base_managerINSt8__detail12_CharMatcherINSt7__cxx1112regex_traitsIcEELb0ELb1EEEE10_M_managerERSt9_Any_dataRKS8_St18_Manager_operation
FN:180,207,_ZNSt14_Function_base13_Base_managerINSt8__detail12_CharMatcherINSt7__cxx1112regex_traitsIcEELb1ELb0EEEE10_M_managerERSt9_Any_dataRKS8_St18_Manager_operation
FN:180,207,_ZNSt14_Function_base13_Base_managerINSt8__detail12_CharMatcherINSt7__cxx1112regex_traitsIcEELb1ELb1EEEE10_M_managerERSt9_Any_dataRKS8_St18_Manager_operation
FN:180,207,_ZNSt14_Function_base13_Base_managerINSt8__detail15_BracketMatcherINSt7__cxx1112regex_traitsIcEELb0ELb0EEEE10_M_managerERSt9_Any_dataRKS8_St18_Manager_operation
FN:180,207,_ZNSt14_Function_base13_Base_managerINSt8__detail15_BracketMatcherINSt7__cxx1112regex_traitsIcEELb0ELb1EEEE10_M_managerERSt9_Any_dataRKS8_St18_Manager_operation
FN:180,207,_ZNSt14_Function_base13_Base_managerINSt8__detail15_BracketMatcherINSt7__cxx1112regex_traitsIcEELb1ELb0EEEE10_M_managerERSt9_Any_dataRKS8_St18_Manager_operation
FN:180,207,_ZNSt14_Function_base13_Base_managerINSt8__detail15_BracketMatcherINSt7__cxx1112regex_traitsIcEELb1ELb1EEEE10_M_managerERSt9_Any_dataRKS8_St18_Manager_operation
FN:180,207,_ZNSt14_Function_base13_Base_managerIZN12media_player11controllers16SourceControllerC4ESt10shared_ptrINS1_8services12IFileScannerEES4_INS1_12repositories17LibraryRepositoryEES4_INS1_6models12LibraryModelEEEUlSt6vectorINSB_14MediaFileModelESaISF_EEE_E10_M_managerERSt9_Any_dataRKSK_St18_Manager_operation
FN:180,207,_ZNSt14_Function_base13_Base_managerIZN12media_player11controllers16SourceControllerC4ESt10shared_ptrINS1_8services12IFileScannerEES4_INS1_12repositories17LibraryRepositoryEES4_INS1_6models12LibraryModelEEEUliRKNSt7__cxx1112basic_stringIcSt11char_traitsIcESaIcEEEE_E10_M_managerERSt9_Any_dataRKSO_St18_Manager_operation
FN:180,207,_ZNSt14_Function_base13_Base_managerIZN12media_player11controllers18HardwareControllerC4ESt10shared_ptrINS1_8services20ISerialCommunicationEES4_INS1_6models18PlaybackStateModelEEEUlRKNSt7__cxx1112basic_stringIcSt11char_traitsIcESaIcEEEE0_E10_M_managerERSt9_Any_dataRKSL_St18_Manager_operation
FN:180,207,_ZNSt14_Function_base13_Base_managerIZN12media_player11controllers18HardwareControllerC4ESt10shared_ptrINS1_8services20ISerialCommunicationEES4_INS1_6models18PlaybackStateModelEEEUlRKNSt7__cxx1112basic_stringIcSt11char_traitsIcESaIcEEEE_E10_M_managerERSt9_Any_dataRKSL_St18_Manager_operation
FN:180,207,_ZNSt14_Function_base13_Base_managerIZN12media_player11controllers18PlaybackController14setAudioEngineESt10unique_ptrINS1_8services15IPlaybackEngineESt14default_deleteIS6_EEEUlNS5_13PlaybackStateEE_E10_M_managerERSt9_Any_dataRKSD_St18_Manager_operation
FN:180,207,_ZNSt14_Function_base13_Base_managerIZN12media_player11controllers18PlaybackController14setAudioEngineESt10unique_ptrINS1_8services15IPlaybackEngineESt14default_deleteIS6_EEEUlRKNSt7__cxx1112basic_stringIcSt11char_traitsIcESaIcEEEE_E10_M_managerERSt9_Any_dataRKSK_St18_Manager_operation
FN:180,207,_ZNSt14_Function_base13_Base_managerIZN12media_player11controllers18PlaybackController14setAudioEngineESt10unique_ptrINS1_8services15IPlaybackEngineESt14default_deleteIS6_EEEUliiE_E10_M_managerERSt9_Any_dataRKSC_St18_Manager_operation
FN:180,207,_ZNSt14_Function_base13_Base_managerIZN12media_player11controllers18PlaybackController14setAudioEngineESt10unique_ptrINS1_8services15IPlaybackEngineESt14default_deleteIS6_EEEUlvE_E10_M_managerERSt9_Any_dataRKSC_St18_Manager_operation
FN:180,207,_ZNSt14_Function_base13_Base_managerIZN12media_player11controllers18PlaybackControllerC4ESt10shared_ptrINS1_6models10QueueModelEES4_INS5_18PlaybackStateModelEES4_INS5_12HistoryModelEEEUlNS1_8services13PlaybackStateEE_E10_M_managerERSt9_Any_dataRKSG_St18_Manager_operation
FN:180,207,_ZNSt14_Function_base13_Base_managerIZN12media_player11controllers18PlaybackControllerC4ESt10shared_ptrINS1_6models10QueueModelEES4_INS5_18PlaybackStateModelEES4_INS5_12HistoryModelEEEUlRKNSt7__cxx1112basic_stringIcSt11char_traitsIcESaIcEEEE_E10_M_managerERSt9_Any_dataRKSM_St18_Manager_operation
FN:180,207,_ZNSt14_Function_base13_Base_managerIZN12media_player11controllers18PlaybackControllerC4ESt10shared_ptrINS1_6models10QueueModelEES4_INS5_18PlaybackStateModelEES4_INS5_12HistoryModelEEEUliiE_E10_M_managerERSt9_Any_dataRKSE_St18_Manager_operation
FN:180,207,_ZNSt14_Function_base13_Base_managerIZN12media_player11controllers18PlaybackControllerC4ESt10shared_ptrINS1_6models10QueueModelEES4_INS5_18PlaybackStateModelEES4_INS5_12HistoryModelEEEUlvE_E10_M_managerERSt9_Any_dataRKSE_St18_Manager_operation
FN:211,216,_ZNSt14_Function_base13_Base_managerINSt8__detail11_AnyMatcherINSt7__cxx1112regex_traitsIcEELb0ELb0ELb0EEEE15_M_init_functorIRKS6_EEvRSt9_Any_dataOT_
FN:211,216,_ZNSt14_Function_base13_Base_managerINSt8__detail11_AnyMatcherINSt7__cxx1112regex_traitsIcEELb0ELb0ELb0EEEE15_M_init_functorIS6_EEvRSt9_Any_dataOT_
FN:211,216,_ZNSt14_Function_base13_Base_managerINSt8__detail11_AnyMatcherINSt7__cxx1112regex_traitsIcEELb0ELb0ELb1EEEE15_M_init_functorIRKS6_EEvRSt9_Any_dataOT_
FN:211,216,_ZNSt14_Function_base13_Base_managerINSt8__detail11_AnyMatcherINSt7__cxx1112regex_traitsIcEELb0ELb0ELb1EEEE15_M_init_functorIS6_EEvRSt9_Any_dataOT_
FN:211,216,_ZNSt14_Function_base13_Base_managerINSt8__detail11_AnyMatcherINSt7__cxx1112regex_traitsIcEELb0ELb1ELb0EEEE15_M_init_functorIRKS6_EEvRSt9_Any_dataOT_
FN:211,216,_ZNSt14_Function_base13_Base_managerINSt8__detail11_AnyMatcherINSt7__cxx1112regex_traitsIcEELb0ELb1ELb0EEEE15_M_init_functorIS6_EEvRSt9_Any_dataOT_
FN:211,216,_ZNSt14_Function_base13_Base_managerINSt8__detail11_AnyMatcherINSt7__cxx1112regex_traitsIcEELb0ELb1ELb1EEEE15_M_init_functorIRKS6_EEvRSt9_Any_dataOT_
FN:211,216,_ZNSt14_Function_base13_Base_managerINSt8__detail11_AnyMatcherINSt7__cxx1112regex_traitsIcEELb0ELb1ELb1EEEE15_M_init_functorIS6_EEvRSt9_Any_dataOT_
FN:211,216,_ZNSt14_Function_base13_Base_managerINSt8__detail11_AnyMatcherINSt7__cxx1112regex_traitsIcEELb1ELb0ELb0EEEE15_M_init_functorIRKS6_EEvRSt9_Any_dataOT_
FN:211,216,_ZNSt14_Function_base13_Base_managerINSt8__detail11_AnyMatcherINSt7__cxx1112regex_traitsIcEELb1ELb0ELb0EEEE15_M_init_functorIS6_EEvRSt9_Any_dataOT_
FN:211,216,_ZNSt14_Function_base13_Base_managerINSt8__detail11_AnyMatcherINSt7__cxx1112regex_traitsIcEELb1ELb0ELb1EEEE15_M_init_functorIRKS6_EEvRSt9_Any_dataOT_
FN:211,216,_ZNSt14_Function_base13_Base_managerINSt8__detail11_AnyMatcherINSt7__cxx1112regex_traitsIcEELb1ELb0ELb1EEEE15_M_init_functorIS6_EEvRSt9_Any_dataOT_
FN:211,216,_ZNSt14_Function_base13_Base_managerINSt8__detail11_AnyMatcherINSt7__cxx1112regex_traitsIcEELb1ELb1ELb0EEEE15_M_init_functorIRKS6_EEvRSt9_Any_dataOT_
FN:211,216,_ZNSt14_Function_base13_Base_managerINSt8__detail11_AnyMatcherINSt7__cxx1112regex_traitsIcEELb1ELb1ELb0EEEE15_M_init_functorIS6_EEvRSt9_Any_dataOT_
FN:211,216,_ZNSt14_Function_base13_Base_managerINSt8__detail11_AnyMatcherINSt7__cxx1112regex_traitsIcEELb1ELb1ELb1EEEE15_M_init_functorIRKS6_EEvRSt9_Any_dataOT_
FN:211,216,_ZNSt14_Function_base13_Base_managerINSt8__detail11_AnyMatcherINSt7__cxx1112regex_traitsIcEELb1ELb1ELb1EEEE15_M_init_functorIS6_EEvRSt9_Any_dataOT_
FN:211,216,_ZNSt14_Function_base13_Base_managerINSt8__detail12_CharMatcherINSt7__cxx1112regex_traitsIcEELb0ELb0EEEE15_M_init_functorIRKS6_EEvRSt9_Any_dataOT_
FN:211,216,_ZNSt14_Function_base13_Base_managerINSt8__detail12_CharMatcherINSt7__cxx1112regex_traitsIcEELb0ELb0EEEE15_M_init_functorIS6_EEvRSt9_Any_dataOT_
FN:211,216,_ZNSt14_Function_base13_Base_managerINSt8__detail12_CharMatcherINSt7__cxx1112regex_traitsIcEELb0ELb1EEEE15_M_init_functorIRKS6_EEvRSt9_Any_dataOT_
FN:211,216,_ZNSt14_Function_base13_Base_managerINSt8__detail12_CharMatcherINSt7__cxx1112regex_traitsIcEELb0ELb1EEEE15_M_init_functorIS6_EEvRSt9_Any_dataOT_
FN:211,216,_ZNSt14_Function_base13_Base_managerINSt8__detail12_CharMatcherINSt7__cxx1112regex_traitsIcEELb1ELb0EEEE15_M_init_functorIRKS6_EEvRSt9_Any_dataOT_
FN:211,216,_ZNSt14_Function_base13_Base_managerINSt8__detail12_CharMatcherINSt7__cxx1112regex_traitsIcEELb1ELb0EEEE15_M_init_functorIS6_EEvRSt9_Any_dataOT_
FN:211,216,_ZNSt14_Function_base13_Base_managerINSt8__detail12_CharMatcherINSt7__cxx1112regex_traitsIcEELb1ELb1EEEE15_M_init_functorIRKS6_EEvRSt9_Any_dataOT_
FN:211,216,_ZNSt14_Function_base13_Base_managerINSt8__detail12_CharMatcherINSt7__cxx1112regex_traitsIcEELb1ELb1EEEE15_M_init_functorIS6_EEvRSt9_Any_dataOT_
FN:211,216,_ZNSt14_Function_base13_Base_managerINSt8__detail15_BracketMatcherINSt7__cxx1112regex_traitsIcEELb0ELb0EEEE15_M_init_functorIRKS6_EEvRSt9_Any_dataOT_
FN:211,216,_ZNSt14_Function_base13_Base_managerINSt8__detail15_BracketMatcherINSt7__cxx1112regex_traitsIcEELb0ELb0EEEE15_M_init_functorIS6_EEvRSt9_Any_dataOT_
FN:211,216,_ZNSt14_Function_base13_Base_managerINSt8__detail15_BracketMatcherINSt7__cxx1112regex_traitsIcEELb0ELb1EEEE15_M_init_functorIRKS6_EEvRSt9_Any_dataOT_
FN:211,216,_ZNSt14_Function_base13_Base_managerINSt8__detail15_BracketMatcherINSt7__cxx1112regex_traitsIcEELb0ELb1EEEE15_M_init_functorIS6_EEvRSt9_Any_dataOT_
FN:211,216,_ZNSt14_Function_base13_Base_managerINSt8__detail15_BracketMatcherINSt7__cxx1112regex_traitsIcEELb1ELb0EEEE15_M_init_functorIRKS6_EEvRSt9_Any_dataOT_
FN:211,216,_ZNSt14_Function_base13_Base_managerINSt8__detail15_BracketMatcherINSt7__cxx1112regex_traitsIcEELb1ELb0EEEE15_M_init_functorIS6_EEvRSt9_Any_dataOT_
FN:211,216,_ZNSt14_Function_base13_Base_managerINSt8__detail15_BracketMatcherINSt7__cxx1112regex_traitsIcEELb1ELb1EEEE15_M_init_functorIRKS6_EEvRSt9_Any_dataOT_
FN:211,216,_ZNSt14_Function_base13_Base_managerINSt8__detail15_BracketMatcherINSt7__cxx1112regex_traitsIcEELb1ELb1EEEE15_M_init_functorIS6_EEvRSt9_Any_dataOT_
FN:211,216,_ZNSt14_Function_base13_Base_managerIZN12media_player11controllers16SourceControllerC4ESt10shared_ptrINS1_8services12IFileScannerEES4_INS1_12repositories17LibraryRepositoryEES4_INS1_6models12LibraryModelEEEUlSt6vectorINSB_14MediaFileModelESaISF_EEE_E15_M_init_functorIRKSI_EEvRSt9_Any_dataOT_
FN:211,216,_ZNSt14_Function_base13_Base_managerIZN12media_player11controllers16SourceControllerC4ESt10shared_ptrINS1_8services12IFileScannerEES4_INS1_12repositories17LibraryRepositoryEES4_INS1_6models12LibraryModelEEEUlSt6vectorINSB_14MediaFileModelESaISF_EEE_E15_M_init_functorISI_EEvRSt9_Any_dataOT_
FN:211,216,_ZNSt14_Function_base13_Base_managerIZN12media_player11controllers16SourceControllerC4ESt10shared_ptrINS1_8services12IFileScannerEES4_INS1_12repositories17LibraryRepositoryEES4_INS1_6models12LibraryModelEEEUliRKNSt7__cxx1112basic_stringIcSt11char_traitsIcESaIcEEEE_E15_M_init_functorIRKSM_EEvRSt9_Any_dataOT_
FN:211,216,_ZNSt14_Function_base13_Base_managerIZN12media_player11controllers16SourceControllerC4ESt10shared_ptrINS1_8services12IFileScannerEES4_INS1_12repositories17LibraryRepositoryEES4_INS1_6models12LibraryModelEEEUliRKNSt7__cxx1112basic_stringIcSt11char_traitsIcESaIcEEEE_E15_M_init_functorISM_EEvRSt9_Any_dataOT_
FN:211,216,_ZNSt14_Function_base13_Base_managerIZN12media_player11controllers18HardwareControllerC4ESt10shared_ptrINS1_8services20ISerialCommunicationEES4_INS1_6models18PlaybackStateModelEEEUlRKNSt7__cxx1112basic_stringIcSt11char_traitsIcESaIcEEEE0_E15_M_init_functorIRKSJ_EEvRSt9_Any_dataOT_
FN:211,216,_ZNSt14_Function_base13_Base_managerIZN12media_player11controllers18HardwareControllerC4ESt10shared_ptrINS1_8services20ISerialCommunicationEES4_INS1_6models18PlaybackStateModelEEEUlRKNSt7__cxx1112basic_stringIcSt11char_traitsIcESaIcEEEE0_E15_M_init_functorISJ_EEvRSt9_Any_dataOT_
FN:211,216,_ZNSt14_Function_base13_Base_managerIZN12media_player11controllers18HardwareControllerC4ESt10shared_ptrINS1_8services20ISerialCommunicationEES4_INS1_6models18PlaybackStateModelEEEUlRKNSt7__cxx1112basic_stringIcSt11char_traitsIcESaIcEEEE_E15_M_init_functorIRKSJ_EEvRSt9_Any_dataOT_
FN:211,216,_ZNSt14_Function_base13_Base_managerIZN12media_player11controllers18HardwareControllerC4ESt10shared_ptrINS1_8services20ISerialCommunicationEES4_INS1_6models18PlaybackStateModelEEEUlRKNSt7__cxx1112basic_stringIcSt11char_traitsIcESaIcEEEE_E15_M_init_functorISJ_EEvRSt9_Any_dataOT_
FN:211,216,_ZNSt14_Function_base13_Base_managerIZN12media_player11controllers18PlaybackController14setAudioEngineESt10unique_ptrINS1_8services15IPlaybackEngineESt14default_deleteIS6_EEEUlNS5_13PlaybackStateEE_E15_M_init_functorIRKSB_EEvRSt9_Any_dataOT_
FN:211,216,_ZNSt14_Function_base13_Base_managerIZN12media_player11controllers18PlaybackController14setAudioEngineESt10unique_ptrINS1_8services15IPlaybackEngineESt14default_deleteIS6_EEEUlNS5_13PlaybackStateEE_E15_M_init_functorISB_EEvRSt9_Any_dataOT_
FN:211,216,_ZNSt14_Function_base13_Base_managerIZN12media_player11controllers18PlaybackController14setAudioEngineESt10unique_ptrINS1_8services15IPlaybackEngineESt14default_deleteIS6_EEEUlRKNSt7__cxx1112basic_stringIcSt11char_traitsIcESaIcEEEE_E15_M_init_functorIRKSI_EEvRSt9_Any_dataOT_
FN:211,216,_ZNSt14_Function_base13_Base_managerIZN12media_player11controllers18PlaybackController14setAudioEngineESt10unique_ptrINS1_8services15IPlaybackEngineESt14default_deleteIS6_EEEUlRKNSt7__cxx1112basic_stringIcSt11char_traitsIcESaIcEEEE_E15_M_init_functorISI_EEvRSt9_Any_dataOT_
FN:211,216,_ZNSt14_Function_base13_Base_managerIZN12media_player11controllers18PlaybackController14setAudioEngineESt10unique_ptrINS1_8services15IPlaybackEngineESt14default_deleteIS6_EEEUliiE_E15_M_init_functorIRKSA_EEvRSt9_Any_dataOT_
FN:211,216,_ZNSt14_Function_base13_Base_managerIZN12media_player11controllers18PlaybackController14setAudioEngineESt10unique_ptrINS1_8services15IPlaybackEngineESt14default_deleteIS6_EEEUliiE_E15_M_init_functorISA_EEvRSt9_Any_dataOT_
FN:211,216,_ZNSt14_Function_base13_Base_managerIZN12media_player11controllers18PlaybackController14setAudioEngineESt10unique_ptrINS1_8services15IPlaybackEngineESt14default_deleteIS6_EEEUlvE_E15_M_init_functorIRKSA_EEvRSt9_Any_dataOT_
FN:211,216,_ZNSt14_Function_base13_Base_managerIZN12media_player11controllers18PlaybackController14setAudioEngineESt10unique_ptrINS1_8services15IPlaybackEngineESt14default_deleteIS6_EEEUlvE_E15_M_init_functorISA_EEvRSt9_Any_dataOT_
FN:211,216,_ZNSt14_Function_base13_Base_managerIZN12media_player11controllers18PlaybackControllerC4ESt10shared_ptrINS1_6models10QueueModelEES4_INS5_18PlaybackStateModelEES4_INS5_12HistoryModelEEEUlNS1_8services13PlaybackStateEE_E15_M_init_functorIRKSE_EEvRSt9_Any_dataOT_
FN:211,216,_ZNSt14_Function_base13_Base_managerIZN12media_player11controllers18PlaybackControllerC4ESt10shared_ptrINS1_6models10QueueModelEES4_INS5_18PlaybackStateModelEES4_INS5_12HistoryModelEEEUlNS1_8services13PlaybackStateEE_E15_M_init_functorISE_EEvRSt9_Any_dataOT_
FN:211,216,_ZNSt14_Function_base13_Base_managerIZN12media_player11controllers18PlaybackControllerC4ESt10shared_ptrINS1_6models10QueueModelEES4_INS5_18PlaybackStateModelEES4_INS5_12HistoryModelEEEUlRKNSt7__cxx1112basic_stringIcSt11char_traitsIcESaIcEEEE_E15_M_init_functorIRKSK_EEvRSt9_Any_dataOT_
FN:211,216,_ZNSt14_Function_base13_Base_managerIZN12media_player11controllers18PlaybackControllerC4ESt10shared_ptrINS1_6models10QueueModelEES4_INS5_18PlaybackStateModelEES4_INS5_12HistoryModelEEEUlRKNSt7__cxx1112basic_stringIcSt11char_traitsIcESaIcEEEE_E15_M_init_functorISK_EEvRSt9_Any_dataOT_
FN:211,216,_ZNSt14_Function_base13_Base_managerIZN12media_player11controllers18PlaybackControllerC4ESt10shared_ptrINS1_6models10QueueModelEES4_INS5_18PlaybackStateModelEES4_INS5_12HistoryModelEEEUliiE_E15_M_init_functorIRKSC_EEvRSt9_Any_dataOT_
FN:211,216,_ZNSt14_Function_base13_Base_managerIZN12media_player11controllers18PlaybackControllerC4ESt10shared_ptrINS1_6models10QueueModelEES4_INS5_18PlaybackStateModelEES4_INS5_12HistoryModelEEEUliiE_E15_M_init_functorISC_EEvRSt9_Any_dataOT_
FN:211,216,_ZNSt14_Function_base13_Base_managerIZN12media_player11controllers18PlaybackControllerC4ESt10shared_ptrINS1_6models10QueueModelEES4_INS5_18PlaybackStateModelEES4_INS5_12HistoryModelEEEUlvE_E15_M_init_functorIRKSC_EEvRSt9_Any_dataOT_
FN:211,216,_ZNSt14_Function_base13_Base_managerIZN12media_player11controllers18PlaybackControllerC4ESt10shared_ptrINS1_6models10QueueModelEES4_INS5_18PlaybackStateModelEES4_INS5_12HistoryModelEEEUlvE_E15_M_init_functorISC_EEvRSt9_Any_dataOT_
FN:235,236,_ZNSt14_Function_base13_Base_managerINSt8__detail11_AnyMatcherINSt7__cxx1112regex_traitsIcEELb0ELb0ELb0EEEE21_M_not_empty_functionIS6_EEbRKT_
FN:235,236,_ZNSt14_Function_base13_Base_managerINSt8__detail11_AnyMatcherINSt7__cxx1112regex_traitsIcEELb0ELb0ELb1EEEE21_M_not_empty_functionIS6_EEbRKT_
FN:235,236,_ZNSt14_Function_base13_Base_managerINSt8__detail11_AnyMatcherINSt7__cxx1112regex_traitsIcEELb0ELb1ELb0EEEE21_M_not_empty_functionIS6_EEbRKT_
FN:235,236,_ZNSt14_Function_base13_Base_managerINSt8__detail11_AnyMatcherINSt7__cxx1112regex_traitsIcEELb0ELb1ELb1EEEE21_M_not_empty_functionIS6_EEbRKT_
FN:235,236,_ZNSt14_Function_base13_Base_managerINSt8__detail11_AnyMatcherINSt7__cxx1112regex_traitsIcEELb1ELb0ELb0EEEE21_M_not_empty_functionIS6_EEbRKT_
FN:235,236,_ZNSt14_Function_base13_Base_managerINSt8__detail11_AnyMatcherINSt7__cxx1112regex_traitsIcEELb1ELb0ELb1EEEE21_M_not_empty_functionIS6_EEbRKT_
FN:235,236,_ZNSt14_Function_base13_Base_managerINSt8__detail11_AnyMatcherINSt7__cxx1112regex_traitsIcEELb1ELb1ELb0EEEE21_M_not_empty_functionIS6_EEbRKT_
FN:235,236,_ZNSt14_Function_base13_Base_managerINSt8__detail11_AnyMatcherINSt7__cxx1112regex_traitsIcEELb1ELb1ELb1EEEE21_M_not_empty_functionIS6_EEbRKT_
FN:235,236,_ZNSt14_Function_base13_Base_managerINSt8__detail12_CharMatcherINSt7__cxx1112regex_traitsIcEELb0ELb0EEEE21_M_not_empty_functionIS6_EEbRKT_
FN:235,236,_ZNSt14_Function_base13_Base_managerINSt8__detail12_CharMatcherINSt7__cxx1112regex_traitsIcEELb0ELb1EEEE21_M_not_empty_functionIS6_EEbRKT_
FN:235,236,_ZNSt14_Function_base13_Base_managerINSt8__detail12_CharMatcherINSt7__cxx1112regex_traitsIcEELb1ELb0EEEE21_M_not_empty_functionIS6_EEbRKT_
FN:235,236,_ZNSt14_Function_base13_Base_managerINSt8__detail12_CharMatcherINSt7__cxx1112regex_traitsIcEELb1ELb1EEEE21_M_not_empty_functionIS6_EEbRKT_
FN:235,236,_ZNSt14_Function_base13_Base_managerINSt8__detail15_BracketMatcherINSt7__cxx1112regex_traitsIcEELb0ELb0EEEE21_M_not_empty_functionIS6_EEbRKT_
FN:235,236,_ZNSt14_Function_base13_Base_managerINSt8__detail15_BracketMatcherINSt7__cxx1112regex_traitsIcEELb0ELb1EEEE21_M_not_empty_functionIS6_EEbRKT_
FN:235,236,_ZNSt14_Function_base13_Base_managerINSt8__detail15_BracketMatcherINSt7__cxx1112regex_traitsIcEELb1ELb0EEEE21_M_not_empty_functionIS6_EEbRKT_
FN:235,236,_ZNSt14_Function_base13_Base_managerINSt8__detail15_BracketMatcherINSt7__cxx1112regex_traitsIcEELb1ELb1EEEE21_M_not_empty_functionIS6_EEbRKT_
FN:235,236,_ZNSt14_Function_base13_Base_managerIZN12media_player11controllers16SourceControllerC4ESt10shared_ptrINS1_8services12IFileScannerEES4_INS1_12repositories17LibraryRepositoryEES4_INS1_6models12LibraryModelEEEUlSt6vectorINSB_14MediaFileModelESaISF_EEE_E21_M_not_empty_functionISI_EEbRKT_
FN:235,236,_ZNSt14_Function_base13_Base_managerIZN12media_player11controllers16SourceControllerC4ESt10shared_ptrINS1_8services12IFileScannerEES4_INS1_12repositories17LibraryRepositoryEES4_INS1_6models12LibraryModelEEEUliRKNSt7__cxx1112basic_stringIcSt11char_traitsIcESaIcEEEE_E21_M_not_empty_functionISM_EEbRKT_
FN:235,236,_ZNSt14_Function_base13_Base_managerIZN12media_player11controllers18HardwareControllerC4ESt10shared_ptrINS1_8services20ISerialCommunicationEES4_INS1_6models18PlaybackStateModelEEEUlRKNSt7__cxx1112basic_stringIcSt11char_traitsIcESaIcEEEE0_E21_M_not_empty_functionISJ_EEbRKT_
FN:235,236,_ZNSt14_Function_base13_Base_managerIZN12media_player11controllers18HardwareControllerC4ESt10shared_ptrINS1_8services20ISerialCommunicationEES4_INS1_6models18PlaybackStateModelEEEUlRKNSt7__cxx1112basic_stringIcSt11char_traitsIcESaIcEEEE_E21_M_not_empty_functionISJ_EEbRKT_
FN:235,236,_ZNSt14_Function_base13_Base_managerIZN12media_player11controllers18PlaybackController14setAudioEngineESt10unique_ptrINS1_8services15IPlaybackEngineESt14default_deleteIS6_EEEUlNS5_13PlaybackStateEE_E21_M_not_empty_functionISB_EEbRKT_
FN:235,236,_ZNSt14_Function_base13_Base_managerIZN12media_player11controllers18PlaybackController14setAudioEngineESt10unique_ptrINS1_8services15IPlaybackEngineESt14default_deleteIS6_EEEUlRKNSt7__cxx1112basic_stringIcSt11char_traitsIcESaIcEEEE_E21_M_not_empty_functionISI_EEbRKT_
FN:235,236,_ZNSt14_Function_base13_Base_managerIZN12media_player11controllers18PlaybackController14setAudioEngineESt10unique_ptrINS1_8services15IPlaybackEngineESt14default_deleteIS6_EEEUliiE_E21_M_not_empty_functionISA_EEbRKT_
FN:235,236,_ZNSt14_Function_base13_Base_managerIZN12media_player11controllers18PlaybackController14setAudioEngineESt10unique_ptrINS1_8services15IPlaybackEngineESt14default_deleteIS6_EEEUlvE_E21_M_not_empty_functionISA_EEbRKT_
FN:235,236,_ZNSt14_Function_base13_Base_managerIZN12media_player11controllers18PlaybackControllerC4ESt10shared_ptrINS1_6models10QueueModelEES4_INS5_18PlaybackStateModelEES4_INS5_12HistoryModelEEEUlNS1_8services13PlaybackStateEE_E21_M_not_empty_functionISE_EEbRKT_
FN:235,236,_ZNSt14_Function_base13_Base_managerIZN12media_player11controllers18PlaybackControllerC4ESt10shared_ptrINS1_6models10QueueModelEES4_INS5_18PlaybackStateModelEES4_INS5_12HistoryModelEEEUlRKNSt7__cxx1112basic_stringIcSt11char_traitsIcESaIcEEEE_E21_M_not_empty_functionISK_EEbRKT_
FN:235,236,_ZNSt14_Function_base13_Base_managerIZN12media_player11controllers18PlaybackControllerC4ESt10shared_ptrINS1_6models10QueueModelEES4_INS5_18PlaybackStateModelEES4_INS5_12HistoryModelEEEUliiE_E21_M_not_empty_functionISC_EEbRKT_
FN:235,236,_ZNSt14_Function_base13_Base_managerIZN12media_player11controllers18PlaybackControllerC4ESt10shared_ptrINS1_6models10QueueModelEES4_INS5_18PlaybackStateModelEES4_INS5_12HistoryModelEEEUlvE_E21_M_not_empty_functionISC_EEbRKT_
FN:239,239,_ZNSt14_Function_baseC2Ev
FN:241,245,_ZNSt14_Function_baseD2Ev
FN:247,247,_ZNKSt14_Function_base8_M_emptyEv
FN:267,285,_ZNSt17_Function_handlerIFbcENSt8__detail11_AnyMatcherINSt7__cxx1112regex_traitsIcEELb0ELb0ELb0EEEE10_M_managerERSt9_Any_dataRKS8_St18_Manager_operation
FN:267,285,_ZNSt17_Function_handlerIFbcENSt8__detail11_AnyMatcherINSt7__cxx1112regex_traitsIcEELb0ELb0ELb1EEEE10_M_managerERSt9_Any_dataRKS8_St18_Manager_operation
FN:267,285,_ZNSt17_Function_handlerIFbcENSt8__detail11_AnyMatcherINSt7__cxx1112regex_traitsIcEELb0ELb1ELb0EEEE10_M_managerERSt9_Any_dataRKS8_St18_Manager_operation
FN:267,285,_ZNSt17_Function_handlerIFbcENSt8__detail11_AnyMatcherINSt7__cxx1112regex_traitsIcEELb0ELb1ELb1EEEE10_M_managerERSt9_Any_dataRKS8_St18_Manager_operation
FN:267,285,_ZNSt17_Function_handlerIFbcENSt8__detail11_AnyMatcherINSt7__cxx1112regex_traitsIcEELb1ELb0ELb0EEEE10_M_managerERSt9_Any_dataRKS8_St18_Manager_operation
FN:267,285,_ZNSt17_Function_handlerIFbcENSt8__detail11_AnyMatcherINSt7__cxx1112regex_traitsIcEELb1ELb0ELb1EEEE10_M_managerERSt9_Any_dataRKS8_St18_Manager_operation
FN:267,285,_ZNSt17_Function_handlerIFbcENSt8__detail11_AnyMatcherINSt7__cxx1112regex_traitsIcEELb1ELb1ELb0EEEE10_M_managerERSt9_Any_dataRKS8_St18_Manager_operation
FN:267,285,_ZNSt17_Function_handlerIFbcENSt8__detail11_AnyMatcherINSt7__cxx1112regex_traitsIcEELb1ELb1ELb1EEEE10_M_managerERSt9_Any_dataRKS8_St18_Manager_operation
FN:267,285,_ZNSt17_Function_handlerIFbcENSt8__detail12_CharMatcherINSt7__cxx1112regex_traitsIcEELb0ELb0EEEE10_M_managerERSt9_Any_dataRKS8_St18_Manager_operation
FN:267,285,_ZNSt17_Function_handlerIFbcENSt8__detail12_CharMatcherINSt7__cxx1112regex_traitsIcEELb0ELb1EEEE10_M_managerERSt9_Any_dataRKS8_St18_Manager_operation
FN:267,285,_ZNSt17_Function_handlerIFbcENSt8__detail12_CharMatcherINSt7__cxx1112regex_traitsIcEELb1ELb0EEEE10_M_managerERSt9_Any_dataRKS8_St18_Manager_operation
FN:267,285,_ZNSt17_Function_handlerIFbcENSt8__detail12_CharMatcherINSt7__cxx1112regex_traitsIcEELb1ELb1EEEE10_M_managerERSt9_Any_dataRKS8_St18_Manager_operation
FN:267,285,_ZNSt17_Function_handlerIFbcENSt8__detail15_BracketMatcherINSt7__cxx1112regex_traitsIcEELb0ELb0EEEE10_M_managerERSt9_Any_dataRKS8_St18_Manager_operation
FN:267,285,_ZNSt17_Function_handlerIFbcENSt8__detail15_BracketMatcherINSt7__cxx1112regex_traitsIcEELb0ELb1EEEE10_M_managerERSt9_Any_dataRKS8_St18_Manager_operation
FN:267,285,_ZNSt17_Function_handlerIFbcENSt8__detail15_BracketMatcherINSt7__cxx1112regex_traitsIcEELb1ELb0EEEE10_M_managerERSt9_Any_dataRKS8_St18_Manager_operation
FN:267,285,_ZNSt17_Function_handlerIFbcENSt8__detail15_BracketMatcherINSt7__cxx1112regex_traitsIcEELb1ELb1EEEE10_M_managerERSt9_Any_dataRKS8_St18_Manager_operation
FN:267,285,_ZNSt17_Function_handlerIFvN12media_player8services13PlaybackStateEEZNS0_11controllers18PlaybackController14setAudioEngineESt10unique_ptrINS1_15IPlaybackEngineESt14default_deleteIS7_EEEUlS2_E_E10_M_managerERSt9_Any_dataRKSD_St18_Manager_operation
FN:267,285,_ZNSt17_Function_handlerIFvN12media_player8services13PlaybackStateEEZNS0_11controllers18PlaybackControllerC4ESt10shared_ptrINS0_6models10QueueModelEES6_INS7_18PlaybackStateModelEES6_INS7_12HistoryModelEEEUlS2_E_E10_M_managerERSt9_Any_dataRKSG_St18_Manager_operation
FN:267,285,_ZNSt17_Function_handlerIFvRKNSt7__cxx1112basic_stringIcSt11char_traitsIcESaIcEEEEZN12media_player11controllers18HardwareControllerC4ESt10shared_ptrINS9_8services20ISerialCommunicationEESC_INS9_6models18PlaybackStateModelEEEUlS7_E0_E10_M_managerERSt9_Any_dataRKSL_St18_Manager_operation
FN:267,285,_ZNSt17_Function_handlerIFvRKNSt7__cxx1112basic_stringIcSt11char_traitsIcESaIcEEEEZN12media_player11controllers18HardwareControllerC4ESt10shared_ptrINS9_8services20ISerialCommunicationEESC_INS9_6models18PlaybackStateModelEEEUlS7_E_E10_M_managerERSt9_Any_dataRKSL_St18_Manager_operation
FN:267,285,_ZNSt17_Function_handlerIFvRKNSt7__cxx1112basic_stringIcSt11char_traitsIcESaIcEEEEZN12media_player11controllers18PlaybackController14setAudioEngineESt10unique_ptrINS9_8services15IPlaybackEngineESt14default_deleteISE_EEEUlS7_E_E10_M_managerERSt9_Any_dataRKSK_St18_Manager_operation
FN:267,285,_ZNSt17_Function_handlerIFvRKNSt7__cxx1112basic_stringIcSt11char_traitsIcESaIcEEEEZN12media_player11controllers18PlaybackControllerC4ESt10shared_ptrINS9_6models10QueueModelEESC_INSD_18PlaybackStateModelEESC_INSD_12HistoryModelEEEUlS7_E_E10_M_managerERSt9_Any_dataRKSM_St18_Manager_operation
FN:267,285,_ZNSt17_Function_handlerIFvSt6vectorIN12media_player6models14MediaFileModelESaIS3_EEEZNS1_11controllers16SourceControllerC4ESt10shared_ptrINS1_8services12IFileScannerEES9_INS1_12repositories17LibraryRepositoryEES9_INS2_12LibraryModelEEEUlS5_E_E10_M_managerERSt9_Any_dataRKSK_St18_Manager_operation
FN:267,285,_ZNSt17_Function_handlerIFviRKNSt7__cxx1112basic_stringIcSt11char_traitsIcESaIcEEEEZN12media_player11controllers16SourceControllerC4ESt10shared_ptrINS9_8services12IFileScannerEESC_INS9_12repositories17LibraryRepositoryEESC_INS9_6models12LibraryModelEEEUliS7_E_E10_M_managerERSt9_Any_dataRKSO_St18_Manager_operation
FN:267,285,_ZNSt17_Function_handlerIFviiEZN12media_player11controllers18PlaybackController14setAudioEngineESt10unique_ptrINS1_8services15IPlaybackEngineESt14default_deleteIS6_EEEUliiE_E10_M_managerERSt9_Any_dataRKSC_St18_Manager_operation
FN:267,285,_ZNSt17_Function_handlerIFviiEZN12media_player11controllers18PlaybackControllerC4ESt10shared_ptrINS1_6models10QueueModelEES4_INS5_18PlaybackStateModelEES4_INS5_12HistoryModelEEEUliiE_E10_M_managerERSt9_Any_dataRKSE_St18_Manager_operation
FN:267,285,_ZNSt17_Function_handlerIFvvEZN12media_player11controllers18PlaybackController14setAudioEngineESt10unique_ptrINS1_8services15IPlaybackEngineESt14default_deleteIS6_EEEUlvE_E10_M_managerERSt9_Any_dataRKSC_St18_Manager_operation
FN:267,285,_ZNSt17_Function_handlerIFvvEZN12media_player11controllers18PlaybackControllerC4ESt10shared_ptrINS1_6models10QueueModelEES4_INS5_18PlaybackStateModelEES4_INS5_12HistoryModelEEEUlvE_E10_M_managerERSt9_Any_dataRKSE_St18_Manager_operation
FN:288,292,_ZNSt17_Function_handlerIFbcENSt8__detail11_AnyMatcherINSt7__cxx1112regex_traitsIcEELb0ELb0ELb0EEEE9_M_invokeERKSt9_Any_dataOc
FN:288,292,_ZNSt17_Function_handlerIFbcENSt8__detail11_AnyMatcherINSt7__cxx1112regex_traitsIcEELb0ELb0ELb1EEEE9_M_invokeERKSt9_Any_dataOc
FN:288,292,_ZNSt17_Function_handlerIFbcENSt8__detail11_AnyMatcherINSt7__cxx1112regex_traitsIcEELb0ELb1ELb0EEEE9_M_invokeERKSt9_Any_dataOc
FN:288,292,_ZNSt17_Function_handlerIFbcENSt8__detail11_AnyMatcherINSt7__cxx1112regex_traitsIcEELb0ELb1ELb1EEEE9_M_invokeERKSt9_Any_dataOc
FN:288,292,_ZNSt17_Function_handlerIFbcENSt8__detail11_AnyMatcherINSt7__cxx1112regex_traitsIcEELb1ELb0ELb0EEEE9_M_invokeERKSt9_Any_dataOc
FN:288,292,_ZNSt17_Function_handlerIFbcENSt8__detail11_AnyMatcherINSt7__cxx1112regex_traitsIcEELb1ELb0ELb1EEEE9_M_invokeERKSt9_Any_dataOc
FN:288,292,_ZNSt17_Function_handlerIFbcENSt8__detail11_AnyMatcherINSt7__cxx1112regex_traitsIcEELb1ELb1ELb0EEEE9_M_invokeERKSt9_Any_dataOc
FN:288,292,_ZNSt17_Function_handlerIFbcENSt8__detail11_AnyMatcherINSt7__cxx1112regex_traitsIcEELb1ELb1ELb1EEEE9_M_invokeERKSt9_Any_dataOc
FN:288,292,_ZNSt17_Function_handlerIFbcENSt8__detail12_CharMatcherINSt7__cxx1112regex_traitsIcEELb0ELb0EEEE9_M_invokeERKSt9_Any_dataOc
FN:288,292,_ZNSt17_Function_handlerIFbcENSt8__detail12_CharMatcherINSt7__cxx1112regex_traitsIcEELb0ELb1EEEE9_M_invokeERKSt9_Any_dataOc
FN:288,292,_ZNSt17_Function_handlerIFbcENSt8__detail12_CharMatcherINSt7__cxx1112regex_traitsIcEELb1ELb0EEEE9_M_invokeERKSt9_Any_dataOc
FN:288,292,_ZNSt17_Function_handlerIFbcENSt8__detail12_CharMatcherINSt7__cxx1112regex_traitsIcEELb1ELb1EEEE9_M_invokeERKSt9_Any_dataOc
FN:288,292,_ZNSt17_Function_handlerIFbcENSt8__detail15_BracketMatcherINSt7__cxx1112regex_traitsIcEELb0ELb0EEEE9_M_invokeERKSt9_Any_dataOc
FN:288,292,_ZNSt17_Function_handlerIFbcENSt8__detail15_BracketMatcherINSt7__cxx1112regex_traitsIcEELb0ELb1EEEE9_M_invokeERKSt9_Any_dataOc
FN:288,292,_ZNSt17_Function_handlerIFbcENSt8__detail15_BracketMatcherINSt7__cxx1112regex_traitsIcEELb1ELb0EEEE9_M_invokeERKSt9_Any_dataOc
FN:288,292,_ZNSt17_Function_handlerIFbcENSt8__detail15_BracketMatcherINSt7__cxx1112regex_traitsIcEELb1ELb1EEEE9_M_invokeERKSt9_Any_dataOc
FN:288,292,_ZNSt17_Function_handlerIFvN12media_player8services13PlaybackStateEEZNS0_11controllers18PlaybackController14setAudioEngineESt10unique_ptrINS1_15IPlaybackEngineESt14default_deleteIS7_EEEUlS2_E_E9_M_invokeERKSt9_Any_dataOS2_
FN:288,292,_ZNSt17_Function_handlerIFvN12media_player8services13PlaybackStateEEZNS0_11controllers18PlaybackControllerC4ESt10shared_ptrINS0_6models10QueueModelEES6_INS7_18PlaybackStateModelEES6_INS7_12HistoryModelEEEUlS2_E_E9_M_invokeERKSt9_Any_dataOS2_
FN:288,292,_ZNSt17_Function_handlerIFvRKNSt7__cxx1112basic_stringIcSt11char_traitsIcESaIcEEEEZN12media_player11controllers18HardwareControllerC4ESt10shared_ptrINS9_8services20ISerialCommunicationEESC_INS9_6models18PlaybackStateModelEEEUlS7_E0_E9_M_invokeERKSt9_Any_dataS7_
FN:288,292,_ZNSt17_Function_handlerIFvRKNSt7__cxx1112basic_stringIcSt11char_traitsIcESaIcEEEEZN12media_player11controllers18HardwareControllerC4ESt10shared_ptrINS9_8services20ISerialCommunicationEESC_INS9_6models18PlaybackStateModelEEEUlS7_E_E9_M_invokeERKSt9_Any_dataS7_
FN:288,292,_ZNSt17_Function_handlerIFvRKNSt7__cxx1112basic_stringIcSt11char_traitsIcESaIcEEEEZN12media_player11controllers18PlaybackController14setAudioEngineESt10unique_ptrINS9_8services15IPlaybackEngineESt14default_deleteISE_EEEUlS7_E_E9_M_invokeERKSt9_Any_dataS7_
FN:288,292,_ZNSt17_Function_handlerIFvRKNSt7__cxx1112basic_stringIcSt11char_traitsIcESaIcEEEEZN12media_player11controllers18PlaybackControllerC4ESt10shared_ptrINS9_6models10QueueModelEESC_INSD_18PlaybackStateModelEESC_INSD_12HistoryModelEEEUlS7_E_E9_M_invokeERKSt9_Any_dataS7_
FN:288,292,_ZNSt17_Function_handlerIFvSt6vectorIN12media_player6models14MediaFileModelESaIS3_EEEZNS1_11controllers16SourceControllerC4ESt10shared_ptrINS1_8services12IFileScannerEES9_INS1_12repositories17LibraryRepositoryEES9_INS2_12LibraryModelEEEUlS5_E_E9_M_invokeERKSt9_Any_dataOS5_
FN:288,292,_ZNSt17_Function_handlerIFviRKNSt7__cxx1112basic_stringIcSt11char_traitsIcESaIcEEEEZN12media_player11controllers16SourceControllerC4ESt10shared_ptrINS9_8services12IFileScannerEESC_INS9_12repositories17LibraryRepositoryEESC_INS9_6models12LibraryModelEEEUliS7_E_E9_M_invokeERKSt9_Any_dataOiS7_
FN:288,292,_ZNSt17_Function_handlerIFviiEZN12media_player11controllers18PlaybackController14setAudioEngineESt10unique_ptrINS1_8services15IPlaybackEngineESt14default_deleteIS6_EEEUliiE_E9_M_invokeERKSt9_Any_dataOiSF_
FN:288,292,_ZNSt17_Function_handlerIFviiEZN12media_player11controllers18PlaybackControllerC4ESt10shared_ptrINS1_6models10QueueModelEES4_INS5_18PlaybackStateModelEES4_INS5_12HistoryModelEEEUliiE_E9_M_invokeERKSt9_Any_dataOiSH_
FN:288,292,_ZNSt17_Function_handlerIFvvEZN12media_player11controllers18PlaybackController14setAudioEngineESt10unique_ptrINS1_8services15IPlaybackEngineESt14default_deleteIS6_EEEUlvE_E9_M_invokeERKSt9_Any_data
FN:288,292,_ZNSt17_Function_handlerIFvvEZN12media_player11controllers18PlaybackControllerC4ESt10shared_ptrINS1_6models10QueueModelEES4_INS5_18PlaybackStateModelEES4_INS5_12HistoryModelEEEUlvE_E9_M_invokeERKSt9_Any_data
FN:368,369,_ZNSt8functionIFbcEEC2Ev
FN:368,369,_ZNSt8functionIFvN12media_player11controllers14HardwareButtonEEEC2Ev
FN:368,369,_ZNSt8functionIFvRKNSt7__cxx1112basic_stringIcSt11char_traitsIcESaIcEEEEEC2Ev
FN:368,369,_ZNSt8functionIFviEEC2Ev
FN:368,369,_ZNSt8functionIFviRKNSt7__cxx1112basic_stringIcSt11char_traitsIcESaIcEEEEEC2Ev
FN:386,395,_ZNSt8functionIFbcEEC2ERKS1_
FN:386,395,_ZNSt8functionIFvN12media_player11controllers14HardwareButtonEEEC2ERKS4_
FN:386,395,_ZNSt8functionIFvRKNSt7__cxx1112basic_stringIcSt11char_traitsIcESaIcEEEEEC2ERKS9_
FN:386,395,_ZNSt8functionIFviEEC2ERKS1_
FN:386,395,_ZNSt8functionIFviRKNSt7__cxx1112basic_stringIcSt11char_traitsIcESaIcEEEEEC2ERKS9_
FN:404,414,_ZNSt8functionIFbcEEC2EOS1_
FN:435,454,_ZNSt8functionIFbcEEC2INSt8__detail11_AnyMatcherINSt7__cxx1112regex_traitsIcEELb0ELb0ELb0EEEvEEOT_
FN:435,454,_ZNSt8functionIFbcEEC2INSt8__detail11_AnyMatcherINSt7__cxx1112regex_traitsIcEELb0ELb0ELb1EEEvEEOT_
FN:435,454,_ZNSt8functionIFbcEEC2INSt8__detail11_AnyMatcherINSt7__cxx1112regex_traitsIcEELb0ELb1ELb0EEEvEEOT_
FN:435,454,_ZNSt8functionIFbcEEC2INSt8__detail11_AnyMatcherINSt7__cxx1112regex_traitsIcEELb0ELb1ELb1EEEvEEOT_
FN:435,454,_ZNSt8functionIFbcEEC2INSt8__detail11_AnyMatcherINSt7__cxx1112regex_traitsIcEELb1ELb0ELb0EEEvEEOT_
FN:435,454,_ZNSt8functionIFbcEEC2INSt8__detail11_AnyMatcherINSt7__cxx1112regex_traitsIcEELb1ELb0ELb1EEEvEEOT_
FN:435,454,_ZNSt8functionIFbcEEC2INSt8__detail11_AnyMatcherINSt7__cxx1112regex_traitsIcEELb1ELb1ELb0EEEvEEOT_
FN:435,454,_ZNSt8functionIFbcEEC2INSt8__detail11_AnyMatcherINSt7__cxx1112regex_traitsIcEELb1ELb1ELb1EEEvEEOT_
FN:435,454,_ZNSt8functionIFbcEEC2INSt8__detail12_CharMatcherINSt7__cxx1112regex_traitsIcEELb0ELb0EEEvEEOT_
FN:435,454,_ZNSt8functionIFbcEEC2INSt8__detail12_CharMatcherINSt7__cxx1112regex_traitsIcEELb0ELb1EEEvEEOT_
FN:435,454,_ZNSt8functionIFbcEEC2INSt8__detail12_CharMatcherINSt7__cxx1112regex_traitsIcEELb1ELb0EEEvEEOT_
FN:435,454,_ZNSt8functionIFbcEEC2INSt8__detail12_CharMatcherINSt7__cxx1112regex_traitsIcEELb1ELb1EEEvEEOT_
FN:435,454,_ZNSt8functionIFbcEEC2INSt8__detail15_BracketMatcherINSt7__cxx1112regex_traitsIcEELb0ELb0EEEvEEOT_
FN:435,454,_ZNSt8functionIFbcEEC2INSt8__detail15_BracketMatcherINSt7__cxx1112regex_traitsIcEELb0ELb1EEEvEEOT_
FN:435,454,_ZNSt8functionIFbcEEC2INSt8__detail15_BracketMatcherINSt7__cxx1112regex_traitsIcEELb1ELb0EEEvEEOT_
FN:435,454,_ZNSt8functionIFbcEEC2INSt8__detail15_BracketMatcherINSt7__cxx1112regex_traitsIcEELb1ELb1EEEvEEOT_
FN:435,454,_ZNSt8functionIFvN12media_player8services13PlaybackStateEEEC2IZNS0_11controllers18PlaybackController14setAudioEngineESt10unique_ptrINS1_15IPlaybackEngineESt14default_deleteIS9_EEEUlS2_E_vEEOT_
FN:435,454,_ZNSt8functionIFvN12media_player8services13PlaybackStateEEEC2IZNS0_11controllers18PlaybackControllerC4ESt10shared_ptrINS0_6models10QueueModelEES8_INS9_18PlaybackStateModelEES8_INS9_12HistoryModelEEEUlS2_E_vEEOT_
FN:435,454,_ZNSt8functionIFvRKNSt7__cxx1112basic_stringIcSt11char_traitsIcESaIcEEEEEC2IZN12media_player11controllers18HardwareControllerC4ESt10shared_ptrINSB_8services20ISerialCommunicationEESE_INSB_6models18PlaybackStateModelEEEUlS7_E0_vEEOT_
FN:435,454,_ZNSt8functionIFvRKNSt7__cxx1112basic_stringIcSt11char_traitsIcESaIcEEEEEC2IZN12media_player11controllers18HardwareControllerC4ESt10shared_ptrINSB_8services20ISerialCommunicationEESE_INSB_6models18PlaybackStateModelEEEUlS7_E_vEEOT_
FN:435,454,_ZNSt8functionIFvRKNSt7__cxx1112basic_stringIcSt11char_traitsIcESaIcEEEEEC2IZN12media_player11controllers18PlaybackController14setAudioEngineESt10unique_ptrINSB_8services15IPlaybackEngineESt14default_deleteISG_EEEUlS7_E_vEEOT_
FN:435,454,_ZNSt8functionIFvRKNSt7__cxx1112basic_stringIcSt11char_traitsIcESaIcEEEEEC2IZN12media_player11controllers18PlaybackControllerC4ESt10shared_ptrINSB_6models10QueueModelEESE_INSF_18PlaybackStateModelEESE_INSF_12HistoryModelEEEUlS7_E_vEEOT_
FN:435,454,_ZNSt8functionIFvSt6vectorIN12media_player6models14MediaFileModelESaIS3_EEEEC2IZNS1_11controllers16SourceControllerC4ESt10shared_ptrINS1_8services12IFileScannerEESB_INS1_12repositories17LibraryRepositoryEESB_INS2_12LibraryModelEEEUlS5_E_vEEOT_
FN:435,454,_ZNSt8functionIFviRKNSt7__cxx1112basic_stringIcSt11char_traitsIcESaIcEEEEEC2IZN12media_player11controllers16SourceControllerC4ESt10shared_ptrINSB_8services12IFileScannerEESE_INSB_12repositories17LibraryRepositoryEESE_INSB_6models12LibraryModelEEEUliS7_E_vEEOT_
FN:435,454,_ZNSt8functionIFviiEEC2IZN12media_player11controllers18PlaybackController14setAudioEngineESt10unique_ptrINS3_8services15IPlaybackEngineESt14default_deleteIS8_EEEUliiE_vEEOT_
FN:435,454,_ZNSt8functionIFviiEEC2IZN12media_player11controllers18PlaybackControllerC4ESt10shared_ptrINS3_6models10QueueModelEES6_INS7_18PlaybackStateModelEES6_INS7_12HistoryModelEEEUliiE_vEEOT_
FN:435,454,_ZNSt8functionIFvvEEC2IZN12media_player11controllers18PlaybackController14setAudioEngineESt10unique_ptrINS3_8services15IPlaybackEngineESt14default_deleteIS8_EEEUlvE_vEEOT_
FN:435,454,_ZNSt8functionIFvvEEC2IZN12media_player11controllers18PlaybackControllerC4ESt10shared_ptrINS3_6models10QueueModelEES6_INS7_18PlaybackStateModelEES6_INS7_12HistoryModelEEEUlvE_vEEOT_
FN:469,473,_ZNSt8functionIFvN12media_player11controllers14HardwareButtonEEEaSERKS4_
FN:469,473,_ZNSt8functionIFvRKNSt7__cxx1112basic_stringIcSt11char_traitsIcESaIcEEEEEaSERKS9_
FN:469,473,_ZNSt8functionIFviEEaSERKS1_
FN:469,473,_ZNSt8functionIFviRKNSt7__cxx1112basic_stringIcSt11char_traitsIcESaIcEEEEEaSERKS9_
FN:487,491,_ZNSt8functionIFbcEEaSEOS1_
FN:556,561,_ZNSt8functionIFbcEE4swapERS1_
FN:556,561,_ZNSt8functionIFvN12media_player11controllers14HardwareButtonEEE4swapERS4_
FN:556,561,_ZNSt8functionIFvRKNSt7__cxx1112basic_stringIcSt11char_traitsIcESaIcEEEEE4swapERS9_
FN:556,561,_ZNSt8functionIFviEE4swapERS1_
FN:556,561,_ZNSt8functionIFviRKNSt7__cxx1112basic_stringIcSt11char_traitsIcESaIcEEEEE4swapERS9_
FN:573,574,_ZNKSt8functionIFbcEEcvbEv
FN:573,574,_ZNKSt8functionIFvN12media_player11controllers14HardwareButtonEEEcvbEv
FN:573,574,_ZNKSt8functionIFvN12media_player6models13PlaybackStateEEEcvbEv
FN:573,574,_ZNKSt8functionIFvRKNSt7__cxx1112basic_stringIcSt11char_traitsIcESaIcEEEEEcvbEv
FN:573,574,_ZNKSt8functionIFviEEcvbEv
FN:573,574,_ZNKSt8functionIFviRKNSt7__cxx1112basic_stringIcSt11char_traitsIcESaIcEEEEEcvbEv
FN:573,574,_ZNKSt8functionIFvvEEcvbEv
FN:587,592,_ZNKSt8functionIFbcEEclEc
FN:587,592,_ZNKSt8functionIFvN12media_player11controllers14HardwareButtonEEEclES2_
FN:587,592,_ZNKSt8functionIFvN12media_player6models13PlaybackStateEEEclES2_
FN:587,592,_ZNKSt8functionIFvRKNSt7__cxx1112basic_stringIcSt11char_traitsIcESaIcEEEEEclES7_
FN:587,592,_ZNKSt8functionIFviEEclEi
FN:587,592,_ZNKSt8functionIFviRKNSt7__cxx1112basic_stringIcSt11char_traitsIcESaIcEEEEEclEiS7_
FN:587,592,_ZNKSt8functionIFvvEEclEv
FN:85,85,_ZNSt9_Any_data9_M_accessEv
FN:86,86,_ZNKSt9_Any_data9_M_accessEv
FN:90,91,_ZNSt9_Any_data9_M_accessINSt8__detail11_AnyMatcherINSt7__cxx1112regex_traitsIcEELb0ELb0ELb0EEEEERT_v
FN:90,91,_ZNSt9_Any_data9_M_accessINSt8__detail11_AnyMatcherINSt7__cxx1112regex_traitsIcEELb0ELb0ELb1EEEEERT_v
FN:90,91,_ZNSt9_Any_data9_M_accessINSt8__detail11_AnyMatcherINSt7__cxx1112regex_traitsIcEELb0ELb1ELb0EEEEERT_v
FN:90,91,_ZNSt9_Any_data9_M_accessINSt8__detail11_AnyMatcherINSt7__cxx1112regex_traitsIcEELb0ELb1ELb1EEEEERT_v
FN:90,91,_ZNSt9_Any_data9_M_accessINSt8__detail11_AnyMatcherINSt7__cxx1112regex_traitsIcEELb1ELb0ELb0EEEEERT_v
FN:90,91,_ZNSt9_Any_data9_M_accessINSt8__detail11_AnyMatcherINSt7__cxx1112regex_traitsIcEELb1ELb0ELb1EEEEERT_v
FN:90,91,_ZNSt9_Any_data9_M_accessINSt8__detail11_AnyMatcherINSt7__cxx1112regex_traitsIcEELb1ELb1ELb0EEEEERT_v
FN:90,91,_ZNSt9_Any_data9_M_accessINSt8__detail11_AnyMatcherINSt7__cxx1112regex_traitsIcEELb1ELb1ELb1EEEEERT_v
FN:90,91,_ZNSt9_Any_data9_M_accessINSt8__detail12_CharMatcherINSt7__cxx1112regex_traitsIcEELb0ELb0EEEEERT_v
FN:90,91,_ZNSt9_Any_data9_M_accessINSt8__detail12_CharMatcherINSt7__cxx1112regex_traitsIcEELb0ELb1EEEEERT_v
FN:90,91,_ZNSt9_Any_data9_M_accessINSt8__detail12_CharMatcherINSt7__cxx1112regex_traitsIcEELb1ELb0EEEEERT_v
FN:90,91,_ZNSt9_Any_data9_M_accessINSt8__detail12_CharMatcherINSt7__cxx1112regex_traitsIcEELb1ELb1EEEEERT_v
FN:90,91,_ZNSt9_Any_data9_M_accessIPKSt9type_infoEERT_v
FN:90,91,_ZNSt9_Any_data9_M_accessIPNSt8__detail11_AnyMatcherINSt7__cxx1112regex_traitsIcEELb0ELb0ELb0EEEEERT_v
FN:90,91,_ZNSt9_Any_data9_M_accessIPNSt8__detail11_AnyMatcherINSt7__cxx1112regex_traitsIcEELb0ELb0ELb1EEEEERT_v
FN:90,91,_ZNSt9_Any_data9_M_accessIPNSt8__detail11_AnyMatcherINSt7__cxx1112regex_traitsIcEELb0ELb1ELb0EEEEERT_v
FN:90,91,_ZNSt9_Any_data9_M_accessIPNSt8__detail11_AnyMatcherINSt7__cxx1112regex_traitsIcEELb0ELb1ELb1EEEEERT_v
FN:90,91,_ZNSt9_Any_data9_M_accessIPNSt8__detail11_AnyMatcherINSt7__cxx1112regex_traitsIcEELb1ELb0ELb0EEEEERT_v
FN:90,91,_ZNSt9_Any_data9_M_accessIPNSt8__detail11_AnyMatcherINSt7__cxx1112regex_traitsIcEELb1ELb0ELb1EEEEERT_v
FN:90,91,_ZNSt9_Any_data9_M_accessIPNSt8__detail11_AnyMatcherINSt7__cxx1112regex_traitsIcEELb1ELb1ELb0EEEEERT_v
FN:90,91,_ZNSt9_Any_data9_M_accessIPNSt8__detail11_AnyMatcherINSt7__cxx1112regex_traitsIcEELb1ELb1ELb1EEEEERT_v
FN:90,91,_ZNSt9_Any_data9_M_accessIPNSt8__detail12_CharMatcherINSt7__cxx1112regex_traitsIcEELb0ELb0EEEEERT_v
FN:90,91,_ZNSt9_Any_data9_M_accessIPNSt8__detail12_CharMatcherINSt7__cxx1112regex_traitsIcEELb0ELb1EEEEERT_v
FN:90,91,_ZNSt9_Any_data9_M_accessIPNSt8__detail12_CharMatcherINSt7__cxx1112regex_traitsIcEELb1ELb0EEEEERT_v
FN:90,91,_ZNSt9_Any_data9_M_accessIPNSt8__detail12_CharMatcherINSt7__cxx1112regex_traitsIcEELb1ELb1EEEEERT_v
FN:90,91,_ZNSt9_Any_data9_M_accessIPNSt8__detail15_BracketMatcherINSt7__cxx1112regex_traitsIcEELb0ELb0EEEEERT_v
FN:90,91,_ZNSt9_Any_data9_M_accessIPNSt8__detail15_BracketMatcherINSt7__cxx1112regex_traitsIcEELb0ELb1EEEEERT_v
FN:90,91,_ZNSt9_Any_data9_M_accessIPNSt8__detail15_BracketMatcherINSt7__cxx1112regex_traitsIcEELb1ELb0EEEEERT_v
FN:90,91,_ZNSt9_Any_data9_M_accessIPNSt8__detail15_BracketMatcherINSt7__cxx1112regex_traitsIcEELb1ELb1EEEEERT_v
FN:90,91,_ZNSt9_Any_data9_M_accessIPZN12media_player11controllers16SourceControllerC4ESt10shared_ptrINS1_8services12IFileScannerEES4_INS1_12repositories17LibraryRepositoryEES4_INS1_6models12LibraryModelEEEUlSt6vectorINSB_14MediaFileModelESaISF_EEE_EERT_v
FN:90,91,_ZNSt9_Any_data9_M_accessIPZN12media_player11controllers16SourceControllerC4ESt10shared_ptrINS1_8services12IFileScannerEES4_INS1_12repositories17LibraryRepositoryEES4_INS1_6models12LibraryModelEEEUliRKNSt7__cxx1112basic_stringIcSt11char_traitsIcESaIcEEEE_EERT_v
FN:90,91,_ZNSt9_Any_data9_M_accessIPZN12media_player11controllers18HardwareControllerC4ESt10shared_ptrINS1_8services20ISerialCommunicationEES4_INS1_6models18PlaybackStateModelEEEUlRKNSt7__cxx1112basic_stringIcSt11char_traitsIcESaIcEEEE0_EERT_v
FN:90,91,_ZNSt9_Any_data9_M_accessIPZN12media_player11controllers18HardwareControllerC4ESt10shared_ptrINS1_8services20ISerialCommunicationEES4_INS1_6models18PlaybackStateModelEEEUlRKNSt7__cxx1112basic_stringIcSt11char_traitsIcESaIcEEEE_EERT_v
FN:90,91,_ZNSt9_Any_data9_M_accessIPZN12media_player11controllers18PlaybackController14setAudioEngineESt10unique_ptrINS1_8services15IPlaybackEngineESt14default_deleteIS6_EEEUlNS5_13PlaybackStateEE_EERT_v
FN:90,91,_ZNSt9_Any_data9_M_accessIPZN12media_player11controllers18PlaybackController14setAudioEngineESt10unique_ptrINS1_8services15IPlaybackEngineESt14default_deleteIS6_EEEUlRKNSt7__cxx1112basic_stringIcSt11char_traitsIcESaIcEEEE_EERT_v
FN:90,91,_ZNSt9_Any_data9_M_accessIPZN12media_player11controllers18PlaybackController14setAudioEngineESt10unique_ptrINS1_8services15IPlaybackEngineESt14default_deleteIS6_EEEUliiE_EERT_v
FN:90,91,_ZNSt9_Any_data9_M_accessIPZN12media_player11controllers18PlaybackController14setAudioEngineESt10unique_ptrINS1_8services15IPlaybackEngineESt14default_deleteIS6_EEEUlvE_EERT_v
FN:90,91,_ZNSt9_Any_data9_M_accessIPZN12media_player11controllers18PlaybackControllerC4ESt10shared_ptrINS1_6models10QueueModelEES4_INS5_18PlaybackStateModelEES4_INS5_12HistoryModelEEEUlNS1_8services13PlaybackStateEE_EERT_v
FN:90,91,_ZNSt9_Any_data9_M_accessIPZN12media_player11controllers18PlaybackControllerC4ESt10shared_ptrINS1_6models10QueueModelEES4_INS5_18PlaybackStateModelEES4_INS5_12HistoryModelEEEUlRKNSt7__cxx1112basic_stringIcSt11char_traitsIcESaIcEEEE_EERT_v
FN:90,91,_ZNSt9_Any_data9_M_accessIPZN12media_player11controllers18PlaybackControllerC4ESt10shared_ptrINS1_6models10QueueModelEES4_INS5_18PlaybackStateModelEES4_INS5_12HistoryModelEEEUliiE_EERT_v
FN:90,91,_ZNSt9_Any_data9_M_accessIPZN12media_player11controllers18PlaybackControllerC4ESt10shared_ptrINS1_6models10QueueModelEES4_INS5_18PlaybackStateModelEES4_INS5_12HistoryModelEEEUlvE_EERT_v
FN:90,91,_ZNSt9_Any_data9_M_accessIZN12media_player11controllers16SourceControllerC4ESt10shared_ptrINS1_8services12IFileScannerEES4_INS1_12repositories17LibraryRepositoryEES4_INS1_6models12LibraryModelEEEUlSt6vectorINSB_14MediaFileModelESaISF_EEE_EERT_v
FN:90,91,_ZNSt9_Any_data9_M_accessIZN12media_player11controllers16SourceControllerC4ESt10shared_ptrINS1_8services12IFileScannerEES4_INS1_12repositories17LibraryRepositoryEES4_INS1_6models12LibraryModelEEEUliRKNSt7__cxx1112basic_stringIcSt11char_traitsIcESaIcEEEE_EERT_v
FN:90,91,_ZNSt9_Any_data9_M_accessIZN12media_player11controllers18HardwareControllerC4ESt10shared_ptrINS1_8services20ISerialCommunicationEES4_INS1_6models18PlaybackStateModelEEEUlRKNSt7__cxx1112basic_stringIcSt11char_traitsIcESaIcEEEE0_EERT_v
FN:90,91,_ZNSt9_Any_data9_M_accessIZN12media_player11controllers18HardwareControllerC4ESt10shared_ptrINS1_8services20ISerialCommunicationEES4_INS1_6models18PlaybackStateModelEEEUlRKNSt7__cxx1112basic_stringIcSt11char_traitsIcESaIcEEEE_EERT_v
FN:90,91,_ZNSt9_Any_data9_M_accessIZN12media_player11controllers18PlaybackController14setAudioEngineESt10unique_ptrINS1_8services15IPlaybackEngineESt14default_deleteIS6_EEEUlNS5_13PlaybackStateEE_EERT_v
FN:90,91,_ZNSt9_Any_data9_M_accessIZN12media_player11controllers18PlaybackController14setAudioEngineESt10unique_ptrINS1_8services15IPlaybackEngineESt14default_deleteIS6_EEEUlRKNSt7__cxx1112basic_stringIcSt11char_traitsIcESaIcEEEE_EERT_v
FN:90,91,_ZNSt9_Any_data9_M_accessIZN12media_player11controllers18PlaybackController14setAudioEngineESt10unique_ptrINS1_8services15IPlaybackEngineESt14default_deleteIS6_EEEUliiE_EERT_v
FN:90,91,_ZNSt9_Any_data9_M_accessIZN12media_player11controllers18PlaybackController14setAudioEngineESt10unique_ptrINS1_8services15IPlaybackEngineESt14default_deleteIS6_EEEUlvE_EERT_v
FN:90,91,_ZNSt9_Any_data9_M_accessIZN12media_player11controllers18PlaybackControllerC4ESt10shared_ptrINS1_6models10QueueModelEES4_INS5_18PlaybackStateModelEES4_INS5_12HistoryModelEEEUlNS1_8services13PlaybackStateEE_EERT_v
FN:90,91,_ZNSt9_Any_data9_M_accessIZN12media_player11controllers18PlaybackControllerC4ESt10shared_ptrINS1_6models10QueueModelEES4_INS5_18PlaybackStateModelEES4_INS5_12HistoryModelEEEUlRKNSt7__cxx1112basic_stringIcSt11char_traitsIcESaIcEEEE_EERT_v
FN:90,91,_ZNSt9_Any_data9_M_accessIZN12media_player11controllers18PlaybackControllerC4ESt10shared_ptrINS1_6models10QueueModelEES4_INS5_18PlaybackStateModelEES4_INS5_12HistoryModelEEEUliiE_EERT_v
FN:90,91,_ZNSt9_Any_data9_M_accessIZN12media_player11controllers18PlaybackControllerC4ESt10shared_ptrINS1_6models10QueueModelEES4_INS5_18PlaybackStateModelEES4_INS5_12HistoryModelEEEUlvE_EERT_v
FN:95,96,_ZNKSt9_Any_data9_M_accessINSt8__detail11_AnyMatcherINSt7__cxx1112regex_traitsIcEELb0ELb0ELb0EEEEERKT_v
FN:95,96,_ZNKSt9_Any_data9_M_accessINSt8__detail11_AnyMatcherINSt7__cxx1112regex_traitsIcEELb0ELb0ELb1EEEEERKT_v
FN:95,96,_ZNKSt9_Any_data9_M_accessINSt8__detail11_AnyMatcherINSt7__cxx1112regex_traitsIcEELb0ELb1ELb0EEEEERKT_v
FN:95,96,_ZNKSt9_Any_data9_M_accessINSt8__detail11_AnyMatcherINSt7__cxx1112regex_traitsIcEELb0ELb1ELb1EEEEERKT_v
FN:95,96,_ZNKSt9_Any_data9_M_accessINSt8__detail11_AnyMatcherINSt7__cxx1112regex_traitsIcEELb1ELb0ELb0EEEEERKT_v
FN:95,96,_ZNKSt9_Any_data9_M_accessINSt8__detail11_AnyMatcherINSt7__cxx1112regex_traitsIcEELb1ELb0ELb1EEEEERKT_v
FN:95,96,_ZNKSt9_Any_data9_M_accessINSt8__detail11_AnyMatcherINSt7__cxx1112regex_traitsIcEELb1ELb1ELb0EEEEERKT_v
FN:95,96,_ZNKSt9_Any_data9_M_accessINSt8__detail11_AnyMatcherINSt7__cxx1112regex_traitsIcEELb1ELb1ELb1EEEEERKT_v
FN:95,96,_ZNKSt9_Any_data9_M_accessINSt8__detail12_CharMatcherINSt7__cxx1112regex_traitsIcEELb0ELb0EEEEERKT_v
FN:95,96,_ZNKSt9_Any_data9_M_accessINSt8__detail12_CharMatcherINSt7__cxx1112regex_traitsIcEELb0ELb1EEEEERKT_v
FN:95,96,_ZNKSt9_Any_data9_M_accessINSt8__detail12_CharMatcherINSt7__cxx1112regex_traitsIcEELb1ELb0EEEEERKT_v
FN:95,96,_ZNKSt9_Any_data9_M_accessINSt8__detail12_CharMatcherINSt7__cxx1112regex_traitsIcEELb1ELb1EEEEERKT_v
FN:95,96,_ZNKSt9_Any_data9_M_accessIPNSt8__detail15_BracketMatcherINSt7__cxx1112regex_traitsIcEELb0ELb0EEEEERKT_v
FN:95,96,_ZNKSt9_Any_data9_M_accessIPNSt8__detail15_BracketMatcherINSt7__cxx1112regex_traitsIcEELb0ELb1EEEEERKT_v
FN:95,96,_ZNKSt9_Any_data9_M_accessIPNSt8__detail15_BracketMatcherINSt7__cxx1112regex_traitsIcEELb1ELb0EEEEERKT_v
FN:95,96,_ZNKSt9_Any_data9_M_accessIPNSt8__detail15_BracketMatcherINSt7__cxx1112regex_traitsIcEELb1ELb1EEEEERKT_v
FN:95,96,_ZNKSt9_Any_data9_M_accessIZN12media_player11controllers16SourceControllerC4ESt10shared_ptrINS1_8services12IFileScannerEES4_INS1_12repositories17LibraryRepositoryEES4_INS1_6models12LibraryModelEEEUlSt6vectorINSB_14MediaFileModelESaISF_EEE_EERKT_v
FN:95,96,_ZNKSt9_Any_data9_M_accessIZN12media_player11controllers16SourceControllerC4ESt10shared_ptrINS1_8services12IFileScannerEES4_INS1_12repositories17LibraryRepositoryEES4_INS1_6models12LibraryModelEEEUliRKNSt7__cxx1112basic_stringIcSt11char_traitsIcESaIcEEEE_EERKT_v
FN:95,96,_ZNKSt9_Any_data9_M_accessIZN12media_player11controllers18HardwareControllerC4ESt10shared_ptrINS1_8services20ISerialCommunicationEES4_INS1_6models18PlaybackStateModelEEEUlRKNSt7__cxx1112basic_stringIcSt11char_traitsIcESaIcEEEE0_EERKT_v
FN:95,96,_ZNKSt9_Any_data9_M_accessIZN12media_player11controllers18HardwareControllerC4ESt10shared_ptrINS1_8services20ISerialCommunicationEES4_INS1_6models18PlaybackStateModelEEEUlRKNSt7__cxx1112basic_stringIcSt11char_traitsIcESaIcEEEE_EERKT_v
FN:95,96,_ZNKSt9_Any_data9_M_accessIZN12media_player11controllers18PlaybackController14setAudioEngineESt10unique_ptrINS1_8services15IPlaybackEngineESt14default_deleteIS6_EEEUlNS5_13PlaybackStateEE_EERKT_v
FN:95,96,_ZNKSt9_Any_data9_M_accessIZN12media_player11controllers18PlaybackController14setAudioEngineESt10unique_ptrINS1_8services15IPlaybackEngineESt14default_deleteIS6_EEEUlRKNSt7__cxx1112basic_stringIcSt11char_traitsIcESaIcEEEE_EERKT_v
FN:95,96,_ZNKSt9_Any_data9_M_accessIZN12media_player11controllers18PlaybackController14setAudioEngineESt10unique_ptrINS1_8services15IPlaybackEngineESt14default_deleteIS6_EEEUliiE_EERKT_v
FN:95,96,_ZNKSt9_Any_data9_M_accessIZN12media_player11controllers18PlaybackController14setAudioEngineESt10unique_ptrINS1_8services15IPlaybackEngineESt14default_deleteIS6_EEEUlvE_EERKT_v
FN:95,96,_ZNKSt9_Any_data9_M_accessIZN12media_player11controllers18PlaybackControllerC4ESt10shared_ptrINS1_6models10QueueModelEES4_INS5_18PlaybackStateModelEES4_INS5_12HistoryModelEEEUlNS1_8services13PlaybackStateEE_EERKT_v
FN:95,96,_ZNKSt9_Any_data9_M_accessIZN12media_player11controllers18PlaybackControllerC4ESt10shared_ptrINS1_6models10QueueModelEES4_INS5_18PlaybackStateModelEES4_INS5_12HistoryModelEEEUlRKNSt7__cxx1112basic_stringIcSt11char_traitsIcESaIcEEEE_EERKT_v
FN:95,96,_ZNKSt9_Any_data9_M_accessIZN12media_player11controllers18PlaybackControllerC4ESt10shared_ptrINS1_6models10QueueModelEES4_INS5_18PlaybackStateModelEES4_INS5_12HistoryModelEEEUliiE_EERKT_v
FN:95,96,_ZNKSt9_Any_data9_M_accessIZN12media_player11controllers18PlaybackControllerC4ESt10shared_ptrINS1_6models10QueueModelEES4_INS5_18PlaybackStateModelEES4_INS5_12HistoryModelEEEUlvE_EERKT_v
FNDA:0,_ZNSt14_Function_base13_Base_managerINSt8__detail11_AnyMatcherINSt7__cxx1112regex_traitsIcEELb0ELb0ELb0EEEE14_M_get_pointerERKSt9_Any_data
FNDA:0,_ZNSt14_Function_base13_Base_managerINSt8__detail11_AnyMatcherINSt7__cxx1112regex_traitsIcEELb0ELb0ELb1EEEE14_M_get_pointerERKSt9_Any_data
FNDA:0,_ZNSt14_Function_base13_Base_managerINSt8__detail11_AnyMatcherINSt7__cxx1112regex_traitsIcEELb0ELb1ELb0EEEE14_M_get_pointerERKSt9_Any_data
FNDA:0,_ZNSt14_Function_base13_Base_managerINSt8__detail11_AnyMatcherINSt7__cxx1112regex_traitsIcEELb0ELb1ELb1EEEE14_M_get_pointerERKSt9_Any_data
FNDA:0,_ZNSt14_Function_base13_Base_managerINSt8__detail11_AnyMatcherINSt7__cxx1112regex_traitsIcEELb1ELb0ELb0EEEE14_M_get_pointerERKSt9_Any_data
FNDA:0,_ZNSt14_Function_base13_Base_managerINSt8__detail11_AnyMatcherINSt7__cxx1112regex_traitsIcEELb1ELb0ELb1EEEE14_M_get_pointerERKSt9_Any_data
FNDA:0,_ZNSt14_Function_base13_Base_managerINSt8__detail11_AnyMatcherINSt7__cxx1112regex_traitsIcEELb1ELb1ELb0EEEE14_M_get_pointerERKSt9_Any_data
FNDA:0,_ZNSt14_Function_base13_Base_managerINSt8__detail11_AnyMatcherINSt7__cxx1112regex_traitsIcEELb1ELb1ELb1EEEE14_M_get_pointerERKSt9_Any_data
FNDA:104,_ZNSt14_Function_base13_Base_managerINSt8__detail12_CharMatcherINSt7__cxx1112regex_traitsIcEELb0ELb0EEEE14_M_get_pointerERKSt9_Any_data
FNDA:0,_ZNSt14_Function_base13_Base_managerINSt8__detail12_CharMatcherINSt7__cxx1112regex_traitsIcEELb0ELb1EEEE14_M_get_pointerERKSt9_Any_data
FNDA:0,_ZNSt14_Function_base13_Base_managerINSt8__detail12_CharMatcherINSt7__cxx1112regex_traitsIcEELb1ELb0EEEE14_M_get_pointerERKSt9_Any_data
FNDA:0,_ZNSt14_Function_base13_Base_managerINSt8__detail12_CharMatcherINSt7__cxx1112regex_traitsIcEELb1ELb1EEEE14_M_get_pointerERKSt9_Any_data
FNDA:95,_ZNSt14_Function_base13_Base_managerINSt8__detail15_BracketMatcherINSt7__cxx1112regex_traitsIcEELb0ELb0EEEE14_M_get_pointerERKSt9_Any_data
FNDA:0,_ZNSt14_Function_base13_Base_managerINSt8__detail15_BracketMatcherINSt7__cxx1112regex_traitsIcEELb0ELb1EEEE14_M_get_pointerERKSt9_Any_data
FNDA:0,_ZNSt14_Function_base13_Base_managerINSt8__detail15_BracketMatcherINSt7__cxx1112regex_traitsIcEELb1ELb0EEEE14_M_get_pointerERKSt9_Any_data
FNDA:0,_ZNSt14_Function_base13_Base_managerINSt8__detail15_BracketMatcherINSt7__cxx1112regex_traitsIcEELb1ELb1EEEE14_M_get_pointerERKSt9_Any_data
FNDA:4,_ZNSt14_Function_base13_Base_managerIZN12media_player11controllers16SourceControllerC4ESt10shared_ptrINS1_8services12IFileScannerEES4_INS1_12repositories17LibraryRepositoryEES4_INS1_6models12LibraryModelEEEUlSt6vectorINSB_14MediaFileModelESaISF_EEE_E14_M_get_pointerERKSt9_Any_data
FNDA:4,_ZNSt14_Function_base13_Base_managerIZN12media_player11controllers16SourceControllerC4ESt10shared_ptrINS1_8services12IFileScannerEES4_INS1_12repositories17LibraryRepositoryEES4_INS1_6models12LibraryModelEEEUliRKNSt7__cxx1112basic_stringIcSt11char_traitsIcESaIcEEEE_E14_M_get_pointerERKSt9_Any_data
FNDA:15,_ZNSt14_Function_base13_Base_managerIZN12media_player11controllers18HardwareControllerC4ESt10shared_ptrINS1_8services20ISerialCommunicationEES4_INS1_6models18PlaybackStateModelEEEUlRKNSt7__cxx1112basic_stringIcSt11char_traitsIcESaIcEEEE0_E14_M_get_pointerERKSt9_Any_data
FNDA:33,_ZNSt14_Function_base13_Base_managerIZN12media_player11controllers18HardwareControllerC4ESt10shared_ptrINS1_8services20ISerialCommunicationEES4_INS1_6models18PlaybackStateModelEEEUlRKNSt7__cxx1112basic_stringIcSt11char_traitsIcESaIcEEEE_E14_M_get_pointerERKSt9_Any_data
FNDA:174,_ZNSt14_Function_base13_Base_managerIZN12media_player11controllers18PlaybackController14setAudioEngineESt10unique_ptrINS1_8services15IPlaybackEngineESt14default_deleteIS6_EEEUlNS5_13PlaybackStateEE_E14_M_get_pointerERKSt9_Any_data
FNDA:42,_ZNSt14_Function_base13_Base_managerIZN12media_player11controllers18PlaybackController14setAudioEngineESt10unique_ptrINS1_8services15IPlaybackEngineESt14default_deleteIS6_EEEUlRKNSt7__cxx1112basic_stringIcSt11char_traitsIcESaIcEEEE_E14_M_get_pointerERKSt9_Any_data
FNDA:43,_ZNSt14_Function_base13_Base_managerIZN12media_player11controllers18PlaybackController14setAudioEngineESt10unique_ptrINS1_8services15IPlaybackEngineESt14default_deleteIS6_EEEUliiE_E14_M_get_pointerERKSt9_Any_data
FNDA:50,_ZNSt14_Function_base13_Base_managerIZN12media_player11controllers18PlaybackController14setAudioEngineESt10unique_ptrINS1_8services15IPlaybackEngineESt14default_deleteIS6_EEEUlvE_E14_M_get_pointerERKSt9_Any_data
FNDA:66,_ZNSt14_Function_base13_Base_managerIZN12media_player11controllers18PlaybackControllerC4ESt10shared_ptrINS1_6models10QueueModelEES4_INS5_18PlaybackStateModelEES4_INS5_12HistoryModelEEEUlNS1_8services13PlaybackStateEE_E14_M_get_pointerERKSt9_Any_data
FNDA:66,_ZNSt14_Function_base13_Base_managerIZN12media_player11controllers18PlaybackControllerC4ESt10shared_ptrINS1_6models10QueueModelEES4_INS5_18PlaybackStateModelEES4_INS5_12HistoryModelEEEUlRKNSt7__cxx1112basic_stringIcSt11char_traitsIcESaIcEEEE_E14_M_get_pointerERKSt9_Any_data
FNDA:66,_ZNSt14_Function_base13_Base_managerIZN12media_player11controllers18PlaybackControllerC4ESt10shared_ptrINS1_6models10QueueModelEES4_INS5_18PlaybackStateModelEES4_INS5_12HistoryModelEEEUliiE_E14_M_get_pointerERKSt9_Any_data
FNDA:66,_ZNSt14_Function_base13_Base_managerIZN12media_player11controllers18PlaybackControllerC4ESt10shared_ptrINS1_6models10QueueModelEES4_INS5_18PlaybackStateModelEES4_INS5_12HistoryModelEEEUlvE_E14_M_get_pointerERKSt9_Any_data
FNDA:0,_ZNSt14_Function_base13_Base_managerINSt8__detail11_AnyMatcherINSt7__cxx1112regex_traitsIcEELb0ELb0ELb0EEEE9_M_createIRKS6_EEvRSt9_Any_dataOT_St17integral_constantIbLb1EE
FNDA:0,_ZNSt14_Function_base13_Base_managerINSt8__detail11_AnyMatcherINSt7__cxx1112regex_traitsIcEELb0ELb0ELb0EEEE9_M_createIS6_EEvRSt9_Any_dataOT_St17integral_constantIbLb1EE
FNDA:0,_ZNSt14_Function_base13_Base_managerINSt8__detail11_AnyMatcherINSt7__cxx1112regex_traitsIcEELb0ELb0ELb1EEEE9_M_createIRKS6_EEvRSt9_Any_dataOT_St17integral_constantIbLb1EE
FNDA:0,_ZNSt14_Function_base13_Base_managerINSt8__detail11_AnyMatcherINSt7__cxx1112regex_traitsIcEELb0ELb0ELb1EEEE9_M_createIS6_EEvRSt9_Any_dataOT_St17integral_constantIbLb1EE
FNDA:0,_ZNSt14_Function_base13_Base_managerINSt8__detail11_AnyMatcherINSt7__cxx1112regex_traitsIcEELb0ELb1ELb0EEEE9_M_createIRKS6_EEvRSt9_Any_dataOT_St17integral_constantIbLb1EE
FNDA:0,_ZNSt14_Function_base13_Base_managerINSt8__detail11_AnyMatcherINSt7__cxx1112regex_traitsIcEELb0ELb1ELb0EEEE9_M_createIS6_EEvRSt9_Any_dataOT_St17integral_constantIbLb1EE
FNDA:0,_ZNSt14_Function_base13_Base_managerINSt8__detail11_AnyMatcherINSt7__cxx1112regex_traitsIcEELb0ELb1ELb1EEEE9_M_createIRKS6_EEvRSt9_Any_dataOT_St17integral_constantIbLb1EE
FNDA:0,_ZNSt14_Function_base13_Base_managerINSt8__detail11_AnyMatcherINSt7__cxx1112regex_traitsIcEELb0ELb1ELb1EEEE9_M_createIS6_EEvRSt9_Any_dataOT_St17integral_constantIbLb1EE
FNDA:0,_ZNSt14_Function_base13_Base_managerINSt8__detail11_AnyMatcherINSt7__cxx1112regex_traitsIcEELb1ELb0ELb0EEEE9_M_createIRKS6_EEvRSt9_Any_dataOT_St17integral_constantIbLb1EE
FNDA:0,_ZNSt14_Function_base13_Base_managerINSt8__detail11_AnyMatcherINSt7__cxx1112regex_traitsIcEELb1ELb0ELb0EEEE9_M_createIS6_EEvRSt9_Any_dataOT_St17integral_constantIbLb1EE
FNDA:0,_ZNSt14_Function_base13_Base_managerINSt8__detail11_AnyMatcherINSt7__cxx1112regex_traitsIcEELb1ELb0ELb1EEEE9_M_createIRKS6_EEvRSt9_Any_dataOT_St17integral_constantIbLb1EE
FNDA:0,_ZNSt14_Function_base13_Base_managerINSt8__detail11_AnyMatcherINSt7__cxx1112regex_traitsIcEELb1ELb0ELb1EEEE9_M_createIS6_EEvRSt9_Any_dataOT_St17integral_constantIbLb1EE
FNDA:0,_ZNSt14_Function_base13_Base_managerINSt8__detail11_AnyMatcherINSt7__cxx1112regex_traitsIcEELb1ELb1ELb0EEEE9_M_createIRKS6_EEvRSt9_Any_dataOT_St17integral_constantIbLb1EE
FNDA:0,_ZNSt14_Function_base13_Base_managerINSt8__detail11_AnyMatcherINSt7__cxx1112regex_traitsIcEELb1ELb1ELb0EEEE9_M_createIS6_EEvRSt9_Any_dataOT_St17integral_constantIbLb1EE
FNDA:0,_ZNSt14_Function_base13_Base_managerINSt8__detail11_AnyMatcherINSt7__cxx1112regex_traitsIcEELb1ELb1ELb1EEEE9_M_createIRKS6_EEvRSt9_Any_dataOT_St17integral_constantIbLb1EE
FNDA:0,_ZNSt14_Function_base13_Base_managerINSt8__detail11_AnyMatcherINSt7__cxx1112regex_traitsIcEELb1ELb1ELb1EEEE9_M_createIS6_EEvRSt9_Any_dataOT_St17integral_constantIbLb1EE
FNDA:0,_ZNSt14_Function_base13_Base_managerINSt8__detail12_CharMatcherINSt7__cxx1112regex_traitsIcEELb0ELb0EEEE9_M_createIRKS6_EEvRSt9_Any_dataOT_St17integral_constantIbLb1EE
FNDA:12,_ZNSt14_Function_base13_Base_managerINSt8__detail12_CharMatcherINSt7__cxx1112regex_traitsIcEELb0ELb0EEEE9_M_createIS6_EEvRSt9_Any_dataOT_St17integral_constantIbLb1EE
FNDA:0,_ZNSt14_Function_base13_Base_managerINSt8__detail12_CharMatcherINSt7__cxx1112regex_traitsIcEELb0ELb1EEEE9_M_createIRKS6_EEvRSt9_Any_dataOT_St17integral_constantIbLb1EE
FNDA:0,_ZNSt14_Function_base13_Base_managerINSt8__detail12_CharMatcherINSt7__cxx1112regex_traitsIcEELb0ELb1EEEE9_M_createIS6_EEvRSt9_Any_dataOT_St17integral_constantIbLb1EE
FNDA:0,_ZNSt14_Function_base13_Base_managerINSt8__detail12_CharMatcherINSt7__cxx1112regex_traitsIcEELb1ELb0EEEE9_M_createIRKS6_EEvRSt9_Any_dataOT_St17integral_constantIbLb1EE
FNDA:0,_ZNSt14_Function_base13_Base_managerINSt8__detail12_CharMatcherINSt7__cxx1112regex_traitsIcEELb1ELb0EEEE9_M_createIS6_EEvRSt9_Any_dataOT_St17integral_constantIbLb1EE
FNDA:0,_ZNSt14_Function_base13_Base_managerINSt8__detail12_CharMatcherINSt7__cxx1112regex_traitsIcEELb1ELb1EEEE9_M_createIRKS6_EEvRSt9_Any_dataOT_St17integral_constantIbLb1EE
FNDA:0,_ZNSt14_Function_base13_Base_managerINSt8__detail12_CharMatcherINSt7__cxx1112regex_traitsIcEELb1ELb1EEEE9_M_createIS6_EEvRSt9_Any_dataOT_St17integral_constantIbLb1EE
FNDA:2,_ZNSt14_Function_base13_Base_managerIZN12media_player11controllers16SourceControllerC4ESt10shared_ptrINS1_8services12IFileScannerEES4_INS1_12repositories17LibraryRepositoryEES4_INS1_6models12LibraryModelEEEUlSt6vectorINSB_14MediaFileModelESaISF_EEE_E9_M_createIRKSI_EEvRSt9_Any_dataOT_St17integral_constantIbLb1EE
FNDA:19,_ZNSt14_Function_base13_Base_managerIZN12media_player11controllers16SourceControllerC4ESt10shared_ptrINS1_8services12IFileScannerEES4_INS1_12repositories17LibraryRepositoryEES4_INS1_6models12LibraryModelEEEUlSt6vectorINSB_14MediaFileModelESaISF_EEE_E9_M_createISI_EEvRSt9_Any_dataOT_St17integral_constantIbLb1EE
FNDA:2,_ZNSt14_Function_base13_Base_managerIZN12media_player11controllers16SourceControllerC4ESt10shared_ptrINS1_8services12IFileScannerEES4_INS1_12repositories17LibraryRepositoryEES4_INS1_6models12LibraryModelEEEUliRKNSt7__cxx1112basic_stringIcSt11char_traitsIcESaIcEEEE_E9_M_createIRKSM_EEvRSt9_Any_dataOT_St17integral_constantIbLb1EE
FNDA:19,_ZNSt14_Function_base13_Base_managerIZN12media_player11controllers16SourceControllerC4ESt10shared_ptrINS1_8services12IFileScannerEES4_INS1_12repositories17LibraryRepositoryEES4_INS1_6models12LibraryModelEEEUliRKNSt7__cxx1112basic_stringIcSt11char_traitsIcESaIcEEEE_E9_M_createISM_EEvRSt9_Any_dataOT_St17integral_constantIbLb1EE
FNDA:14,_ZNSt14_Function_base13_Base_managerIZN12media_player11controllers18HardwareControllerC4ESt10shared_ptrINS1_8services20ISerialCommunicationEES4_INS1_6models18PlaybackStateModelEEEUlRKNSt7__cxx1112basic_stringIcSt11char_traitsIcESaIcEEEE0_E9_M_createIRKSJ_EEvRSt9_Any_dataOT_St17integral_constantIbLb1EE
FNDA:28,_ZNSt14_Function_base13_Base_managerIZN12media_player11controllers18HardwareControllerC4ESt10shared_ptrINS1_8services20ISerialCommunicationEES4_INS1_6models18PlaybackStateModelEEEUlRKNSt7__cxx1112basic_stringIcSt11char_traitsIcESaIcEEEE0_E9_M_createISJ_EEvRSt9_Any_dataOT_St17integral_constantIbLb1EE
FNDA:14,_ZNSt14_Function_base13_Base_managerIZN12media_player11controllers18HardwareControllerC4ESt10shared_ptrINS1_8services20ISerialCommunicationEES4_INS1_6models18PlaybackStateModelEEEUlRKNSt7__cxx1112basic_stringIcSt11char_traitsIcESaIcEEEE_E9_M_createIRKSJ_EEvRSt9_Any_dataOT_St17integral_constantIbLb1EE
FNDA:28,_ZNSt14_Function_base13_Base_managerIZN12media_player11controllers18HardwareControllerC4ESt10shared_ptrINS1_8services20ISerialCommunicationEES4_INS1_6models18PlaybackStateModelEEEUlRKNSt7__cxx1112basic_stringIcSt11char_traitsIcESaIcEEEE_E9_M_createISJ_EEvRSt9_Any_dataOT_St17integral_constantIbLb1EE
FNDA:41,_ZNSt14_Function_base13_Base_managerIZN12media_player11controllers18PlaybackController14setAudioEngineESt10unique_ptrINS1_8services15IPlaybackEngineESt14default_deleteIS6_EEEUlNS5_13PlaybackStateEE_E9_M_createIRKSB_EEvRSt9_Any_dataOT_St17integral_constantIbLb1EE
FNDA:41,_ZNSt14_Function_base13_Base_managerIZN12media_player11controllers18PlaybackController14setAudioEngineESt10unique_ptrINS1_8services15IPlaybackEngineESt14default_deleteIS6_EEEUlNS5_13PlaybackStateEE_E9_M_createISB_EEvRSt9_Any_dataOT_St17integral_constantIbLb1EE
FNDA:41,_ZNSt14_Function_base13_Base_managerIZN12media_player11controllers18PlaybackController14setAudioEngineESt10unique_ptrINS1_8services15IPlaybackEngineESt14default_deleteIS6_EEEUlRKNSt7__cxx1112basic_stringIcSt11char_traitsIcESaIcEEEE_E9_M_createIRKSI_EEvRSt9_Any_dataOT_St17integral_constantIbLb1EE
FNDA:41,_ZNSt14_Function_base13_Base_managerIZN12media_player11controllers18PlaybackController14setAudioEngineESt10unique_ptrINS1_8services15IPlaybackEngineESt14default_deleteIS6_EEEUlRKNSt7__cxx1112basic_stringIcSt11char_traitsIcESaIcEEEE_E9_M_createISI_EEvRSt9_Any_dataOT_St17integral_constantIbLb1EE
FNDA:41,_ZNSt14_Function_base13_Base_managerIZN12media_player11controllers18PlaybackController14setAudioEngineESt10unique_ptrINS1_8services15IPlaybackEngineESt14default_deleteIS6_EEEUliiE_E9_M_createIRKSA_EEvRSt9_Any_dataOT_St17integral_constantIbLb1EE
FNDA:41,_ZNSt14_Function_base13_Base_managerIZN12media_player11controllers18PlaybackController14setAudioEngineESt10unique_ptrINS1_8services15IPlaybackEngineESt14default_deleteIS6_EEEUliiE_E9_M_createISA_EEvRSt9_Any_dataOT_St17integral_constantIbLb1EE
FNDA:41,_ZNSt14_Function_base13_Base_managerIZN12media_player11controllers18PlaybackController14setAudioEngineESt10unique_ptrINS1_8services15IPlaybackEngineESt14default_deleteIS6_EEEUlvE_E9_M_createIRKSA_EEvRSt9_Any_dataOT_St17integral_constantIbLb1EE
FNDA:41,_ZNSt14_Function_base13_Base_managerIZN12media_player11controllers18PlaybackController14setAudioEngineESt10unique_ptrINS1_8services15IPlaybackEngineESt14default_deleteIS6_EEEUlvE_E9_M_createISA_EEvRSt9_Any_dataOT_St17integral_constantIbLb1EE
FNDA:66,_ZNSt14_Function_base13_Base_managerIZN12media_player11controllers18PlaybackControllerC4ESt10shared_ptrINS1_6models10QueueModelEES4_INS5_18PlaybackStateModelEES4_INS5_12HistoryModelEEEUlNS1_8services13PlaybackStateEE_E9_M_createIRKSE_EEvRSt9_Any_dataOT_St17integral_constantIbLb1EE
FNDA:66,_ZNSt14_Function_base13_Base_managerIZN12media_player11controllers18PlaybackControllerC4ESt10shared_ptrINS1_6models10QueueModelEES4_INS5_18PlaybackStateModelEES4_INS5_12HistoryModelEEEUlNS1_8services13PlaybackStateEE_E9_M_createISE_EEvRSt9_Any_dataOT_St17integral_constantIbLb1EE
FNDA:66,_ZNSt14_Function_base13_Base_managerIZN12media_player11controllers18PlaybackControllerC4ESt10shared_ptrINS1_6models10QueueModelEES4_INS5_18PlaybackStateModelEES4_INS5_12HistoryModelEEEUlRKNSt7__cxx1112basic_stringIcSt11char_traitsIcESaIcEEEE_E9_M_createIRKSK_EEvRSt9_Any_dataOT_St17integral_constantIbLb1EE
FNDA:66,_ZNSt14_Function_base13_Base_managerIZN12media_player11controllers18PlaybackControllerC4ESt10shared_ptrINS1_6models10QueueModelEES4_INS5_18PlaybackStateModelEES4_INS5_12HistoryModelEEEUlRKNSt7__cxx1112basic_stringIcSt11char_traitsIcESaIcEEEE_E9_M_createISK_EEvRSt9_Any_dataOT_St17integral_constantIbLb1EE
FNDA:66,_ZNSt14_Function_base13_Base_managerIZN12media_player11controllers18PlaybackControllerC4ESt10shared_ptrINS1_6models10QueueModelEES4_INS5_18PlaybackStateModelEES4_INS5_12HistoryModelEEEUliiE_E9_M_createIRKSC_EEvRSt9_Any_dataOT_St17integral_constantIbLb1EE
FNDA:66,_ZNSt14_Function_base13_Base_managerIZN12media_player11controllers18PlaybackControllerC4ESt10shared_ptrINS1_6models10QueueModelEES4_INS5_18PlaybackStateModelEES4_INS5_12HistoryModelEEEUliiE_E9_M_createISC_EEvRSt9_Any_dataOT_St17integral_constantIbLb1EE
FNDA:66,_ZNSt14_Function_base13_Base_managerIZN12media_player11controllers18PlaybackControllerC4ESt10shared_ptrINS1_6models10QueueModelEES4_INS5_18PlaybackStateModelEES4_INS5_12HistoryModelEEEUlvE_E9_M_createIRKSC_EEvRSt9_Any_dataOT_St17integral_constantIbLb1EE
FNDA:66,_ZNSt14_Function_base13_Base_managerIZN12media_player11controllers18PlaybackControllerC4ESt10shared_ptrINS1_6models10QueueModelEES4_INS5_18PlaybackStateModelEES4_INS5_12HistoryModelEEEUlvE_E9_M_createISC_EEvRSt9_Any_dataOT_St17integral_constantIbLb1EE
FNDA:5,_ZNSt14_Function_base13_Base_managerINSt8__detail15_BracketMatcherINSt7__cxx1112regex_traitsIcEELb0ELb0EEEE9_M_createIRKS6_EEvRSt9_Any_dataOT_St17integral_constantIbLb0EE
FNDA:6,_ZNSt14_Function_base13_Base_managerINSt8__detail15_BracketMatcherINSt7__cxx1112regex_traitsIcEELb0ELb0EEEE9_M_createIS6_EEvRSt9_Any_dataOT_St17integral_constantIbLb0EE
FNDA:0,_ZNSt14_Function_base13_Base_managerINSt8__detail15_BracketMatcherINSt7__cxx1112regex_traitsIcEELb0ELb1EEEE9_M_createIRKS6_EEvRSt9_Any_dataOT_St17integral_constantIbLb0EE
FNDA:0,_ZNSt14_Function_base13_Base_managerINSt8__detail15_BracketMatcherINSt7__cxx1112regex_traitsIcEELb0ELb1EEEE9_M_createIS6_EEvRSt9_Any_dataOT_St17integral_constantIbLb0EE
FNDA:0,_ZNSt14_Function_base13_Base_managerINSt8__detail15_BracketMatcherINSt7__cxx1112regex_traitsIcEELb1ELb0EEEE9_M_createIRKS6_EEvRSt9_Any_dataOT_St17integral_constantIbLb0EE
FNDA:0,_ZNSt14_Function_base13_Base_managerINSt8__detail15_BracketMatcherINSt7__cxx1112regex_traitsIcEELb1ELb0EEEE9_M_createIS6_EEvRSt9_Any_dataOT_St17integral_constantIbLb0EE
FNDA:0,_ZNSt14_Function_base13_Base_managerINSt8__detail15_BracketMatcherINSt7__cxx1112regex_traitsIcEELb1ELb1EEEE9_M_createIRKS6_EEvRSt9_Any_dataOT_St17integral_constantIbLb0EE
FNDA:0,_ZNSt14_Function_base13_Base_managerINSt8__detail15_BracketMatcherINSt7__cxx1112regex_traitsIcEELb1ELb1EEEE9_M_createIS6_EEvRSt9_Any_dataOT_St17integral_constantIbLb0EE
FNDA:0,_ZNSt14_Function_base13_Base_managerINSt8__detail11_AnyMatcherINSt7__cxx1112regex_traitsIcEELb0ELb0ELb0EEEE10_M_destroyERSt9_Any_dataSt17integral_constantIbLb1EE
FNDA:0,_ZNSt14_Function_base13_Base_managerINSt8__detail11_AnyMatcherINSt7__cxx1112regex_traitsIcEELb0ELb0ELb1EEEE10_M_destroyERSt9_Any_dataSt17integral_constantIbLb1EE
FNDA:0,_ZNSt14_Function_base13_Base_managerINSt8__detail11_AnyMatcherINSt7__cxx1112regex_traitsIcEELb0ELb1ELb0EEEE10_M_destroyERSt9_Any_dataSt17integral_constantIbLb1EE
FNDA:0,_ZNSt14_Function_base13_Base_managerINSt8__detail11_AnyMatcherINSt7__cxx1112regex_traitsIcEELb0ELb1ELb1EEEE10_M_destroyERSt9_Any_dataSt17integral_constantIbLb1EE
FNDA:0,_ZNSt14_Function_base13_Base_managerINSt8__detail11_AnyMatcherINSt7__cxx1112regex_traitsIcEELb1ELb0ELb0EEEE10_M_destroyERSt9_Any_dataSt17integral_constantIbLb1EE
FNDA:0,_ZNSt14_Function_base13_Base_managerINSt8__detail11_AnyMatcherINSt7__cxx1112regex_traitsIcEELb1ELb0ELb1EEEE10_M_destroyERSt9_Any_dataSt17integral_constantIbLb1EE
FNDA:0,_ZNSt14_Function_base13_Base_managerINSt8__detail11_AnyMatcherINSt7__cxx1112regex_traitsIcEELb1ELb1ELb0EEEE10_M_destroyERSt9_Any_dataSt17integral_constantIbLb1EE
FNDA:0,_ZNSt14_Function_base13_Base_managerINSt8__detail11_AnyMatcherINSt7__cxx1112regex_traitsIcEELb1ELb1ELb1EEEE10_M_destroyERSt9_Any_dataSt17integral_constantIbLb1EE
FNDA:12,_ZNSt14_Function_base13_Base_managerINSt8__detail12_CharMatcherINSt7__cxx1112regex_traitsIcEELb0ELb0EEEE10_M_destroyERSt9_Any_dataSt17integral_constantIbLb1EE
FNDA:0,_ZNSt14_Function_base13_Base_managerINSt8__detail12_CharMatcherINSt7__cxx1112regex_traitsIcEELb0ELb1EEEE10_M_destroyERSt9_Any_dataSt17integral_constantIbLb1EE
FNDA:0,_ZNSt14_Function_base13_Base_managerINSt8__detail12_CharMatcherINSt7__cxx1112regex_traitsIcEELb1ELb0EEEE10_M_destroyERSt9_Any_dataSt17integral_constantIbLb1EE
FNDA:0,_ZNSt14_Function_base13_Base_managerINSt8__detail12_CharMatcherINSt7__cxx1112regex_traitsIcEELb1ELb1EEEE10_M_destroyERSt9_Any_dataSt17integral_constantIbLb1EE
FNDA:21,_ZNSt14_Function_base13_Base_managerIZN12media_player11controllers16SourceControllerC4ESt10shared_ptrINS1_8services12IFileScannerEES4_INS1_12repositories17LibraryRepositoryEES4_INS1_6models12LibraryModelEEEUlSt6vectorINSB_14MediaFileModelESaISF_EEE_E10_M_destroyERSt9_Any_dataSt17integral_constantIbLb1EE
FNDA:21,_ZNSt14_Function_base13_Base_managerIZN12media_player11controllers16SourceControllerC4ESt10shared_ptrINS1_8services12IFileScannerEES4_INS1_12repositories17LibraryRepositoryEES4_INS1_6models12LibraryModelEEEUliRKNSt7__cxx1112basic_stringIcSt11char_traitsIcESaIcEEEE_E10_M_destroyERSt9_Any_dataSt17integral_constantIbLb1EE
FNDA:42,_ZNSt14_Function_base13_Base_managerIZN12media_player11controllers18HardwareControllerC4ESt10shared_ptrINS1_8services20ISerialCommunicationEES4_INS1_6models18PlaybackStateModelEEEUlRKNSt7__cxx1112basic_stringIcSt11char_traitsIcESaIcEEEE0_E10_M_destroyERSt9_Any_dataSt17integral_constantIbLb1EE
FNDA:42,_ZNSt14_Function_base13_Base_managerIZN12media_player11controllers18HardwareControllerC4ESt10shared_ptrINS1_8services20ISerialCommunicationEES4_INS1_6models18PlaybackStateModelEEEUlRKNSt7__cxx1112basic_stringIcSt11char_traitsIcESaIcEEEE_E10_M_destroyERSt9_Any_dataSt17integral_constantIbLb1EE
FNDA:82,_ZNSt14_Function_base13_Base_managerIZN12media_player11controllers18PlaybackController14setAudioEngineESt10unique_ptrINS1_8services15IPlaybackEngineESt14default_deleteIS6_EEEUlNS5_13PlaybackStateEE_E10_M_destroyERSt9_Any_dataSt17integral_constantIbLb1EE
FNDA:82,_ZNSt14_Function_base13_Base_managerIZN12media_player11controllers18PlaybackController14setAudioEngineESt10unique_ptrINS1_8services15IPlaybackEngineESt14default_deleteIS6_EEEUlRKNSt7__cxx1112basic_stringIcSt11char_traitsIcESaIcEEEE_E10_M_destroyERSt9_Any_dataSt17integral_constantIbLb1EE
FNDA:82,_ZNSt14_Function_base13_Base_managerIZN12media_player11controllers18PlaybackController14setAudioEngineESt10unique_ptrINS1_8services15IPlaybackEngineESt14default_deleteIS6_EEEUliiE_E10_M_destroyERSt9_Any_dataSt17integral_constantIbLb1EE
FNDA:82,_ZNSt14_Function_base13_Base_managerIZN12media_player11controllers18PlaybackController14setAudioEngineESt10unique_ptrINS1_8services15IPlaybackEngineESt14default_deleteIS6_EEEUlvE_E10_M_destroyERSt9_Any_dataSt17integral_constantIbLb1EE
FNDA:132,_ZNSt14_Function_base13_Base_managerIZN12media_player11controllers18PlaybackControllerC4ESt10shared_ptrINS1_6models10QueueModelEES4_INS5_18PlaybackStateModelEES4_INS5_12HistoryModelEEEUlNS1_8services13PlaybackStateEE_E10_M_destroyERSt9_Any_dataSt17integral_constantIbLb1EE
FNDA:132,_ZNSt14_Function_base13_Base_managerIZN12media_player11controllers18PlaybackControllerC4ESt10shared_ptrINS1_6models10QueueModelEES4_INS5_18PlaybackStateModelEES4_INS5_12HistoryModelEEEUlRKNSt7__cxx1112basic_stringIcSt11char_traitsIcESaIcEEEE_E10_M_destroyERSt9_Any_dataSt17integral_constantIbLb1EE
FNDA:132,_ZNSt14_Function_base13_Base_managerIZN12media_player11controllers18PlaybackControllerC4ESt10shared_ptrINS1_6models10QueueModelEES4_INS5_18PlaybackStateModelEES4_INS5_12HistoryModelEEEUliiE_E10_M_destroyERSt9_Any_dataSt17integral_constantIbLb1EE
FNDA:132,_ZNSt14_Function_base13_Base_managerIZN12media_player11controllers18PlaybackControllerC4ESt10shared_ptrINS1_6models10QueueModelEES4_INS5_18PlaybackStateModelEES4_INS5_12HistoryModelEEEUlvE_E10_M_destroyERSt9_Any_dataSt17integral_constantIbLb1EE
FNDA:11,_ZNSt14_Function_base13_Base_managerINSt8__detail15_BracketMatcherINSt7__cxx1112regex_traitsIcEELb0ELb0EEEE10_M_destroyERSt9_Any_dataSt17integral_constantIbLb0EE
FNDA:0,_ZNSt14_Function_base13_Base_managerINSt8__detail15_BracketMatcherINSt7__cxx1112regex_traitsIcEELb0ELb1EEEE10_M_destroyERSt9_Any_dataSt17integral_constantIbLb0EE
FNDA:0,_ZNSt14_Function_base13_Base_managerINSt8__detail15_BracketMatcherINSt7__cxx1112regex_traitsIcEELb1ELb0EEEE10_M_destroyERSt9_Any_dataSt17integral_constantIbLb0EE
FNDA:0,_ZNSt14_Function_base13_Base_managerINSt8__detail15_BracketMatcherINSt7__cxx1112regex_traitsIcEELb1ELb1EEEE10_M_destroyERSt9_Any_dataSt17integral_constantIbLb0EE
FNDA:0,_ZNSt14_Function_base13_Base_managerINSt8__detail11_AnyMatcherINSt7__cxx1112regex_traitsIcEELb0ELb0ELb0EEEE10_M_managerERSt9_Any_dataRKS8_St18_Manager_operation
FNDA:0,_ZNSt14_Function_base13_Base_managerINSt8__detail11_AnyMatcherINSt7__cxx1112regex_traitsIcEELb0ELb0ELb1EEEE10_M_managerERSt9_Any_dataRKS8_St18_Manager_operation
FNDA:0,_ZNSt14_Function_base13_Base_managerINSt8__detail11_AnyMatcherINSt7__cxx1112regex_traitsIcEELb0ELb1ELb0EEEE10_M_managerERSt9_Any_dataRKS8_St18_Manager_operation
FNDA:0,_ZNSt14_Function_base13_Base_managerINSt8__detail11_AnyMatcherINSt7__cxx1112regex_traitsIcEELb0ELb1ELb1EEEE10_M_managerERSt9_Any_dataRKS8_St18_Manager_operation
FNDA:0,_ZNSt14_Function_base13_Base_managerINSt8__detail11_AnyMatcherINSt7__cxx1112regex_traitsIcEELb1ELb0ELb0EEEE10_M_managerERSt9_Any_dataRKS8_St18_Manager_operation
FNDA:0,_ZNSt14_Function_base13_Base_managerINSt8__detail11_AnyMatcherINSt7__cxx1112regex_traitsIcEELb1ELb0ELb1EEEE10_M_managerERSt9_Any_dataRKS8_St18_Manager_operation
FNDA:0,_ZNSt14_Function_base13_Base_managerINSt8__detail11_AnyMatcherINSt7__cxx1112regex_traitsIcEELb1ELb1ELb0EEEE10_M_managerERSt9_Any_dataRKS8_St18_Manager_operation
FNDA:0,_ZNSt14_Function_base13_Base_managerINSt8__detail11_AnyMatcherINSt7__cxx1112regex_traitsIcEELb1ELb1ELb1EEEE10_M_managerERSt9_Any_dataRKS8_St18_Manager_operation
FNDA:12,_ZNSt14_Function_base13_Base_managerINSt8__detail12_CharMatcherINSt7__cxx1112regex_traitsIcEELb0ELb0EEEE10_M_managerERSt9_Any_dataRKS8_St18_Manager_operation
FNDA:0,_ZNSt14_Function_base13_Base_managerINSt8__detail12_CharMatcherINSt7__cxx1112regex_traitsIcEELb0ELb1EEEE10_M_managerERSt9_Any_dataRKS8_St18_Manager_operation
FNDA:0,_ZNSt14_Function_base13_Base_managerINSt8__detail12_CharMatcherINSt7__cxx1112regex_traitsIcEELb1ELb0EEEE10_M_managerERSt9_Any_dataRKS8_St18_Manager_operation
FNDA:0,_ZNSt14_Function_base13_Base_managerINSt8__detail12_CharMatcherINSt7__cxx1112regex_traitsIcEELb1ELb1EEEE10_M_managerERSt9_Any_dataRKS8_St18_Manager_operation
FNDA:16,_ZNSt14_Function_base13_Base_managerINSt8__detail15_BracketMatcherINSt7__cxx1112regex_traitsIcEELb0ELb0EEEE10_M_managerERSt9_Any_dataRKS8_St18_Manager_operation
FNDA:0,_ZNSt14_Function_base13_Base_managerINSt8__detail15_BracketMatcherINSt7__cxx1112regex_traitsIcEELb0ELb1EEEE10_M_managerERSt9_Any_dataRKS8_St18_Manager_operation
FNDA:0,_ZNSt14_Function_base13_Base_managerINSt8__detail15_BracketMatcherINSt7__cxx1112regex_traitsIcEELb1ELb0EEEE10_M_managerERSt9_Any_dataRKS8_St18_Manager_operation
FNDA:0,_ZNSt14_Function_base13_Base_managerINSt8__detail15_BracketMatcherINSt7__cxx1112regex_traitsIcEELb1ELb1EEEE10_M_managerERSt9_Any_dataRKS8_St18_Manager_operation
FNDA:23,_ZNSt14_Function_base13_Base_managerIZN12media_player11controllers16SourceControllerC4ESt10shared_ptrINS1_8services12IFileScannerEES4_INS1_12repositories17LibraryRepositoryEES4_INS1_6models12LibraryModelEEEUlSt6vectorINSB_14MediaFileModelESaISF_EEE_E10_M_managerERSt9_Any_dataRKSK_St18_Manager_operation
FNDA:23,_ZNSt14_Function_base13_Base_managerIZN12media_player11controllers16SourceControllerC4ESt10shared_ptrINS1_8services12IFileScannerEES4_INS1_12repositories17LibraryRepositoryEES4_INS1_6models12LibraryModelEEEUliRKNSt7__cxx1112basic_stringIcSt11char_traitsIcESaIcEEEE_E10_M_managerERSt9_Any_dataRKSO_St18_Manager_operation
FNDA:56,_ZNSt14_Function_base13_Base_managerIZN12media_player11controllers18HardwareControllerC4ESt10shared_ptrINS1_8services20ISerialCommunicationEES4_INS1_6models18PlaybackStateModelEEEUlRKNSt7__cxx1112basic_stringIcSt11char_traitsIcESaIcEEEE0_E10_M_managerERSt9_Any_dataRKSL_St18_Manager_operation
FNDA:56,_ZNSt14_Function_base13_Base_managerIZN12media_player11controllers18HardwareControllerC4ESt10shared_ptrINS1_8services20ISerialCommunicationEES4_INS1_6models18PlaybackStateModelEEEUlRKNSt7__cxx1112basic_stringIcSt11char_traitsIcESaIcEEEE_E10_M_managerERSt9_Any_dataRKSL_St18_Manager_operation
FNDA:123,_ZNSt14_Function_base13_Base_managerIZN12media_player11controllers18PlaybackController14setAudioEngineESt10unique_ptrINS1_8services15IPlaybackEngineESt14default_deleteIS6_EEEUlNS5_13PlaybackStateEE_E10_M_managerERSt9_Any_dataRKSD_St18_Manager_operation
FNDA:123,_ZNSt14_Function_base13_Base_managerIZN12media_player11controllers18PlaybackController14setAudioEngineESt10unique_ptrINS1_8services15IPlaybackEngineESt14default_deleteIS6_EEEUlRKNSt7__cxx1112basic_stringIcSt11char_traitsIcESaIcEEEE_E10_M_managerERSt9_Any_dataRKSK_St18_Manager_operation
FNDA:123,_ZNSt14_Function_base13_Base_managerIZN12media_player11controllers18PlaybackController14setAudioEngineESt10unique_ptrINS1_8services15IPlaybackEngineESt14default_deleteIS6_EEEUliiE_E10_M_managerERSt9_Any_dataRKSC_St18_Manager_operation
FNDA:123,_ZNSt14_Function_base13_Base_managerIZN12media_player11controllers18PlaybackController14setAudioEngineESt10unique_ptrINS1_8services15IPlaybackEngineESt14default_deleteIS6_EEEUlvE_E10_M_managerERSt9_Any_dataRKSC_St18_Manager_operation
FNDA:198,_ZNSt14_Function_base13_Base_managerIZN12media_player11controllers18PlaybackControllerC4ESt10shared_ptrINS1_6models10QueueModelEES4_INS5_18PlaybackStateModelEES4_INS5_12HistoryModelEEEUlNS1_8services13PlaybackStateEE_E10_M_managerERSt9_Any_dataRKSG_St18_Manager_operation
FNDA:198,_ZNSt14_Function_base13_Base_managerIZN12media_player11controllers18PlaybackControllerC4ESt10shared_ptrINS1_6models10QueueModelEES4_INS5_18PlaybackStateModelEES4_INS5_12HistoryModelEEEUlRKNSt7__cxx1112basic_stringIcSt11char_traitsIcESaIcEEEE_E10_M_managerERSt9_Any_dataRKSM_St18_Manager_operation
FNDA:198,_ZNSt14_Function_base13_Base_managerIZN12media_player11controllers18PlaybackControllerC4ESt10shared_ptrINS1_6models10QueueModelEES4_INS5_18PlaybackStateModelEES4_INS5_12HistoryModelEEEUliiE_E10_M_managerERSt9_Any_dataRKSE_St18_Manager_operation
FNDA:198,_ZNSt14_Function_base13_Base_managerIZN12media_player11controllers18PlaybackControllerC4ESt10shared_ptrINS1_6models10QueueModelEES4_INS5_18PlaybackStateModelEES4_INS5_12HistoryModelEEEUlvE_E10_M_managerERSt9_Any_dataRKSE_St18_Manager_operation
FNDA:0,_ZNSt14_Function_base13_Base_managerINSt8__detail11_AnyMatcherINSt7__cxx1112regex_traitsIcEELb0ELb0ELb0EEEE15_M_init_functorIRKS6_EEvRSt9_Any_dataOT_
FNDA:0,_ZNSt14_Function_base13_Base_managerINSt8__detail11_AnyMatcherINSt7__cxx1112regex_traitsIcEELb0ELb0ELb0EEEE15_M_init_functorIS6_EEvRSt9_Any_dataOT_
FNDA:0,_ZNSt14_Function_base13_Base_managerINSt8__detail11_AnyMatcherINSt7__cxx1112regex_traitsIcEELb0ELb0ELb1EEEE15_M_init_functorIRKS6_EEvRSt9_Any_dataOT_
FNDA:0,_ZNSt14_Function_base13_Base_managerINSt8__detail11_AnyMatcherINSt7__cxx1112regex_traitsIcEELb0ELb0ELb1EEEE15_M_init_functorIS6_EEvRSt9_Any_dataOT_
FNDA:0,_ZNSt14_Function_base13_Base_managerINSt8__detail11_AnyMatcherINSt7__cxx1112regex_traitsIcEELb0ELb1ELb0EEEE15_M_init_functorIRKS6_EEvRSt9_Any_dataOT_
FNDA:0,_ZNSt14_Function_base13_Base_managerINSt8__detail11_AnyMatcherINSt7__cxx1112regex_traitsIcEELb0ELb1ELb0EEEE15_M_init_functorIS6_EEvRSt9_Any_dataOT_
FNDA:0,_ZNSt14_Function_base13_Base_managerINSt8__detail11_AnyMatcherINSt7__cxx1112regex_traitsIcEELb0ELb1ELb1EEEE15_M_init_functorIRKS6_EEvRSt9_Any_dataOT_
FNDA:0,_ZNSt14_Function_base13_Base_managerINSt8__detail11_AnyMatcherINSt7__cxx1112regex_traitsIcEELb0ELb1ELb1EEEE15_M_init_functorIS6_EEvRSt9_Any_dataOT_
FNDA:0,_ZNSt14_Function_base13_Base_managerINSt8__detail11_AnyMatcherINSt7__cxx1112regex_traitsIcEELb1ELb0ELb0EEEE15_M_init_functorIRKS6_EEvRSt9_Any_dataOT_
FNDA:0,_ZNSt14_Function_base13_Base_managerINSt8__detail11_AnyMatcherINSt7__cxx1112regex_traitsIcEELb1ELb0ELb0EEEE15_M_init_functorIS6_EEvRSt9_Any_dataOT_
FNDA:0,_ZNSt14_Function_base13_Base_managerINSt8__detail11_AnyMatcherINSt7__cxx1112regex_traitsIcEELb1ELb0ELb1EEEE15_M_init_functorIRKS6_EEvRSt9_Any_dataOT_
FNDA:0,_ZNSt14_Function_base13_Base_managerINSt8__detail11_AnyMatcherINSt7__cxx1112regex_traitsIcEELb1ELb0ELb1EEEE15_M_init_functorIS6_EEvRSt9_Any_dataOT_
FNDA:0,_ZNSt14_Function_base13_Base_managerINSt8__detail11_AnyMatcherINSt7__cxx1112regex_traitsIcEELb1ELb1ELb0EEEE15_M_init_functorIRKS6_EEvRSt9_Any_dataOT_
FNDA:0,_ZNSt14_Function_base13_Base_managerINSt8__detail11_AnyMatcherINSt7__cxx1112regex_traitsIcEELb1ELb1ELb0EEEE15_M_init_functorIS6_EEvRSt9_Any_dataOT_
FNDA:0,_ZNSt14_Function_base13_Base_managerINSt8__detail11_AnyMatcherINSt7__cxx1112regex_traitsIcEELb1ELb1ELb1EEEE15_M_init_functorIRKS6_EEvRSt9_Any_dataOT_
FNDA:0,_ZNSt14_Function_base13_Base_managerINSt8__detail11_AnyMatcherINSt7__cxx1112regex_traitsIcEELb1ELb1ELb1EEEE15_M_init_functorIS6_EEvRSt9_Any_dataOT_
FNDA:0,_ZNSt14_Function_base13_Base_managerINSt8__detail12_CharMatcherINSt7__cxx1112regex_traitsIcEELb0ELb0EEEE15_M_init_functorIRKS6_EEvRSt9_Any_dataOT_
FNDA:12,_ZNSt14_Function_base13_Base_managerINSt8__detail12_CharMatcherINSt7__cxx1112regex_traitsIcEELb0ELb0EEEE15_M_init_functorIS6_EEvRSt9_Any_dataOT_
FNDA:0,_ZNSt14_Function_base13_Base_managerINSt8__detail12_CharMatcherINSt7__cxx1112regex_traitsIcEELb0ELb1EEEE15_M_init_functorIRKS6_EEvRSt9_Any_dataOT_
FNDA:0,_ZNSt14_Function_base13_Base_managerINSt8__detail12_CharMatcherINSt7__cxx1112regex_traitsIcEELb0ELb1EEEE15_M_init_functorIS6_EEvRSt9_Any_dataOT_
FNDA:0,_ZNSt14_Function_base13_Base_managerINSt8__detail12_CharMatcherINSt7__cxx1112regex_traitsIcEELb1ELb0EEEE15_M_init_functorIRKS6_EEvRSt9_Any_dataOT_
FNDA:0,_ZNSt14_Function_base13_Base_managerINSt8__detail12_CharMatcherINSt7__cxx1112regex_traitsIcEELb1ELb0EEEE15_M_init_functorIS6_EEvRSt9_Any_dataOT_
FNDA:0,_ZNSt14_Function_base13_Base_managerINSt8__detail12_CharMatcherINSt7__cxx1112regex_traitsIcEELb1ELb1EEEE15_M_init_functorIRKS6_EEvRSt9_Any_dataOT_
FNDA:0,_ZNSt14_Function_base13_Base_managerINSt8__detail12_CharMatcherINSt7__cxx1112regex_traitsIcEELb1ELb1EEEE15_M_init_functorIS6_EEvRSt9_Any_dataOT_
FNDA:5,_ZNSt14_Function_base13_Base_managerINSt8__detail15_BracketMatcherINSt7__cxx1112regex_traitsIcEELb0ELb0EEEE15_M_init_functorIRKS6_EEvRSt9_Any_dataOT_
FNDA:6,_ZNSt14_Function_base13_Base_managerINSt8__detail15_BracketMatcherINSt7__cxx1112regex_traitsIcEELb0ELb0EEEE15_M_init_functorIS6_EEvRSt9_Any_dataOT_
FNDA:0,_ZNSt14_Function_base13_Base_managerINSt8__detail15_BracketMatcherINSt7__cxx1112regex_traitsIcEELb0ELb1EEEE15_M_init_functorIRKS6_EEvRSt9_Any_dataOT_
FNDA:0,_ZNSt14_Function_base13_Base_managerINSt8__detail15_BracketMatcherINSt7__cxx1112regex_traitsIcEELb0ELb1EEEE15_M_init_functorIS6_EEvRSt9_Any_dataOT_
FNDA:0,_ZNSt14_Function_base13_Base_managerINSt8__detail15_BracketMatcherINSt7__cxx1112regex_traitsIcEELb1ELb0EEEE15_M_init_functorIRKS6_EEvRSt9_Any_dataOT_
FNDA:0,_ZNSt14_Function_base13_Base_managerINSt8__detail15_BracketMatcherINSt7__cxx1112regex_traitsIcEELb1ELb0EEEE15_M_init_functorIS6_EEvRSt9_Any_dataOT_
FNDA:0,_ZNSt14_Function_base13_Base_managerINSt8__detail15_BracketMatcherINSt7__cxx1112regex_traitsIcEELb1ELb1EEEE15_M_init_functorIRKS6_EEvRSt9_Any_dataOT_
FNDA:0,_ZNSt14_Function_base13_Base_managerINSt8__detail15_BracketMatcherINSt7__cxx1112regex_traitsIcEELb1ELb1EEEE15_M_init_functorIS6_EEvRSt9_Any_dataOT_
FNDA:2,_ZNSt14_Function_base13_Base_managerIZN12media_player11controllers16SourceControllerC4ESt10shared_ptrINS1_8services12IFileScannerEES4_INS1_12repositories17LibraryRepositoryEES4_INS1_6models12LibraryModelEEEUlSt6vectorINSB_14MediaFileModelESaISF_EEE_E15_M_init_functorIRKSI_EEvRSt9_Any_dataOT_
FNDA:19,_ZNSt14_Function_base13_Base_managerIZN12media_player11controllers16SourceControllerC4ESt10shared_ptrINS1_8services12IFileScannerEES4_INS1_12repositories17LibraryRepositoryEES4_INS1_6models12LibraryModelEEEUlSt6vectorINSB_14MediaFileModelESaISF_EEE_E15_M_init_functorISI_EEvRSt9_Any_dataOT_
FNDA:2,_ZNSt14_Function_base13_Base_managerIZN12media_player11controllers16SourceControllerC4ESt10shared_ptrINS1_8services12IFileScannerEES4_INS1_12repositories17LibraryRepositoryEES4_INS1_6models12LibraryModelEEEUliRKNSt7__cxx1112basic_stringIcSt11char_traitsIcESaIcEEEE_E15_M_init_functorIRKSM_EEvRSt9_Any_dataOT_
FNDA:19,_ZNSt14_Function_base13_Base_managerIZN12media_player11controllers16SourceControllerC4ESt10shared_ptrINS1_8services12IFileScannerEES4_INS1_12repositories17LibraryRepositoryEES4_INS1_6models12LibraryModelEEEUliRKNSt7__cxx1112basic_stringIcSt11char_traitsIcESaIcEEEE_E15_M_init_functorISM_EEvRSt9_Any_dataOT_
FNDA:14,_ZNSt14_Function_base13_Base_managerIZN12media_player11controllers18HardwareControllerC4ESt10shared_ptrINS1_8services20ISerialCommunicationEES4_INS1_6models18PlaybackStateModelEEEUlRKNSt7__cxx1112basic_stringIcSt11char_traitsIcESaIcEEEE0_E15_M_init_functorIRKSJ_EEvRSt9_Any_dataOT_
FNDA:28,_ZNSt14_Function_base13_Base_managerIZN12media_player11controllers18HardwareControllerC4ESt10shared_ptrINS1_8services20ISerialCommunicationEES4_INS1_6models18PlaybackStateModelEEEUlRKNSt7__cxx1112basic_stringIcSt11char_traitsIcESaIcEEEE0_E15_M_init_functorISJ_EEvRSt9_Any_dataOT_
FNDA:14,_ZNSt14_Function_base13_Base_managerIZN12media_player11controllers18HardwareControllerC4ESt10shared_ptrINS1_8services20ISerialCommunicationEES4_INS1_6models18PlaybackStateModelEEEUlRKNSt7__cxx1112basic_stringIcSt11char_traitsIcESaIcEEEE_E15_M_init_functorIRKSJ_EEvRSt9_Any_dataOT_
FNDA:28,_ZNSt14_Function_base13_Base_managerIZN12media_player11controllers18HardwareControllerC4ESt10shared_ptrINS1_8services20ISerialCommunicationEES4_INS1_6models18PlaybackStateModelEEEUlRKNSt7__cxx1112basic_stringIcSt11char_traitsIcESaIcEEEE_E15_M_init_functorISJ_EEvRSt9_Any_dataOT_
FNDA:41,_ZNSt14_Function_base13_Base_managerIZN12media_player11controllers18PlaybackController14setAudioEngineESt10unique_ptrINS1_8services15IPlaybackEngineESt14default_deleteIS6_EEEUlNS5_13PlaybackStateEE_E15_M_init_functorIRKSB_EEvRSt9_Any_dataOT_
FNDA:41,_ZNSt14_Function_base13_Base_managerIZN12media_player11controllers18PlaybackController14setAudioEngineESt10unique_ptrINS1_8services15IPlaybackEngineESt14default_deleteIS6_EEEUlNS5_13PlaybackStateEE_E15_M_init_functorISB_EEvRSt9_Any_dataOT_
FNDA:41,_ZNSt14_Function_base13_Base_managerIZN12media_player11controllers18PlaybackController14setAudioEngineESt10unique_ptrINS1_8services15IPlaybackEngineESt14default_deleteIS6_EEEUlRKNSt7__cxx1112basic_stringIcSt11char_traitsIcESaIcEEEE_E15_M_init_functorIRKSI_EEvRSt9_Any_dataOT_
FNDA:41,_ZNSt14_Function_base13_Base_managerIZN12media_player11controllers18PlaybackController14setAudioEngineESt10unique_ptrINS1_8services15IPlaybackEngineESt14default_deleteIS6_EEEUlRKNSt7__cxx1112basic_stringIcSt11char_traitsIcESaIcEEEE_E15_M_init_functorISI_EEvRSt9_Any_dataOT_
FNDA:41,_ZNSt14_Function_base13_Base_managerIZN12media_player11controllers18PlaybackController14setAudioEngineESt10unique_ptrINS1_8services15IPlaybackEngineESt14default_deleteIS6_EEEUliiE_E15_M_init_functorIRKSA_EEvRSt9_Any_dataOT_
FNDA:41,_ZNSt14_Function_base13_Base_managerIZN12media_player11controllers18PlaybackController14setAudioEngineESt10unique_ptrINS1_8services15IPlaybackEngineESt14default_deleteIS6_EEEUliiE_E15_M_init_functorISA_EEvRSt9_Any_dataOT_
FNDA:41,_ZNSt14_Function_base13_Base_managerIZN12media_player11controllers18PlaybackController14setAudioEngineESt10unique_ptrINS1_8services15IPlaybackEngineESt14default_deleteIS6_EEEUlvE_E15_M_init_functorIRKSA_EEvRSt9_Any_dataOT_
FNDA:41,_ZNSt14_Function_base13_Base_managerIZN12media_player11controllers18PlaybackController14setAudioEngineESt10unique_ptrINS1_8services15IPlaybackEngineESt14default_deleteIS6_EEEUlvE_E15_M_init_functorISA_EEvRSt9_Any_dataOT_
FNDA:66,_ZNSt14_Function_base13_Base_managerIZN12media_player11controllers18PlaybackControllerC4ESt10shared_ptrINS1_6models10QueueModelEES4_INS5_18PlaybackStateModelEES4_INS5_12HistoryModelEEEUlNS1_8services13PlaybackStateEE_E15_M_init_functorIRKSE_EEvRSt9_Any_dataOT_
FNDA:66,_ZNSt14_Function_base13_Base_managerIZN12media_player11controllers18PlaybackControllerC4ESt10shared_ptrINS1_6models10QueueModelEES4_INS5_18PlaybackStateModelEES4_INS5_12HistoryModelEEEUlNS1_8services13PlaybackStateEE_E15_M_init_functorISE_EEvRSt9_Any_dataOT_
FNDA:66,_ZNSt14_Function_base13_Base_managerIZN12media_player11controllers18PlaybackControllerC4ESt10shared_ptrINS1_6models10QueueModelEES4_INS5_18PlaybackStateModelEES4_INS5_12HistoryModelEEEUlRKNSt7__cxx1112basic_stringIcSt11char_traitsIcESaIcEEEE_E15_M_init_functorIRKSK_EEvRSt9_Any_dataOT_
FNDA:66,_ZNSt14_Function_base13_Base_managerIZN12media_player11controllers18PlaybackControllerC4ESt10shared_ptrINS1_6models10QueueModelEES4_INS5_18PlaybackStateModelEES4_INS5_12HistoryModelEEEUlRKNSt7__cxx1112basic_stringIcSt11char_traitsIcESaIcEEEE_E15_M_init_functorISK_EEvRSt9_Any_dataOT_
FNDA:66,_ZNSt14_Function_base13_Base_managerIZN12media_player11controllers18PlaybackControllerC4ESt10shared_ptrINS1_6models10QueueModelEES4_INS5_18PlaybackStateModelEES4_INS5_12HistoryModelEEEUliiE_E15_M_init_functorIRKSC_EEvRSt9_Any_dataOT_
FNDA:66,_ZNSt14_Function_base13_Base_managerIZN12media_player11controllers18PlaybackControllerC4ESt10shared_ptrINS1_6models10QueueModelEES4_INS5_18PlaybackStateModelEES4_INS5_12HistoryModelEEEUliiE_E15_M_init_functorISC_EEvRSt9_Any_dataOT_
FNDA:66,_ZNSt14_Function_base13_Base_managerIZN12media_player11controllers18PlaybackControllerC4ESt10shared_ptrINS1_6models10QueueModelEES4_INS5_18PlaybackStateModelEES4_INS5_12HistoryModelEEEUlvE_E15_M_init_functorIRKSC_EEvRSt9_Any_dataOT_
FNDA:66,_ZNSt14_Function_base13_Base_managerIZN12media_player11controllers18PlaybackControllerC4ESt10shared_ptrINS1_6models10QueueModelEES4_INS5_18PlaybackStateModelEES4_INS5_12HistoryModelEEEUlvE_E15_M_init_functorISC_EEvRSt9_Any_dataOT_
FNDA:0,_ZNSt14_Function_base13_Base_managerINSt8__detail11_AnyMatcherINSt7__cxx1112regex_traitsIcEELb0ELb0ELb0EEEE21_M_not_empty_functionIS6_EEbRKT_
FNDA:0,_ZNSt14_Function_base13_Base_managerINSt8__detail11_AnyMatcherINSt7__cxx1112regex_traitsIcEELb0ELb0ELb1EEEE21_M_not_empty_functionIS6_EEbRKT_
FNDA:0,_ZNSt14_Function_base13_Base_managerINSt8__detail11_AnyMatcherINSt7__cxx1112regex_traitsIcEELb0ELb1ELb0EEEE21_M_not_empty_functionIS6_EEbRKT_
FNDA:0,_ZNSt14_Function_base13_Base_managerINSt8__detail11_AnyMatcherINSt7__cxx1112regex_traitsIcEELb0ELb1ELb1EEEE21_M_not_empty_functionIS6_EEbRKT_
FNDA:0,_ZNSt14_Function_base13_Base_managerINSt8__detail11_AnyMatcherINSt7__cxx1112regex_traitsIcEELb1ELb0ELb0EEEE21_M_not_empty_functionIS6_EEbRKT_
FNDA:0,_ZNSt14_Function_base13_Base_managerINSt8__detail11_AnyMatcherINSt7__cxx1112regex_traitsIcEELb1ELb0ELb1EEEE21_M_not_empty_functionIS6_EEbRKT_
FNDA:0,_ZNSt14_Function_base13_Base_managerINSt8__detail11_AnyMatcherINSt7__cxx1112regex_traitsIcEELb1ELb1ELb0EEEE21_M_not_empty_functionIS6_EEbRKT_
FNDA:0,_ZNSt14_Function_base13_Base_managerINSt8__detail11_AnyMatcherINSt7__cxx1112regex_traitsIcEELb1ELb1ELb1EEEE21_M_not_empty_functionIS6_EEbRKT_
FNDA:12,_ZNSt14_Function_base13_Base_managerINSt8__detail12_CharMatcherINSt7__cxx1112regex_traitsIcEELb0ELb0EEEE21_M_not_empty_functionIS6_EEbRKT_
FNDA:0,_ZNSt14_Function_base13_Base_managerINSt8__detail12_CharMatcherINSt7__cxx1112regex_traitsIcEELb0ELb1EEEE21_M_not_empty_functionIS6_EEbRKT_
FNDA:0,_ZNSt14_Function_base13_Base_managerINSt8__detail12_CharMatcherINSt7__cxx1112regex_traitsIcEELb1ELb0EEEE21_M_not_empty_functionIS6_EEbRKT_
FNDA:0,_ZNSt14_Function_base13_Base_managerINSt8__detail12_CharMatcherINSt7__cxx1112regex_traitsIcEELb1ELb1EEEE21_M_not_empty_functionIS6_EEbRKT_
FNDA:6,_ZNSt14_Function_base13_Base_managerINSt8__detail15_BracketMatcherINSt7__cxx1112regex_traitsIcEELb0ELb0EEEE21_M_not_empty_functionIS6_EEbRKT_
FNDA:0,_ZNSt14_Function_base13_Base_managerINSt8__detail15_BracketMatcherINSt7__cxx1112regex_traitsIcEELb0ELb1EEEE21_M_not_empty_functionIS6_EEbRKT_
FNDA:0,_ZNSt14_Function_base13_Base_managerINSt8__detail15_BracketMatcherINSt7__cxx1112regex_traitsIcEELb1ELb0EEEE21_M_not_empty_functionIS6_EEbRKT_
FNDA:0,_ZNSt14_Function_base13_Base_managerINSt8__detail15_BracketMatcherINSt7__cxx1112regex_traitsIcEELb1ELb1EEEE21_M_not_empty_functionIS6_EEbRKT_
FNDA:19,_ZNSt14_Function_base13_Base_managerIZN12media_player11controllers16SourceControllerC4ESt10shared_ptrINS1_8services12IFileScannerEES4_INS1_12repositories17LibraryRepositoryEES4_INS1_6models12LibraryModelEEEUlSt6vectorINSB_14MediaFileModelESaISF_EEE_E21_M_not_empty_functionISI_EEbRKT_
FNDA:19,_ZNSt14_Function_base13_Base_managerIZN12media_player11controllers16SourceControllerC4ESt10shared_ptrINS1_8services12IFileScannerEES4_INS1_12repositories17LibraryRepositoryEES4_INS1_6models12LibraryModelEEEUliRKNSt7__cxx1112basic_stringIcSt11char_traitsIcESaIcEEEE_E21_M_not_empty_functionISM_EEbRKT_
FNDA:28,_ZNSt14_Function_base13_Base_managerIZN12media_player11controllers18HardwareControllerC4ESt10shared_ptrINS1_8services20ISerialCommunicationEES4_INS1_6models18PlaybackStateModelEEEUlRKNSt7__cxx1112basic_stringIcSt11char_traitsIcESaIcEEEE0_E21_M_not_empty_functionISJ_EEbRKT_
FNDA:28,_ZNSt14_Function_base13_Base_managerIZN12media_player11controllers18HardwareControllerC4ESt10shared_ptrINS1_8services20ISerialCommunicationEES4_INS1_6models18PlaybackStateModelEEEUlRKNSt7__cxx1112basic_stringIcSt11char_traitsIcESaIcEEEE_E21_M_not_empty_functionISJ_EEbRKT_
FNDA:41,_ZNSt14_Function_base13_Base_managerIZN12media_player11controllers18PlaybackController14setAudioEngineESt10unique_ptrINS1_8services15IPlaybackEngineESt14default_deleteIS6_EEEUlNS5_13PlaybackStateEE_E21_M_not_empty_functionISB_EEbRKT_
FNDA:41,_ZNSt14_Function_base13_Base_managerIZN12media_player11controllers18PlaybackController14setAudioEngineESt10unique_ptrINS1_8services15IPlaybackEngineESt14default_deleteIS6_EEEUlRKNSt7__cxx1112basic_stringIcSt11char_traitsIcESaIcEEEE_E21_M_not_empty_functionISI_EEbRKT_
FNDA:41,_ZNSt14_Function_base13_Base_managerIZN12media_player11controllers18PlaybackController14setAudioEngineESt10unique_ptrINS1_8services15IPlaybackEngineESt14default_deleteIS6_EEEUliiE_E21_M_not_empty_functionISA_EEbRKT_
FNDA:41,_ZNSt14_Function_base13_Base_managerIZN12media_player11controllers18PlaybackController14setAudioEngineESt10unique_ptrINS1_8services15IPlaybackEngineESt14default_deleteIS6_EEEUlvE_E21_M_not_empty_functionISA_EEbRKT_
FNDA:66,_ZNSt14_Function_base13_Base_managerIZN12media_player11controllers18PlaybackControllerC4ESt10shared_ptrINS1_6models10QueueModelEES4_INS5_18PlaybackStateModelEES4_INS5_12HistoryModelEEEUlNS1_8services13PlaybackStateEE_E21_M_not_empty_functionISE_EEbRKT_
FNDA:66,_ZNSt14_Function_base13_Base_managerIZN12media_player11controllers18PlaybackControllerC4ESt10shared_ptrINS1_6models10QueueModelEES4_INS5_18PlaybackStateModelEES4_INS5_12HistoryModelEEEUlRKNSt7__cxx1112basic_stringIcSt11char_traitsIcESaIcEEEE_E21_M_not_empty_functionISK_EEbRKT_
FNDA:66,_ZNSt14_Function_base13_Base_managerIZN12media_player11controllers18PlaybackControllerC4ESt10shared_ptrINS1_6models10QueueModelEES4_INS5_18PlaybackStateModelEES4_INS5_12HistoryModelEEEUliiE_E21_M_not_empty_functionISC_EEbRKT_
FNDA:66,_ZNSt14_Function_base13_Base_managerIZN12media_player11controllers18PlaybackControllerC4ESt10shared_ptrINS1_6models10QueueModelEES4_INS5_18PlaybackStateModelEES4_INS5_12HistoryModelEEEUlvE_E21_M_not_empty_functionISC_EEbRKT_
FNDA:0,_ZNSt14_Function_baseC2Ev
FNDA:0,_ZNSt14_Function_baseD2Ev
FNDA:0,_ZNKSt14_Function_base8_M_emptyEv
FNDA:0,_ZNSt17_Function_handlerIFbcENSt8__detail11_AnyMatcherINSt7__cxx1112regex_traitsIcEELb0ELb0ELb0EEEE10_M_managerERSt9_Any_dataRKS8_St18_Manager_operation
FNDA:0,_ZNSt17_Function_handlerIFbcENSt8__detail11_AnyMatcherINSt7__cxx1112regex_traitsIcEELb0ELb0ELb1EEEE10_M_managerERSt9_Any_dataRKS8_St18_Manager_operation
FNDA:0,_ZNSt17_Function_handlerIFbcENSt8__detail11_AnyMatcherINSt7__cxx1112regex_traitsIcEELb0ELb1ELb0EEEE10_M_managerERSt9_Any_dataRKS8_St18_Manager_operation
FNDA:0,_ZNSt17_Function_handlerIFbcENSt8__detail11_AnyMatcherINSt7__cxx1112regex_traitsIcEELb0ELb1ELb1EEEE10_M_managerERSt9_Any_dataRKS8_St18_Manager_operation
FNDA:0,_ZNSt17_Function_handlerIFbcENSt8__detail11_AnyMatcherINSt7__cxx1112regex_traitsIcEELb1ELb0ELb0EEEE10_M_managerERSt9_Any_dataRKS8_St18_Manager_operation
FNDA:0,_ZNSt17_Function_handlerIFbcENSt8__detail11_AnyMatcherINSt7__cxx1112regex_traitsIcEELb1ELb0ELb1EEEE10_M_managerERSt9_Any_dataRKS8_St18_Manager_operation
FNDA:0,_ZNSt17_Function_handlerIFbcENSt8__detail11_AnyMatcherINSt7__cxx1112regex_traitsIcEELb1ELb1ELb0EEEE10_M_managerERSt9_Any_dataRKS8_St18_Manager_operation
FNDA:0,_ZNSt17_Function_handlerIFbcENSt8__detail11_AnyMatcherINSt7__cxx1112regex_traitsIcEELb1ELb1ELb1EEEE10_M_managerERSt9_Any_dataRKS8_St18_Manager_operation
FNDA:12,_ZNSt17_Function_handlerIFbcENSt8__detail12_CharMatcherINSt7__cxx1112regex_traitsIcEELb0ELb0EEEE10_M_managerERSt9_Any_dataRKS8_St18_Manager_operation
FNDA:0,_ZNSt17_Function_handlerIFbcENSt8__detail12_CharMatcherINSt7__cxx1112regex_traitsIcEELb0ELb1EEEE10_M_managerERSt9_Any_dataRKS8_St18_Manager_operation
FNDA:0,_ZNSt17_Function_handlerIFbcENSt8__detail12_CharMatcherINSt7__cxx1112regex_traitsIcEELb1ELb0EEEE10_M_managerERSt9_Any_dataRKS8_St18_Manager_operation
FNDA:0,_ZNSt17_Function_handlerIFbcENSt8__detail12_CharMatcherINSt7__cxx1112regex_traitsIcEELb1ELb1EEEE10_M_managerERSt9_Any_dataRKS8_St18_Manager_operation
FNDA:16,_ZNSt17_Function_handlerIFbcENSt8__detail15_BracketMatcherINSt7__cxx1112regex_traitsIcEELb0ELb0EEEE10_M_managerERSt9_Any_dataRKS8_St18_Manager_operation
FNDA:0,_ZNSt17_Function_handlerIFbcENSt8__detail15_BracketMatcherINSt7__cxx1112regex_traitsIcEELb0ELb1EEEE10_M_managerERSt9_Any_dataRKS8_St18_Manager_operation
FNDA:0,_ZNSt17_Function_handlerIFbcENSt8__detail15_BracketMatcherINSt7__cxx1112regex_traitsIcEELb1ELb0EEEE10_M_managerERSt9_Any_dataRKS8_St18_Manager_operation
FNDA:0,_ZNSt17_Function_handlerIFbcENSt8__detail15_BracketMatcherINSt7__cxx1112regex_traitsIcEELb1ELb1EEEE10_M_managerERSt9_Any_dataRKS8_St18_Manager_operation
FNDA:123,_ZNSt17_Function_handlerIFvN12media_player8services13PlaybackStateEEZNS0_11controllers18PlaybackController14setAudioEngineESt10unique_ptrINS1_15IPlaybackEngineESt14default_deleteIS7_EEEUlS2_E_E10_M_managerERSt9_Any_dataRKSD_St18_Manager_operation
FNDA:198,_ZNSt17_Function_handlerIFvN12media_player8services13PlaybackStateEEZNS0_11controllers18PlaybackControllerC4ESt10shared_ptrINS0_6models10QueueModelEES6_INS7_18PlaybackStateModelEES6_INS7_12HistoryModelEEEUlS2_E_E10_M_managerERSt9_Any_dataRKSG_St18_Manager_operation
FNDA:56,_ZNSt17_Function_handlerIFvRKNSt7__cxx1112basic_stringIcSt11char_traitsIcESaIcEEEEZN12media_player11controllers18HardwareControllerC4ESt10shared_ptrINS9_8services20ISerialCommunicationEESC_INS9_6models18PlaybackStateModelEEEUlS7_E0_E10_M_managerERSt9_Any_dataRKSL_St18_Manager_operation
FNDA:56,_ZNSt17_Function_handlerIFvRKNSt7__cxx1112basic_stringIcSt11char_traitsIcESaIcEEEEZN12media_player11controllers18HardwareControllerC4ESt10shared_ptrINS9_8services20ISerialCommunicationEESC_INS9_6models18PlaybackStateModelEEEUlS7_E_E10_M_managerERSt9_Any_dataRKSL_St18_Manager_operation
FNDA:123,_ZNSt17_Function_handlerIFvRKNSt7__cxx1112basic_stringIcSt11char_traitsIcESaIcEEEEZN12media_player11controllers18PlaybackController14setAudioEngineESt10unique_ptrINS9_8services15IPlaybackEngineESt14default_deleteISE_EEEUlS7_E_E10_M_managerERSt9_Any_dataRKSK_St18_Manager_operation
FNDA:198,_ZNSt17_Function_handlerIFvRKNSt7__cxx1112basic_stringIcSt11char_traitsIcESaIcEEEEZN12media_player11controllers18PlaybackControllerC4ESt10shared_ptrINS9_6models10QueueModelEESC_INSD_18PlaybackStateModelEESC_INSD_12HistoryModelEEEUlS7_E_E10_M_managerERSt9_Any_dataRKSM_St18_Manager_operation
FNDA:23,_ZNSt17_Function_handlerIFvSt6vectorIN12media_player6models14MediaFileModelESaIS3_EEEZNS1_11controllers16SourceControllerC4ESt10shared_ptrINS1_8services12IFileScannerEES9_INS1_12repositories17LibraryRepositoryEES9_INS2_12LibraryModelEEEUlS5_E_E10_M_managerERSt9_Any_dataRKSK_St18_Manager_operation
FNDA:23,_ZNSt17_Function_handlerIFviRKNSt7__cxx1112basic_stringIcSt11char_traitsIcESaIcEEEEZN12media_player11controllers16SourceControllerC4ESt10shared_ptrINS9_8services12IFileScannerEESC_INS9_12repositories17LibraryRepositoryEESC_INS9_6models12LibraryModelEEEUliS7_E_E10_M_managerERSt9_Any_dataRKSO_St18_Manager_operation
FNDA:123,_ZNSt17_Function_handlerIFviiEZN12media_player11controllers18PlaybackController14setAudioEngineESt10unique_ptrINS1_8services15IPlaybackEngineESt14default_deleteIS6_EEEUliiE_E10_M_managerERSt9_Any_dataRKSC_St18_Manager_operation
FNDA:198,_ZNSt17_Function_handlerIFviiEZN12media_player11controllers18PlaybackControllerC4ESt10shared_ptrINS1_6models10QueueModelEES4_INS5_18PlaybackStateModelEES4_INS5_12HistoryModelEEEUliiE_E10_M_managerERSt9_Any_dataRKSE_St18_Manager_operation
FNDA:123,_ZNSt17_Function_handlerIFvvEZN12media_player11controllers18PlaybackController14setAudioEngineESt10unique_ptrINS1_8services15IPlaybackEngineESt14default_deleteIS6_EEEUlvE_E10_M_managerERSt9_Any_dataRKSC_St18_Manager_operation
FNDA:198,_ZNSt17_Function_handlerIFvvEZN12media_player11controllers18PlaybackControllerC4ESt10shared_ptrINS1_6models10QueueModelEES4_INS5_18PlaybackStateModelEES4_INS5_12HistoryModelEEEUlvE_E10_M_managerERSt9_Any_dataRKSE_St18_Manager_operation
FNDA:0,_ZNSt17_Function_handlerIFbcENSt8__detail11_AnyMatcherINSt7__cxx1112regex_traitsIcEELb0ELb0ELb0EEEE9_M_invokeERKSt9_Any_dataOc
FNDA:0,_ZNSt17_Function_handlerIFbcENSt8__detail11_AnyMatcherINSt7__cxx1112regex_traitsIcEELb0ELb0ELb1EEEE9_M_invokeERKSt9_Any_dataOc
FNDA:0,_ZNSt17_Function_handlerIFbcENSt8__detail11_AnyMatcherINSt7__cxx1112regex_traitsIcEELb0ELb1ELb0EEEE9_M_invokeERKSt9_Any_dataOc
FNDA:0,_ZNSt17_Function_handlerIFbcENSt8__detail11_AnyMatcherINSt7__cxx1112regex_traitsIcEELb0ELb1ELb1EEEE9_M_invokeERKSt9_Any_dataOc
FNDA:0,_ZNSt17_Function_handlerIFbcENSt8__detail11_AnyMatcherINSt7__cxx1112regex_traitsIcEELb1ELb0ELb0EEEE9_M_invokeERKSt9_Any_dataOc
FNDA:0,_ZNSt17_Function_handlerIFbcENSt8__detail11_AnyMatcherINSt7__cxx1112regex_traitsIcEELb1ELb0ELb1EEEE9_M_invokeERKSt9_Any_dataOc
FNDA:0,_ZNSt17_Function_handlerIFbcENSt8__detail11_AnyMatcherINSt7__cxx1112regex_traitsIcEELb1ELb1ELb0EEEE9_M_invokeERKSt9_Any_dataOc
FNDA:0,_ZNSt17_Function_handlerIFbcENSt8__detail11_AnyMatcherINSt7__cxx1112regex_traitsIcEELb1ELb1ELb1EEEE9_M_invokeERKSt9_Any_dataOc
FNDA:104,_ZNSt17_Function_handlerIFbcENSt8__detail12_CharMatcherINSt7__cxx1112regex_traitsIcEELb0ELb0EEEE9_M_invokeERKSt9_Any_dataOc
FNDA:0,_ZNSt17_Function_handlerIFbcENSt8__detail12_CharMatcherINSt7__cxx1112regex_traitsIcEELb0ELb1EEEE9_M_invokeERKSt9_Any_dataOc
FNDA:0,_ZNSt17_Function_handlerIFbcENSt8__detail12_CharMatcherINSt7__cxx1112regex_traitsIcEELb1ELb0EEEE9_M_invokeERKSt9_Any_dataOc
FNDA:0,_ZNSt17_Function_handlerIFbcENSt8__detail12_CharMatcherINSt7__cxx1112regex_traitsIcEELb1ELb1EEEE9_M_invokeERKSt9_Any_dataOc
FNDA:90,_ZNSt17_Function_handlerIFbcENSt8__detail15_BracketMatcherINSt7__cxx1112regex_traitsIcEELb0ELb0EEEE9_M_invokeERKSt9_Any_dataOc
FNDA:0,_ZNSt17_Function_handlerIFbcENSt8__detail15_BracketMatcherINSt7__cxx1112regex_traitsIcEELb0ELb1EEEE9_M_invokeERKSt9_Any_dataOc
FNDA:0,_ZNSt17_Function_handlerIFbcENSt8__detail15_BracketMatcherINSt7__cxx1112regex_traitsIcEELb1ELb0EEEE9_M_invokeERKSt9_Any_dataOc
FNDA:0,_ZNSt17_Function_handlerIFbcENSt8__detail15_BracketMatcherINSt7__cxx1112regex_traitsIcEELb1ELb1EEEE9_M_invokeERKSt9_Any_dataOc
FNDA:133,_ZNSt17_Function_handlerIFvN12media_player8services13PlaybackStateEEZNS0_11controllers18PlaybackController14setAudioEngineESt10unique_ptrINS1_15IPlaybackEngineESt14default_deleteIS7_EEEUlS2_E_E9_M_invokeERKSt9_Any_dataOS2_
FNDA:0,_ZNSt17_Function_handlerIFvN12media_player8services13PlaybackStateEEZNS0_11controllers18PlaybackControllerC4ESt10shared_ptrINS0_6models10QueueModelEES6_INS7_18PlaybackStateModelEES6_INS7_12HistoryModelEEEUlS2_E_E9_M_invokeERKSt9_Any_dataOS2_
FNDA:1,_ZNSt17_Function_handlerIFvRKNSt7__cxx1112basic_stringIcSt11char_traitsIcESaIcEEEEZN12media_player11controllers18HardwareControllerC4ESt10shared_ptrINS9_8services20ISerialCommunicationEESC_INS9_6models18PlaybackStateModelEEEUlS7_E0_E9_M_invokeERKSt9_Any_dataS7_
FNDA:19,_ZNSt17_Function_handlerIFvRKNSt7__cxx1112basic_stringIcSt11char_traitsIcESaIcEEEEZN12media_player11controllers18HardwareControllerC4ESt10shared_ptrINS9_8services20ISerialCommunicationEESC_INS9_6models18PlaybackStateModelEEEUlS7_E_E9_M_invokeERKSt9_Any_dataS7_
FNDA:1,_ZNSt17_Function_handlerIFvRKNSt7__cxx1112basic_stringIcSt11char_traitsIcESaIcEEEEZN12media_player11controllers18PlaybackController14setAudioEngineESt10unique_ptrINS9_8services15IPlaybackEngineESt14default_deleteISE_EEEUlS7_E_E9_M_invokeERKSt9_Any_dataS7_
FNDA:0,_ZNSt17_Function_handlerIFvRKNSt7__cxx1112basic_stringIcSt11char_traitsIcESaIcEEEEZN12media_player11controllers18PlaybackControllerC4ESt10shared_ptrINS9_6models10QueueModelEESC_INSD_18PlaybackStateModelEESC_INSD_12HistoryModelEEEUlS7_E_E9_M_invokeERKSt9_Any_dataS7_
FNDA:2,_ZNSt17_Function_handlerIFvSt6vectorIN12media_player6models14MediaFileModelESaIS3_EEEZNS1_11controllers16SourceControllerC4ESt10shared_ptrINS1_8services12IFileScannerEES9_INS1_12repositories17LibraryRepositoryEES9_INS2_12LibraryModelEEEUlS5_E_E9_M_invokeERKSt9_Any_dataOS5_
FNDA:2,_ZNSt17_Function_handlerIFviRKNSt7__cxx1112basic_stringIcSt11char_traitsIcESaIcEEEEZN12media_player11controllers16SourceControllerC4ESt10shared_ptrINS9_8services12IFileScannerEESC_INS9_12repositories17LibraryRepositoryEESC_INS9_6models12LibraryModelEEEUliS7_E_E9_M_invokeERKSt9_Any_dataOiS7_
FNDA:2,_ZNSt17_Function_handlerIFviiEZN12media_player11controllers18PlaybackController14setAudioEngineESt10unique_ptrINS1_8services15IPlaybackEngineESt14default_deleteIS6_EEEUliiE_E9_M_invokeERKSt9_Any_dataOiSF_
FNDA:0,_ZNSt17_Function_handlerIFviiEZN12media_player11controllers18PlaybackControllerC4ESt10shared_ptrINS1_6models10QueueModelEES4_INS5_18PlaybackStateModelEES4_INS5_12HistoryModelEEEUliiE_E9_M_invokeERKSt9_Any_dataOiSH_
FNDA:9,_ZNSt17_Function_handlerIFvvEZN12media_player11controllers18PlaybackController14setAudioEngineESt10unique_ptrINS1_8services15IPlaybackEngineESt14default_deleteIS6_EEEUlvE_E9_M_invokeERKSt9_Any_data
FNDA:0,_ZNSt17_Function_handlerIFvvEZN12media_player11controllers18PlaybackControllerC4ESt10shared_ptrINS1_6models10QueueModelEES4_INS5_18PlaybackStateModelEES4_INS5_12HistoryModelEEEUlvE_E9_M_invokeERKSt9_Any_data
FNDA:18,_ZNSt8functionIFbcEEC2Ev
FNDA:28,_ZNSt8functionIFvN12media_player11controllers14HardwareButtonEEEC2Ev
FNDA:0,_ZNSt8functionIFvRKNSt7__cxx1112basic_stringIcSt11char_traitsIcESaIcEEEEEC2Ev
FNDA:0,_ZNSt8functionIFviEEC2Ev
FNDA:0,_ZNSt8functionIFviRKNSt7__cxx1112basic_stringIcSt11char_traitsIcESaIcEEEEEC2Ev
FNDA:5,_ZNSt8functionIFbcEEC2ERKS1_
FNDA:7,_ZNSt8functionIFvN12media_player11controllers14HardwareButtonEEEC2ERKS4_
FNDA:0,_ZNSt8functionIFvRKNSt7__cxx1112basic_stringIcSt11char_traitsIcESaIcEEEEEC2ERKS9_
FNDA:0,_ZNSt8functionIFviEEC2ERKS1_
FNDA:0,_ZNSt8functionIFviRKNSt7__cxx1112basic_stringIcSt11char_traitsIcESaIcEEEEEC2ERKS9_
FNDA:103,_ZNSt8functionIFbcEEC2EOS1_
FNDA:0,_ZNSt8functionIFbcEEC2INSt8__detail11_AnyMatcherINSt7__cxx1112regex_traitsIcEELb0ELb0ELb0EEEvEEOT_
FNDA:0,_ZNSt8functionIFbcEEC2INSt8__detail11_AnyMatcherINSt7__cxx1112regex_traitsIcEELb0ELb0ELb1EEEvEEOT_
FNDA:0,_ZNSt8functionIFbcEEC2INSt8__detail11_AnyMatcherINSt7__cxx1112regex_traitsIcEELb0ELb1ELb0EEEvEEOT_
FNDA:0,_ZNSt8functionIFbcEEC2INSt8__detail11_AnyMatcherINSt7__cxx1112regex_traitsIcEELb0ELb1ELb1EEEvEEOT_
FNDA:0,_ZNSt8functionIFbcEEC2INSt8__detail11_AnyMatcherINSt7__cxx1112regex_traitsIcEELb1ELb0ELb0EEEvEEOT_
FNDA:0,_ZNSt8functionIFbcEEC2INSt8__detail11_AnyMatcherINSt7__cxx1112regex_traitsIcEELb1ELb0ELb1EEEvEEOT_
FNDA:0,_ZNSt8functionIFbcEEC2INSt8__detail11_AnyMatcherINSt7__cxx1112regex_traitsIcEELb1ELb1ELb0EEEvEEOT_
FNDA:0,_ZNSt8functionIFbcEEC2INSt8__detail11_AnyMatcherINSt7__cxx1112regex_traitsIcEELb1ELb1ELb1EEEvEEOT_
FNDA:12,_ZNSt8functionIFbcEEC2INSt8__detail12_CharMatcherINSt7__cxx1112regex_traitsIcEELb0ELb0EEEvEEOT_
FNDA:0,_ZNSt8functionIFbcEEC2INSt8__detail12_CharMatcherINSt7__cxx1112regex_traitsIcEELb0ELb1EEEvEEOT_
FNDA:0,_ZNSt8functionIFbcEEC2INSt8__detail12_CharMatcherINSt7__cxx1112regex_traitsIcEELb1ELb0EEEvEEOT_
FNDA:0,_ZNSt8functionIFbcEEC2INSt8__detail12_CharMatcherINSt7__cxx1112regex_traitsIcEELb1ELb1EEEvEEOT_
FNDA:6,_ZNSt8functionIFbcEEC2INSt8__detail15_BracketMatcherINSt7__cxx1112regex_traitsIcEELb0ELb0EEEvEEOT_
FNDA:0,_ZNSt8functionIFbcEEC2INSt8__detail15_BracketMatcherINSt7__cxx1112regex_traitsIcEELb0ELb1EEEvEEOT_
FNDA:0,_ZNSt8functionIFbcEEC2INSt8__detail15_BracketMatcherINSt7__cxx1112regex_traitsIcEELb1ELb0EEEvEEOT_
FNDA:0,_ZNSt8functionIFbcEEC2INSt8__detail15_BracketMatcherINSt7__cxx1112regex_traitsIcEELb1ELb1EEEvEEOT_
FNDA:41,_ZNSt8functionIFvN12media_player8services13PlaybackStateEEEC2IZNS0_11controllers18PlaybackController14setAudioEngineESt10unique_ptrINS1_15IPlaybackEngineESt14default_deleteIS9_EEEUlS2_E_vEEOT_
FNDA:66,_ZNSt8functionIFvN12media_player8services13PlaybackStateEEEC2IZNS0_11controllers18PlaybackControllerC4ESt10shared_ptrINS0_6models10QueueModelEES8_INS9_18PlaybackStateModelEES8_INS9_12HistoryModelEEEUlS2_E_vEEOT_
FNDA:28,_ZNSt8functionIFvRKNSt7__cxx1112basic_stringIcSt11char_traitsIcESaIcEEEEEC2IZN12media_player11controllers18HardwareControllerC4ESt10shared_ptrINSB_8services20ISerialCommunicationEESE_INSB_6models18PlaybackStateModelEEEUlS7_E0_vEEOT_
FNDA:28,_ZNSt8functionIFvRKNSt7__cxx1112basic_stringIcSt11char_traitsIcESaIcEEEEEC2IZN12media_player11controllers18HardwareControllerC4ESt10shared_ptrINSB_8services20ISerialCommunicationEESE_INSB_6models18PlaybackStateModelEEEUlS7_E_vEEOT_
FNDA:41,_ZNSt8functionIFvRKNSt7__cxx1112basic_stringIcSt11char_traitsIcESaIcEEEEEC2IZN12media_player11controllers18PlaybackController14setAudioEngineESt10unique_ptrINSB_8services15IPlaybackEngineESt14default_deleteISG_EEEUlS7_E_vEEOT_
FNDA:66,_ZNSt8functionIFvRKNSt7__cxx1112basic_stringIcSt11char_traitsIcESaIcEEEEEC2IZN12media_player11controllers18PlaybackControllerC4ESt10shared_ptrINSB_6models10QueueModelEESE_INSF_18PlaybackStateModelEESE_INSF_12HistoryModelEEEUlS7_E_vEEOT_
FNDA:19,_ZNSt8functionIFvSt6vectorIN12media_player6models14MediaFileModelESaIS3_EEEEC2IZNS1_11controllers16SourceControllerC4ESt10shared_ptrINS1_8services12IFileScannerEESB_INS1_12repositories17LibraryRepositoryEESB_INS2_12LibraryModelEEEUlS5_E_vEEOT_
FNDA:19,_ZNSt8functionIFviRKNSt7__cxx1112basic_stringIcSt11char_traitsIcESaIcEEEEEC2IZN12media_player11controllers16SourceControllerC4ESt10shared_ptrINSB_8services12IFileScannerEESE_INSB_12repositories17LibraryRepositoryEESE_INSB_6models12LibraryModelEEEUliS7_E_vEEOT_
FNDA:41,_ZNSt8functionIFviiEEC2IZN12media_player11controllers18PlaybackController14setAudioEngineESt10unique_ptrINS3_8services15IPlaybackEngineESt14default_deleteIS8_EEEUliiE_vEEOT_
FNDA:66,_ZNSt8functionIFviiEEC2IZN12media_player11controllers18PlaybackControllerC4ESt10shared_ptrINS3_6models10QueueModelEES6_INS7_18PlaybackStateModelEES6_INS7_12HistoryModelEEEUliiE_vEEOT_
FNDA:41,_ZNSt8functionIFvvEEC2IZN12media_player11controllers18PlaybackController14setAudioEngineESt10unique_ptrINS3_8services15IPlaybackEngineESt14default_deleteIS8_EEEUlvE_vEEOT_
FNDA:66,_ZNSt8functionIFvvEEC2IZN12media_player11controllers18PlaybackControllerC4ESt10shared_ptrINS3_6models10QueueModelEES6_INS7_18PlaybackStateModelEES6_INS7_12HistoryModelEEEUlvE_vEEOT_
FNDA:7,_ZNSt8functionIFvN12media_player11controllers14HardwareButtonEEEaSERKS4_
FNDA:0,_ZNSt8functionIFvRKNSt7__cxx1112basic_stringIcSt11char_traitsIcESaIcEEEEEaSERKS9_
FNDA:7,_ZNSt8functionIFviEEaSERKS1_
FNDA:0,_ZNSt8functionIFviRKNSt7__cxx1112basic_stringIcSt11char_traitsIcESaIcEEEEEaSERKS9_
FNDA:18,_ZNSt8functionIFbcEEaSEOS1_
FNDA:18,_ZNSt8functionIFbcEE4swapERS1_
FNDA:7,_ZNSt8functionIFvN12media_player11controllers14HardwareButtonEEE4swapERS4_
FNDA:0,_ZNSt8functionIFvRKNSt7__cxx1112basic_stringIcSt11char_traitsIcESaIcEEEEE4swapERS9_
FNDA:7,_ZNSt8functionIFviEE4swapERS1_
FNDA:0,_ZNSt8functionIFviRKNSt7__cxx1112basic_stringIcSt11char_traitsIcESaIcEEEEE4swapERS9_
FNDA:108,_ZNKSt8functionIFbcEEcvbEv
FNDA:10,_ZNKSt8functionIFvN12media_player11controllers14HardwareButtonEEEcvbEv
FNDA:0,_ZNKSt8functionIFvN12media_player6models13PlaybackStateEEEcvbEv
FNDA:0,_ZNKSt8functionIFvRKNSt7__cxx1112basic_stringIcSt11char_traitsIcESaIcEEEEEcvbEv
FNDA:0,_ZNKSt8functionIFviEEcvbEv
FNDA:0,_ZNKSt8functionIFviRKNSt7__cxx1112basic_stringIcSt11char_traitsIcESaIcEEEEEcvbEv
FNDA:0,_ZNKSt8functionIFvvEEcvbEv
FNDA:194,_ZNKSt8functionIFbcEEclEc
FNDA:3,_ZNKSt8functionIFvN12media_player11controllers14HardwareButtonEEEclES2_
FNDA:0,_ZNKSt8functionIFvN12media_player6models13PlaybackStateEEEclES2_
FNDA:0,_ZNKSt8functionIFvRKNSt7__cxx1112basic_stringIcSt11char_traitsIcESaIcEEEEEclES7_
FNDA:0,_ZNKSt8functionIFviEEclEi
FNDA:0,_ZNKSt8functionIFviRKNSt7__cxx1112basic_stringIcSt11char_traitsIcESaIcEEEEEclEiS7_
FNDA:0,_ZNKSt8functionIFvvEEclEv
FNDA:0,_ZNSt9_Any_data9_M_accessEv
FNDA:0,_ZNKSt9_Any_data9_M_accessEv
FNDA:0,_ZNSt9_Any_data9_M_accessINSt8__detail11_AnyMatcherINSt7__cxx1112regex_traitsIcEELb0ELb0ELb0EEEEERT_v
